ARM GAS  C:\Users\kbuchi\AppData\Local\Temp\ccCOF4X6.s 			page 1


   1              		.cpu cortex-m0
   2              		.fpu softvfp
   3              		.eabi_attribute 20, 1
   4              		.eabi_attribute 21, 1
   5              		.eabi_attribute 23, 3
   6              		.eabi_attribute 24, 1
   7              		.eabi_attribute 25, 1
   8              		.eabi_attribute 26, 1
   9              		.eabi_attribute 30, 1
  10              		.eabi_attribute 34, 0
  11              		.eabi_attribute 18, 4
  12              		.code	16
  13              		.file	"PWM_1.c"
  14              		.text
  15              	.Ltext0:
  16              		.cfi_sections	.debug_frame
  17              		.section	.text.PWM_1_Enable,"ax",%progbits
  18              		.align	2
  19              		.global	PWM_1_Enable
  20              		.code	16
  21              		.thumb_func
  22              		.type	PWM_1_Enable, %function
  23              	PWM_1_Enable:
  24              	.LFB2:
  25              		.file 1 ".\\Generated_Source\\PSoC4\\PWM_1.c"
   1:.\Generated_Source\PSoC4/PWM_1.c **** /*******************************************************************************
   2:.\Generated_Source\PSoC4/PWM_1.c **** * File Name: PWM_1.c
   3:.\Generated_Source\PSoC4/PWM_1.c **** * Version 3.30
   4:.\Generated_Source\PSoC4/PWM_1.c **** *
   5:.\Generated_Source\PSoC4/PWM_1.c **** * Description:
   6:.\Generated_Source\PSoC4/PWM_1.c **** *  The PWM User Module consist of an 8 or 16-bit counter with two 8 or 16-bit
   7:.\Generated_Source\PSoC4/PWM_1.c **** *  comparitors. Each instance of this user module is capable of generating
   8:.\Generated_Source\PSoC4/PWM_1.c **** *  two PWM outputs with the same period. The pulse width is selectable between
   9:.\Generated_Source\PSoC4/PWM_1.c **** *  1 and 255/65535. The period is selectable between 2 and 255/65536 clocks.
  10:.\Generated_Source\PSoC4/PWM_1.c **** *  The compare value output may be configured to be active when the present
  11:.\Generated_Source\PSoC4/PWM_1.c **** *  counter is less than or less than/equal to the compare value.
  12:.\Generated_Source\PSoC4/PWM_1.c **** *  A terminal count output is also provided. It generates a pulse one clock
  13:.\Generated_Source\PSoC4/PWM_1.c **** *  width wide when the counter is equal to zero.
  14:.\Generated_Source\PSoC4/PWM_1.c **** *
  15:.\Generated_Source\PSoC4/PWM_1.c **** * Note:
  16:.\Generated_Source\PSoC4/PWM_1.c **** *
  17:.\Generated_Source\PSoC4/PWM_1.c **** *******************************************************************************
  18:.\Generated_Source\PSoC4/PWM_1.c **** * Copyright 2008-2014, Cypress Semiconductor Corporation.  All rights reserved.
  19:.\Generated_Source\PSoC4/PWM_1.c **** * You may use this file only in accordance with the license, terms, conditions,
  20:.\Generated_Source\PSoC4/PWM_1.c **** * disclaimers, and limitations in the end user license agreement accompanying
  21:.\Generated_Source\PSoC4/PWM_1.c **** * the software package with which this file was provided.
  22:.\Generated_Source\PSoC4/PWM_1.c **** ********************************************************************************/
  23:.\Generated_Source\PSoC4/PWM_1.c **** 
  24:.\Generated_Source\PSoC4/PWM_1.c **** #include "PWM_1.h"
  25:.\Generated_Source\PSoC4/PWM_1.c **** 
  26:.\Generated_Source\PSoC4/PWM_1.c **** /* Error message for removed <resource> through optimization */
  27:.\Generated_Source\PSoC4/PWM_1.c **** #ifdef PWM_1_PWMUDB_genblk1_ctrlreg__REMOVED
  28:.\Generated_Source\PSoC4/PWM_1.c ****     #error PWM_v3_30 detected with a constant 0 for the enable or \
  29:.\Generated_Source\PSoC4/PWM_1.c ****          constant 1 for reset. This will prevent the component from operating.
  30:.\Generated_Source\PSoC4/PWM_1.c **** #endif /* PWM_1_PWMUDB_genblk1_ctrlreg__REMOVED */
  31:.\Generated_Source\PSoC4/PWM_1.c **** 
  32:.\Generated_Source\PSoC4/PWM_1.c **** uint8 PWM_1_initVar = 0u;
ARM GAS  C:\Users\kbuchi\AppData\Local\Temp\ccCOF4X6.s 			page 2


  33:.\Generated_Source\PSoC4/PWM_1.c **** 
  34:.\Generated_Source\PSoC4/PWM_1.c **** 
  35:.\Generated_Source\PSoC4/PWM_1.c **** /*******************************************************************************
  36:.\Generated_Source\PSoC4/PWM_1.c **** * Function Name: PWM_1_Start
  37:.\Generated_Source\PSoC4/PWM_1.c **** ********************************************************************************
  38:.\Generated_Source\PSoC4/PWM_1.c **** *
  39:.\Generated_Source\PSoC4/PWM_1.c **** * Summary:
  40:.\Generated_Source\PSoC4/PWM_1.c **** *  The start function initializes the pwm with the default values, the
  41:.\Generated_Source\PSoC4/PWM_1.c **** *  enables the counter to begin counting.  It does not enable interrupts,
  42:.\Generated_Source\PSoC4/PWM_1.c **** *  the EnableInt command should be called if interrupt generation is required.
  43:.\Generated_Source\PSoC4/PWM_1.c **** *
  44:.\Generated_Source\PSoC4/PWM_1.c **** * Parameters:
  45:.\Generated_Source\PSoC4/PWM_1.c **** *  None
  46:.\Generated_Source\PSoC4/PWM_1.c **** *
  47:.\Generated_Source\PSoC4/PWM_1.c **** * Return:
  48:.\Generated_Source\PSoC4/PWM_1.c **** *  None
  49:.\Generated_Source\PSoC4/PWM_1.c **** *
  50:.\Generated_Source\PSoC4/PWM_1.c **** * Global variables:
  51:.\Generated_Source\PSoC4/PWM_1.c **** *  PWM_1_initVar: Is modified when this function is called for the
  52:.\Generated_Source\PSoC4/PWM_1.c **** *   first time. Is used to ensure that initialization happens only once.
  53:.\Generated_Source\PSoC4/PWM_1.c **** *
  54:.\Generated_Source\PSoC4/PWM_1.c **** *******************************************************************************/
  55:.\Generated_Source\PSoC4/PWM_1.c **** void PWM_1_Start(void) 
  56:.\Generated_Source\PSoC4/PWM_1.c **** {
  57:.\Generated_Source\PSoC4/PWM_1.c ****     /* If not Initialized then initialize all required hardware and software */
  58:.\Generated_Source\PSoC4/PWM_1.c ****     if(PWM_1_initVar == 0u)
  59:.\Generated_Source\PSoC4/PWM_1.c ****     {
  60:.\Generated_Source\PSoC4/PWM_1.c ****         PWM_1_Init();
  61:.\Generated_Source\PSoC4/PWM_1.c ****         PWM_1_initVar = 1u;
  62:.\Generated_Source\PSoC4/PWM_1.c ****     }
  63:.\Generated_Source\PSoC4/PWM_1.c ****     PWM_1_Enable();
  64:.\Generated_Source\PSoC4/PWM_1.c **** 
  65:.\Generated_Source\PSoC4/PWM_1.c **** }
  66:.\Generated_Source\PSoC4/PWM_1.c **** 
  67:.\Generated_Source\PSoC4/PWM_1.c **** 
  68:.\Generated_Source\PSoC4/PWM_1.c **** /*******************************************************************************
  69:.\Generated_Source\PSoC4/PWM_1.c **** * Function Name: PWM_1_Init
  70:.\Generated_Source\PSoC4/PWM_1.c **** ********************************************************************************
  71:.\Generated_Source\PSoC4/PWM_1.c **** *
  72:.\Generated_Source\PSoC4/PWM_1.c **** * Summary:
  73:.\Generated_Source\PSoC4/PWM_1.c **** *  Initialize component's parameters to the parameters set by user in the
  74:.\Generated_Source\PSoC4/PWM_1.c **** *  customizer of the component placed onto schematic. Usually called in
  75:.\Generated_Source\PSoC4/PWM_1.c **** *  PWM_1_Start().
  76:.\Generated_Source\PSoC4/PWM_1.c **** *
  77:.\Generated_Source\PSoC4/PWM_1.c **** * Parameters:
  78:.\Generated_Source\PSoC4/PWM_1.c **** *  None
  79:.\Generated_Source\PSoC4/PWM_1.c **** *
  80:.\Generated_Source\PSoC4/PWM_1.c **** * Return:
  81:.\Generated_Source\PSoC4/PWM_1.c **** *  None
  82:.\Generated_Source\PSoC4/PWM_1.c **** *
  83:.\Generated_Source\PSoC4/PWM_1.c **** *******************************************************************************/
  84:.\Generated_Source\PSoC4/PWM_1.c **** void PWM_1_Init(void) 
  85:.\Generated_Source\PSoC4/PWM_1.c **** {
  86:.\Generated_Source\PSoC4/PWM_1.c ****     #if (PWM_1_UsingFixedFunction || PWM_1_UseControl)
  87:.\Generated_Source\PSoC4/PWM_1.c ****         uint8 ctrl;
  88:.\Generated_Source\PSoC4/PWM_1.c ****     #endif /* (PWM_1_UsingFixedFunction || PWM_1_UseControl) */
  89:.\Generated_Source\PSoC4/PWM_1.c **** 
ARM GAS  C:\Users\kbuchi\AppData\Local\Temp\ccCOF4X6.s 			page 3


  90:.\Generated_Source\PSoC4/PWM_1.c ****     #if(!PWM_1_UsingFixedFunction)
  91:.\Generated_Source\PSoC4/PWM_1.c ****         #if(PWM_1_UseStatus)
  92:.\Generated_Source\PSoC4/PWM_1.c ****             /* Interrupt State Backup for Critical Region*/
  93:.\Generated_Source\PSoC4/PWM_1.c ****             uint8 PWM_1_interruptState;
  94:.\Generated_Source\PSoC4/PWM_1.c ****         #endif /* (PWM_1_UseStatus) */
  95:.\Generated_Source\PSoC4/PWM_1.c ****     #endif /* (!PWM_1_UsingFixedFunction) */
  96:.\Generated_Source\PSoC4/PWM_1.c **** 
  97:.\Generated_Source\PSoC4/PWM_1.c ****     #if (PWM_1_UsingFixedFunction)
  98:.\Generated_Source\PSoC4/PWM_1.c ****         /* You are allowed to write the compare value (FF only) */
  99:.\Generated_Source\PSoC4/PWM_1.c ****         PWM_1_CONTROL |= PWM_1_CFG0_MODE;
 100:.\Generated_Source\PSoC4/PWM_1.c ****         #if (PWM_1_DeadBand2_4)
 101:.\Generated_Source\PSoC4/PWM_1.c ****             PWM_1_CONTROL |= PWM_1_CFG0_DB;
 102:.\Generated_Source\PSoC4/PWM_1.c ****         #endif /* (PWM_1_DeadBand2_4) */
 103:.\Generated_Source\PSoC4/PWM_1.c **** 
 104:.\Generated_Source\PSoC4/PWM_1.c ****         ctrl = PWM_1_CONTROL3 & ((uint8 )(~PWM_1_CTRL_CMPMODE1_MASK));
 105:.\Generated_Source\PSoC4/PWM_1.c ****         PWM_1_CONTROL3 = ctrl | PWM_1_DEFAULT_COMPARE1_MODE;
 106:.\Generated_Source\PSoC4/PWM_1.c **** 
 107:.\Generated_Source\PSoC4/PWM_1.c ****          /* Clear and Set SYNCTC and SYNCCMP bits of RT1 register */
 108:.\Generated_Source\PSoC4/PWM_1.c ****         PWM_1_RT1 &= ((uint8)(~PWM_1_RT1_MASK));
 109:.\Generated_Source\PSoC4/PWM_1.c ****         PWM_1_RT1 |= PWM_1_SYNC;
 110:.\Generated_Source\PSoC4/PWM_1.c **** 
 111:.\Generated_Source\PSoC4/PWM_1.c ****         /*Enable DSI Sync all all inputs of the PWM*/
 112:.\Generated_Source\PSoC4/PWM_1.c ****         PWM_1_RT1 &= ((uint8)(~PWM_1_SYNCDSI_MASK));
 113:.\Generated_Source\PSoC4/PWM_1.c ****         PWM_1_RT1 |= PWM_1_SYNCDSI_EN;
 114:.\Generated_Source\PSoC4/PWM_1.c **** 
 115:.\Generated_Source\PSoC4/PWM_1.c ****     #elif (PWM_1_UseControl)
 116:.\Generated_Source\PSoC4/PWM_1.c ****         /* Set the default compare mode defined in the parameter */
 117:.\Generated_Source\PSoC4/PWM_1.c ****         ctrl = PWM_1_CONTROL & ((uint8)(~PWM_1_CTRL_CMPMODE2_MASK)) &
 118:.\Generated_Source\PSoC4/PWM_1.c ****                 ((uint8)(~PWM_1_CTRL_CMPMODE1_MASK));
 119:.\Generated_Source\PSoC4/PWM_1.c ****         PWM_1_CONTROL = ctrl | PWM_1_DEFAULT_COMPARE2_MODE |
 120:.\Generated_Source\PSoC4/PWM_1.c ****                                    PWM_1_DEFAULT_COMPARE1_MODE;
 121:.\Generated_Source\PSoC4/PWM_1.c ****     #endif /* (PWM_1_UsingFixedFunction) */
 122:.\Generated_Source\PSoC4/PWM_1.c **** 
 123:.\Generated_Source\PSoC4/PWM_1.c ****     #if (!PWM_1_UsingFixedFunction)
 124:.\Generated_Source\PSoC4/PWM_1.c ****         #if (PWM_1_Resolution == 8)
 125:.\Generated_Source\PSoC4/PWM_1.c ****             /* Set FIFO 0 to 1 byte register for period*/
 126:.\Generated_Source\PSoC4/PWM_1.c ****             PWM_1_AUX_CONTROLDP0 |= (PWM_1_AUX_CTRL_FIFO0_CLR);
 127:.\Generated_Source\PSoC4/PWM_1.c ****         #else /* (PWM_1_Resolution == 16)*/
 128:.\Generated_Source\PSoC4/PWM_1.c ****             /* Set FIFO 0 to 1 byte register for period */
 129:.\Generated_Source\PSoC4/PWM_1.c ****             PWM_1_AUX_CONTROLDP0 |= (PWM_1_AUX_CTRL_FIFO0_CLR);
 130:.\Generated_Source\PSoC4/PWM_1.c ****             PWM_1_AUX_CONTROLDP1 |= (PWM_1_AUX_CTRL_FIFO0_CLR);
 131:.\Generated_Source\PSoC4/PWM_1.c ****         #endif /* (PWM_1_Resolution == 8) */
 132:.\Generated_Source\PSoC4/PWM_1.c **** 
 133:.\Generated_Source\PSoC4/PWM_1.c ****         PWM_1_WriteCounter(PWM_1_INIT_PERIOD_VALUE);
 134:.\Generated_Source\PSoC4/PWM_1.c ****     #endif /* (!PWM_1_UsingFixedFunction) */
 135:.\Generated_Source\PSoC4/PWM_1.c **** 
 136:.\Generated_Source\PSoC4/PWM_1.c ****     PWM_1_WritePeriod(PWM_1_INIT_PERIOD_VALUE);
 137:.\Generated_Source\PSoC4/PWM_1.c **** 
 138:.\Generated_Source\PSoC4/PWM_1.c ****         #if (PWM_1_UseOneCompareMode)
 139:.\Generated_Source\PSoC4/PWM_1.c ****             PWM_1_WriteCompare(PWM_1_INIT_COMPARE_VALUE1);
 140:.\Generated_Source\PSoC4/PWM_1.c ****         #else
 141:.\Generated_Source\PSoC4/PWM_1.c ****             PWM_1_WriteCompare1(PWM_1_INIT_COMPARE_VALUE1);
 142:.\Generated_Source\PSoC4/PWM_1.c ****             PWM_1_WriteCompare2(PWM_1_INIT_COMPARE_VALUE2);
 143:.\Generated_Source\PSoC4/PWM_1.c ****         #endif /* (PWM_1_UseOneCompareMode) */
 144:.\Generated_Source\PSoC4/PWM_1.c **** 
 145:.\Generated_Source\PSoC4/PWM_1.c ****         #if (PWM_1_KillModeMinTime)
 146:.\Generated_Source\PSoC4/PWM_1.c ****             PWM_1_WriteKillTime(PWM_1_MinimumKillTime);
ARM GAS  C:\Users\kbuchi\AppData\Local\Temp\ccCOF4X6.s 			page 4


 147:.\Generated_Source\PSoC4/PWM_1.c ****         #endif /* (PWM_1_KillModeMinTime) */
 148:.\Generated_Source\PSoC4/PWM_1.c **** 
 149:.\Generated_Source\PSoC4/PWM_1.c ****         #if (PWM_1_DeadBandUsed)
 150:.\Generated_Source\PSoC4/PWM_1.c ****             PWM_1_WriteDeadTime(PWM_1_INIT_DEAD_TIME);
 151:.\Generated_Source\PSoC4/PWM_1.c ****         #endif /* (PWM_1_DeadBandUsed) */
 152:.\Generated_Source\PSoC4/PWM_1.c **** 
 153:.\Generated_Source\PSoC4/PWM_1.c ****     #if (PWM_1_UseStatus || PWM_1_UsingFixedFunction)
 154:.\Generated_Source\PSoC4/PWM_1.c ****         PWM_1_SetInterruptMode(PWM_1_INIT_INTERRUPTS_MODE);
 155:.\Generated_Source\PSoC4/PWM_1.c ****     #endif /* (PWM_1_UseStatus || PWM_1_UsingFixedFunction) */
 156:.\Generated_Source\PSoC4/PWM_1.c **** 
 157:.\Generated_Source\PSoC4/PWM_1.c ****     #if (PWM_1_UsingFixedFunction)
 158:.\Generated_Source\PSoC4/PWM_1.c ****         /* Globally Enable the Fixed Function Block chosen */
 159:.\Generated_Source\PSoC4/PWM_1.c ****         PWM_1_GLOBAL_ENABLE |= PWM_1_BLOCK_EN_MASK;
 160:.\Generated_Source\PSoC4/PWM_1.c ****         /* Set the Interrupt source to come from the status register */
 161:.\Generated_Source\PSoC4/PWM_1.c ****         PWM_1_CONTROL2 |= PWM_1_CTRL2_IRQ_SEL;
 162:.\Generated_Source\PSoC4/PWM_1.c ****     #else
 163:.\Generated_Source\PSoC4/PWM_1.c ****         #if(PWM_1_UseStatus)
 164:.\Generated_Source\PSoC4/PWM_1.c **** 
 165:.\Generated_Source\PSoC4/PWM_1.c ****             /* CyEnterCriticalRegion and CyExitCriticalRegion are used to mark following region cri
 166:.\Generated_Source\PSoC4/PWM_1.c ****             /* Enter Critical Region*/
 167:.\Generated_Source\PSoC4/PWM_1.c ****             PWM_1_interruptState = CyEnterCriticalSection();
 168:.\Generated_Source\PSoC4/PWM_1.c ****             /* Use the interrupt output of the status register for IRQ output */
 169:.\Generated_Source\PSoC4/PWM_1.c ****             PWM_1_STATUS_AUX_CTRL |= PWM_1_STATUS_ACTL_INT_EN_MASK;
 170:.\Generated_Source\PSoC4/PWM_1.c **** 
 171:.\Generated_Source\PSoC4/PWM_1.c ****              /* Exit Critical Region*/
 172:.\Generated_Source\PSoC4/PWM_1.c ****             CyExitCriticalSection(PWM_1_interruptState);
 173:.\Generated_Source\PSoC4/PWM_1.c **** 
 174:.\Generated_Source\PSoC4/PWM_1.c ****             /* Clear the FIFO to enable the PWM_1_STATUS_FIFOFULL
 175:.\Generated_Source\PSoC4/PWM_1.c ****                    bit to be set on FIFO full. */
 176:.\Generated_Source\PSoC4/PWM_1.c ****             PWM_1_ClearFIFO();
 177:.\Generated_Source\PSoC4/PWM_1.c ****         #endif /* (PWM_1_UseStatus) */
 178:.\Generated_Source\PSoC4/PWM_1.c ****     #endif /* (PWM_1_UsingFixedFunction) */
 179:.\Generated_Source\PSoC4/PWM_1.c **** }
 180:.\Generated_Source\PSoC4/PWM_1.c **** 
 181:.\Generated_Source\PSoC4/PWM_1.c **** 
 182:.\Generated_Source\PSoC4/PWM_1.c **** /*******************************************************************************
 183:.\Generated_Source\PSoC4/PWM_1.c **** * Function Name: PWM_1_Enable
 184:.\Generated_Source\PSoC4/PWM_1.c **** ********************************************************************************
 185:.\Generated_Source\PSoC4/PWM_1.c **** *
 186:.\Generated_Source\PSoC4/PWM_1.c **** * Summary:
 187:.\Generated_Source\PSoC4/PWM_1.c **** *  Enables the PWM block operation
 188:.\Generated_Source\PSoC4/PWM_1.c **** *
 189:.\Generated_Source\PSoC4/PWM_1.c **** * Parameters:
 190:.\Generated_Source\PSoC4/PWM_1.c **** *  None
 191:.\Generated_Source\PSoC4/PWM_1.c **** *
 192:.\Generated_Source\PSoC4/PWM_1.c **** * Return:
 193:.\Generated_Source\PSoC4/PWM_1.c **** *  None
 194:.\Generated_Source\PSoC4/PWM_1.c **** *
 195:.\Generated_Source\PSoC4/PWM_1.c **** * Side Effects:
 196:.\Generated_Source\PSoC4/PWM_1.c **** *  This works only if software enable mode is chosen
 197:.\Generated_Source\PSoC4/PWM_1.c **** *
 198:.\Generated_Source\PSoC4/PWM_1.c **** *******************************************************************************/
 199:.\Generated_Source\PSoC4/PWM_1.c **** void PWM_1_Enable(void) 
 200:.\Generated_Source\PSoC4/PWM_1.c **** {
  26              		.loc 1 200 0
  27              		.cfi_startproc
 201:.\Generated_Source\PSoC4/PWM_1.c ****     /* Globally Enable the Fixed Function Block chosen */
ARM GAS  C:\Users\kbuchi\AppData\Local\Temp\ccCOF4X6.s 			page 5


 202:.\Generated_Source\PSoC4/PWM_1.c ****     #if (PWM_1_UsingFixedFunction)
 203:.\Generated_Source\PSoC4/PWM_1.c ****         PWM_1_GLOBAL_ENABLE |= PWM_1_BLOCK_EN_MASK;
 204:.\Generated_Source\PSoC4/PWM_1.c ****         PWM_1_GLOBAL_STBY_ENABLE |= PWM_1_BLOCK_STBY_EN_MASK;
 205:.\Generated_Source\PSoC4/PWM_1.c ****     #endif /* (PWM_1_UsingFixedFunction) */
 206:.\Generated_Source\PSoC4/PWM_1.c **** 
 207:.\Generated_Source\PSoC4/PWM_1.c ****     /* Enable the PWM from the control register  */
 208:.\Generated_Source\PSoC4/PWM_1.c ****     #if (PWM_1_UseControl || PWM_1_UsingFixedFunction)
 209:.\Generated_Source\PSoC4/PWM_1.c ****         PWM_1_CONTROL |= PWM_1_CTRL_ENABLE;
 210:.\Generated_Source\PSoC4/PWM_1.c ****     #endif /* (PWM_1_UseControl || PWM_1_UsingFixedFunction) */
 211:.\Generated_Source\PSoC4/PWM_1.c **** }
  28              		.loc 1 211 0
  29              		@ sp needed
  30 0000 7047     		bx	lr
  31              		.cfi_endproc
  32              	.LFE2:
  33              		.size	PWM_1_Enable, .-PWM_1_Enable
  34 0002 C046     		.section	.text.PWM_1_Stop,"ax",%progbits
  35              		.align	2
  36              		.global	PWM_1_Stop
  37              		.code	16
  38              		.thumb_func
  39              		.type	PWM_1_Stop, %function
  40              	PWM_1_Stop:
  41              	.LFB3:
 212:.\Generated_Source\PSoC4/PWM_1.c **** 
 213:.\Generated_Source\PSoC4/PWM_1.c **** 
 214:.\Generated_Source\PSoC4/PWM_1.c **** /*******************************************************************************
 215:.\Generated_Source\PSoC4/PWM_1.c **** * Function Name: PWM_1_Stop
 216:.\Generated_Source\PSoC4/PWM_1.c **** ********************************************************************************
 217:.\Generated_Source\PSoC4/PWM_1.c **** *
 218:.\Generated_Source\PSoC4/PWM_1.c **** * Summary:
 219:.\Generated_Source\PSoC4/PWM_1.c **** *  The stop function halts the PWM, but does not change any modes or disable
 220:.\Generated_Source\PSoC4/PWM_1.c **** *  interrupts.
 221:.\Generated_Source\PSoC4/PWM_1.c **** *
 222:.\Generated_Source\PSoC4/PWM_1.c **** * Parameters:
 223:.\Generated_Source\PSoC4/PWM_1.c **** *  None
 224:.\Generated_Source\PSoC4/PWM_1.c **** *
 225:.\Generated_Source\PSoC4/PWM_1.c **** * Return:
 226:.\Generated_Source\PSoC4/PWM_1.c **** *  None
 227:.\Generated_Source\PSoC4/PWM_1.c **** *
 228:.\Generated_Source\PSoC4/PWM_1.c **** * Side Effects:
 229:.\Generated_Source\PSoC4/PWM_1.c **** *  If the Enable mode is set to Hardware only then this function
 230:.\Generated_Source\PSoC4/PWM_1.c **** *  has no effect on the operation of the PWM
 231:.\Generated_Source\PSoC4/PWM_1.c **** *
 232:.\Generated_Source\PSoC4/PWM_1.c **** *******************************************************************************/
 233:.\Generated_Source\PSoC4/PWM_1.c **** void PWM_1_Stop(void) 
 234:.\Generated_Source\PSoC4/PWM_1.c **** {
  42              		.loc 1 234 0
  43              		.cfi_startproc
 235:.\Generated_Source\PSoC4/PWM_1.c ****     #if (PWM_1_UseControl || PWM_1_UsingFixedFunction)
 236:.\Generated_Source\PSoC4/PWM_1.c ****         PWM_1_CONTROL &= ((uint8)(~PWM_1_CTRL_ENABLE));
 237:.\Generated_Source\PSoC4/PWM_1.c ****     #endif /* (PWM_1_UseControl || PWM_1_UsingFixedFunction) */
 238:.\Generated_Source\PSoC4/PWM_1.c **** 
 239:.\Generated_Source\PSoC4/PWM_1.c ****     /* Globally disable the Fixed Function Block chosen */
 240:.\Generated_Source\PSoC4/PWM_1.c ****     #if (PWM_1_UsingFixedFunction)
 241:.\Generated_Source\PSoC4/PWM_1.c ****         PWM_1_GLOBAL_ENABLE &= ((uint8)(~PWM_1_BLOCK_EN_MASK));
 242:.\Generated_Source\PSoC4/PWM_1.c ****         PWM_1_GLOBAL_STBY_ENABLE &= ((uint8)(~PWM_1_BLOCK_STBY_EN_MASK));
ARM GAS  C:\Users\kbuchi\AppData\Local\Temp\ccCOF4X6.s 			page 6


 243:.\Generated_Source\PSoC4/PWM_1.c ****     #endif /* (PWM_1_UsingFixedFunction) */
 244:.\Generated_Source\PSoC4/PWM_1.c **** }
  44              		.loc 1 244 0
  45              		@ sp needed
  46 0000 7047     		bx	lr
  47              		.cfi_endproc
  48              	.LFE3:
  49              		.size	PWM_1_Stop, .-PWM_1_Stop
  50 0002 C046     		.section	.text.PWM_1_WriteCounter,"ax",%progbits
  51              		.align	2
  52              		.global	PWM_1_WriteCounter
  53              		.code	16
  54              		.thumb_func
  55              		.type	PWM_1_WriteCounter, %function
  56              	PWM_1_WriteCounter:
  57              	.LFB4:
 245:.\Generated_Source\PSoC4/PWM_1.c **** 
 246:.\Generated_Source\PSoC4/PWM_1.c **** #if (PWM_1_UseOneCompareMode)
 247:.\Generated_Source\PSoC4/PWM_1.c ****     #if (PWM_1_CompareMode1SW)
 248:.\Generated_Source\PSoC4/PWM_1.c **** 
 249:.\Generated_Source\PSoC4/PWM_1.c **** 
 250:.\Generated_Source\PSoC4/PWM_1.c ****         /*******************************************************************************
 251:.\Generated_Source\PSoC4/PWM_1.c ****         * Function Name: PWM_1_SetCompareMode
 252:.\Generated_Source\PSoC4/PWM_1.c ****         ********************************************************************************
 253:.\Generated_Source\PSoC4/PWM_1.c ****         *
 254:.\Generated_Source\PSoC4/PWM_1.c ****         * Summary:
 255:.\Generated_Source\PSoC4/PWM_1.c ****         *  This function writes the Compare Mode for the pwm output when in Dither mode,
 256:.\Generated_Source\PSoC4/PWM_1.c ****         *  Center Align Mode or One Output Mode.
 257:.\Generated_Source\PSoC4/PWM_1.c ****         *
 258:.\Generated_Source\PSoC4/PWM_1.c ****         * Parameters:
 259:.\Generated_Source\PSoC4/PWM_1.c ****         *  comparemode:  The new compare mode for the PWM output. Use the compare types
 260:.\Generated_Source\PSoC4/PWM_1.c ****         *                defined in the H file as input arguments.
 261:.\Generated_Source\PSoC4/PWM_1.c ****         *
 262:.\Generated_Source\PSoC4/PWM_1.c ****         * Return:
 263:.\Generated_Source\PSoC4/PWM_1.c ****         *  None
 264:.\Generated_Source\PSoC4/PWM_1.c ****         *
 265:.\Generated_Source\PSoC4/PWM_1.c ****         *******************************************************************************/
 266:.\Generated_Source\PSoC4/PWM_1.c ****         void PWM_1_SetCompareMode(uint8 comparemode) 
 267:.\Generated_Source\PSoC4/PWM_1.c ****         {
 268:.\Generated_Source\PSoC4/PWM_1.c ****             #if(PWM_1_UsingFixedFunction)
 269:.\Generated_Source\PSoC4/PWM_1.c **** 
 270:.\Generated_Source\PSoC4/PWM_1.c ****                 #if(0 != PWM_1_CTRL_CMPMODE1_SHIFT)
 271:.\Generated_Source\PSoC4/PWM_1.c ****                     uint8 comparemodemasked = ((uint8)((uint8)comparemode << PWM_1_CTRL_CMPMODE1_SH
 272:.\Generated_Source\PSoC4/PWM_1.c ****                 #else
 273:.\Generated_Source\PSoC4/PWM_1.c ****                     uint8 comparemodemasked = comparemode;
 274:.\Generated_Source\PSoC4/PWM_1.c ****                 #endif /* (0 != PWM_1_CTRL_CMPMODE1_SHIFT) */
 275:.\Generated_Source\PSoC4/PWM_1.c **** 
 276:.\Generated_Source\PSoC4/PWM_1.c ****                 PWM_1_CONTROL3 &= ((uint8)(~PWM_1_CTRL_CMPMODE1_MASK)); /*Clear Existing Data */
 277:.\Generated_Source\PSoC4/PWM_1.c ****                 PWM_1_CONTROL3 |= comparemodemasked;
 278:.\Generated_Source\PSoC4/PWM_1.c **** 
 279:.\Generated_Source\PSoC4/PWM_1.c ****             #elif (PWM_1_UseControl)
 280:.\Generated_Source\PSoC4/PWM_1.c **** 
 281:.\Generated_Source\PSoC4/PWM_1.c ****                 #if(0 != PWM_1_CTRL_CMPMODE1_SHIFT)
 282:.\Generated_Source\PSoC4/PWM_1.c ****                     uint8 comparemode1masked = ((uint8)((uint8)comparemode << PWM_1_CTRL_CMPMODE1_S
 283:.\Generated_Source\PSoC4/PWM_1.c ****                                                 PWM_1_CTRL_CMPMODE1_MASK;
 284:.\Generated_Source\PSoC4/PWM_1.c ****                 #else
 285:.\Generated_Source\PSoC4/PWM_1.c ****                     uint8 comparemode1masked = comparemode & PWM_1_CTRL_CMPMODE1_MASK;
ARM GAS  C:\Users\kbuchi\AppData\Local\Temp\ccCOF4X6.s 			page 7


 286:.\Generated_Source\PSoC4/PWM_1.c ****                 #endif /* (0 != PWM_1_CTRL_CMPMODE1_SHIFT) */
 287:.\Generated_Source\PSoC4/PWM_1.c **** 
 288:.\Generated_Source\PSoC4/PWM_1.c ****                 #if(0 != PWM_1_CTRL_CMPMODE2_SHIFT)
 289:.\Generated_Source\PSoC4/PWM_1.c ****                     uint8 comparemode2masked = ((uint8)((uint8)comparemode << PWM_1_CTRL_CMPMODE2_S
 290:.\Generated_Source\PSoC4/PWM_1.c ****                                                PWM_1_CTRL_CMPMODE2_MASK;
 291:.\Generated_Source\PSoC4/PWM_1.c ****                 #else
 292:.\Generated_Source\PSoC4/PWM_1.c ****                     uint8 comparemode2masked = comparemode & PWM_1_CTRL_CMPMODE2_MASK;
 293:.\Generated_Source\PSoC4/PWM_1.c ****                 #endif /* (0 != PWM_1_CTRL_CMPMODE2_SHIFT) */
 294:.\Generated_Source\PSoC4/PWM_1.c **** 
 295:.\Generated_Source\PSoC4/PWM_1.c ****                 /*Clear existing mode */
 296:.\Generated_Source\PSoC4/PWM_1.c ****                 PWM_1_CONTROL &= ((uint8)(~(PWM_1_CTRL_CMPMODE1_MASK |
 297:.\Generated_Source\PSoC4/PWM_1.c ****                                             PWM_1_CTRL_CMPMODE2_MASK)));
 298:.\Generated_Source\PSoC4/PWM_1.c ****                 PWM_1_CONTROL |= (comparemode1masked | comparemode2masked);
 299:.\Generated_Source\PSoC4/PWM_1.c **** 
 300:.\Generated_Source\PSoC4/PWM_1.c ****             #else
 301:.\Generated_Source\PSoC4/PWM_1.c ****                 uint8 temp = comparemode;
 302:.\Generated_Source\PSoC4/PWM_1.c ****             #endif /* (PWM_1_UsingFixedFunction) */
 303:.\Generated_Source\PSoC4/PWM_1.c ****         }
 304:.\Generated_Source\PSoC4/PWM_1.c ****     #endif /* PWM_1_CompareMode1SW */
 305:.\Generated_Source\PSoC4/PWM_1.c **** 
 306:.\Generated_Source\PSoC4/PWM_1.c **** #else /* UseOneCompareMode */
 307:.\Generated_Source\PSoC4/PWM_1.c **** 
 308:.\Generated_Source\PSoC4/PWM_1.c ****     #if (PWM_1_CompareMode1SW)
 309:.\Generated_Source\PSoC4/PWM_1.c **** 
 310:.\Generated_Source\PSoC4/PWM_1.c **** 
 311:.\Generated_Source\PSoC4/PWM_1.c ****         /*******************************************************************************
 312:.\Generated_Source\PSoC4/PWM_1.c ****         * Function Name: PWM_1_SetCompareMode1
 313:.\Generated_Source\PSoC4/PWM_1.c ****         ********************************************************************************
 314:.\Generated_Source\PSoC4/PWM_1.c ****         *
 315:.\Generated_Source\PSoC4/PWM_1.c ****         * Summary:
 316:.\Generated_Source\PSoC4/PWM_1.c ****         *  This function writes the Compare Mode for the pwm or pwm1 output
 317:.\Generated_Source\PSoC4/PWM_1.c ****         *
 318:.\Generated_Source\PSoC4/PWM_1.c ****         * Parameters:
 319:.\Generated_Source\PSoC4/PWM_1.c ****         *  comparemode:  The new compare mode for the PWM output. Use the compare types
 320:.\Generated_Source\PSoC4/PWM_1.c ****         *                defined in the H file as input arguments.
 321:.\Generated_Source\PSoC4/PWM_1.c ****         *
 322:.\Generated_Source\PSoC4/PWM_1.c ****         * Return:
 323:.\Generated_Source\PSoC4/PWM_1.c ****         *  None
 324:.\Generated_Source\PSoC4/PWM_1.c ****         *
 325:.\Generated_Source\PSoC4/PWM_1.c ****         *******************************************************************************/
 326:.\Generated_Source\PSoC4/PWM_1.c ****         void PWM_1_SetCompareMode1(uint8 comparemode) 
 327:.\Generated_Source\PSoC4/PWM_1.c ****         {
 328:.\Generated_Source\PSoC4/PWM_1.c ****             #if(0 != PWM_1_CTRL_CMPMODE1_SHIFT)
 329:.\Generated_Source\PSoC4/PWM_1.c ****                 uint8 comparemodemasked = ((uint8)((uint8)comparemode << PWM_1_CTRL_CMPMODE1_SHIFT)
 330:.\Generated_Source\PSoC4/PWM_1.c ****                                            PWM_1_CTRL_CMPMODE1_MASK;
 331:.\Generated_Source\PSoC4/PWM_1.c ****             #else
 332:.\Generated_Source\PSoC4/PWM_1.c ****                 uint8 comparemodemasked = comparemode & PWM_1_CTRL_CMPMODE1_MASK;
 333:.\Generated_Source\PSoC4/PWM_1.c ****             #endif /* (0 != PWM_1_CTRL_CMPMODE1_SHIFT) */
 334:.\Generated_Source\PSoC4/PWM_1.c **** 
 335:.\Generated_Source\PSoC4/PWM_1.c ****             #if (PWM_1_UseControl)
 336:.\Generated_Source\PSoC4/PWM_1.c ****                 PWM_1_CONTROL &= ((uint8)(~PWM_1_CTRL_CMPMODE1_MASK)); /*Clear existing mode */
 337:.\Generated_Source\PSoC4/PWM_1.c ****                 PWM_1_CONTROL |= comparemodemasked;
 338:.\Generated_Source\PSoC4/PWM_1.c ****             #endif /* (PWM_1_UseControl) */
 339:.\Generated_Source\PSoC4/PWM_1.c ****         }
 340:.\Generated_Source\PSoC4/PWM_1.c ****     #endif /* PWM_1_CompareMode1SW */
 341:.\Generated_Source\PSoC4/PWM_1.c **** 
 342:.\Generated_Source\PSoC4/PWM_1.c **** #if (PWM_1_CompareMode2SW)
ARM GAS  C:\Users\kbuchi\AppData\Local\Temp\ccCOF4X6.s 			page 8


 343:.\Generated_Source\PSoC4/PWM_1.c **** 
 344:.\Generated_Source\PSoC4/PWM_1.c **** 
 345:.\Generated_Source\PSoC4/PWM_1.c ****     /*******************************************************************************
 346:.\Generated_Source\PSoC4/PWM_1.c ****     * Function Name: PWM_1_SetCompareMode2
 347:.\Generated_Source\PSoC4/PWM_1.c ****     ********************************************************************************
 348:.\Generated_Source\PSoC4/PWM_1.c ****     *
 349:.\Generated_Source\PSoC4/PWM_1.c ****     * Summary:
 350:.\Generated_Source\PSoC4/PWM_1.c ****     *  This function writes the Compare Mode for the pwm or pwm2 output
 351:.\Generated_Source\PSoC4/PWM_1.c ****     *
 352:.\Generated_Source\PSoC4/PWM_1.c ****     * Parameters:
 353:.\Generated_Source\PSoC4/PWM_1.c ****     *  comparemode:  The new compare mode for the PWM output. Use the compare types
 354:.\Generated_Source\PSoC4/PWM_1.c ****     *                defined in the H file as input arguments.
 355:.\Generated_Source\PSoC4/PWM_1.c ****     *
 356:.\Generated_Source\PSoC4/PWM_1.c ****     * Return:
 357:.\Generated_Source\PSoC4/PWM_1.c ****     *  None
 358:.\Generated_Source\PSoC4/PWM_1.c ****     *
 359:.\Generated_Source\PSoC4/PWM_1.c ****     *******************************************************************************/
 360:.\Generated_Source\PSoC4/PWM_1.c ****     void PWM_1_SetCompareMode2(uint8 comparemode) 
 361:.\Generated_Source\PSoC4/PWM_1.c ****     {
 362:.\Generated_Source\PSoC4/PWM_1.c **** 
 363:.\Generated_Source\PSoC4/PWM_1.c ****         #if(0 != PWM_1_CTRL_CMPMODE2_SHIFT)
 364:.\Generated_Source\PSoC4/PWM_1.c ****             uint8 comparemodemasked = ((uint8)((uint8)comparemode << PWM_1_CTRL_CMPMODE2_SHIFT)) &
 365:.\Generated_Source\PSoC4/PWM_1.c ****                                                  PWM_1_CTRL_CMPMODE2_MASK;
 366:.\Generated_Source\PSoC4/PWM_1.c ****         #else
 367:.\Generated_Source\PSoC4/PWM_1.c ****             uint8 comparemodemasked = comparemode & PWM_1_CTRL_CMPMODE2_MASK;
 368:.\Generated_Source\PSoC4/PWM_1.c ****         #endif /* (0 != PWM_1_CTRL_CMPMODE2_SHIFT) */
 369:.\Generated_Source\PSoC4/PWM_1.c **** 
 370:.\Generated_Source\PSoC4/PWM_1.c ****         #if (PWM_1_UseControl)
 371:.\Generated_Source\PSoC4/PWM_1.c ****             PWM_1_CONTROL &= ((uint8)(~PWM_1_CTRL_CMPMODE2_MASK)); /*Clear existing mode */
 372:.\Generated_Source\PSoC4/PWM_1.c ****             PWM_1_CONTROL |= comparemodemasked;
 373:.\Generated_Source\PSoC4/PWM_1.c ****         #endif /* (PWM_1_UseControl) */
 374:.\Generated_Source\PSoC4/PWM_1.c ****     }
 375:.\Generated_Source\PSoC4/PWM_1.c ****     #endif /*PWM_1_CompareMode2SW */
 376:.\Generated_Source\PSoC4/PWM_1.c **** 
 377:.\Generated_Source\PSoC4/PWM_1.c **** #endif /* UseOneCompareMode */
 378:.\Generated_Source\PSoC4/PWM_1.c **** 
 379:.\Generated_Source\PSoC4/PWM_1.c **** 
 380:.\Generated_Source\PSoC4/PWM_1.c **** #if (!PWM_1_UsingFixedFunction)
 381:.\Generated_Source\PSoC4/PWM_1.c **** 
 382:.\Generated_Source\PSoC4/PWM_1.c **** 
 383:.\Generated_Source\PSoC4/PWM_1.c ****     /*******************************************************************************
 384:.\Generated_Source\PSoC4/PWM_1.c ****     * Function Name: PWM_1_WriteCounter
 385:.\Generated_Source\PSoC4/PWM_1.c ****     ********************************************************************************
 386:.\Generated_Source\PSoC4/PWM_1.c ****     *
 387:.\Generated_Source\PSoC4/PWM_1.c ****     * Summary:
 388:.\Generated_Source\PSoC4/PWM_1.c ****     *  Writes a new counter value directly to the counter register. This will be
 389:.\Generated_Source\PSoC4/PWM_1.c ****     *  implemented for that currently running period and only that period. This API
 390:.\Generated_Source\PSoC4/PWM_1.c ****     *  is valid only for UDB implementation and not available for fixed function
 391:.\Generated_Source\PSoC4/PWM_1.c ****     *  PWM implementation.
 392:.\Generated_Source\PSoC4/PWM_1.c ****     *
 393:.\Generated_Source\PSoC4/PWM_1.c ****     * Parameters:
 394:.\Generated_Source\PSoC4/PWM_1.c ****     *  counter:  The period new period counter value.
 395:.\Generated_Source\PSoC4/PWM_1.c ****     *
 396:.\Generated_Source\PSoC4/PWM_1.c ****     * Return:
 397:.\Generated_Source\PSoC4/PWM_1.c ****     *  None
 398:.\Generated_Source\PSoC4/PWM_1.c ****     *
 399:.\Generated_Source\PSoC4/PWM_1.c ****     * Side Effects:
ARM GAS  C:\Users\kbuchi\AppData\Local\Temp\ccCOF4X6.s 			page 9


 400:.\Generated_Source\PSoC4/PWM_1.c ****     *  The PWM Period will be reloaded when a counter value will be a zero
 401:.\Generated_Source\PSoC4/PWM_1.c ****     *
 402:.\Generated_Source\PSoC4/PWM_1.c ****     *******************************************************************************/
 403:.\Generated_Source\PSoC4/PWM_1.c ****     void PWM_1_WriteCounter(uint8 counter) \
 404:.\Generated_Source\PSoC4/PWM_1.c ****                                        
 405:.\Generated_Source\PSoC4/PWM_1.c ****     {
  58              		.loc 1 405 0
  59              		.cfi_startproc
  60              	.LVL0:
 406:.\Generated_Source\PSoC4/PWM_1.c ****         CY_SET_REG8(PWM_1_COUNTER_LSB_PTR, counter);
  61              		.loc 1 406 0
  62 0000 014B     		ldr	r3, .L4
  63 0002 1870     		strb	r0, [r3]
 407:.\Generated_Source\PSoC4/PWM_1.c ****     }
  64              		.loc 1 407 0
  65              		@ sp needed
  66 0004 7047     		bx	lr
  67              	.L5:
  68 0006 C046     		.align	2
  69              	.L4:
  70 0008 01000F40 		.word	1074724865
  71              		.cfi_endproc
  72              	.LFE4:
  73              		.size	PWM_1_WriteCounter, .-PWM_1_WriteCounter
  74              		.section	.text.PWM_1_ReadCounter,"ax",%progbits
  75              		.align	2
  76              		.global	PWM_1_ReadCounter
  77              		.code	16
  78              		.thumb_func
  79              		.type	PWM_1_ReadCounter, %function
  80              	PWM_1_ReadCounter:
  81              	.LFB5:
 408:.\Generated_Source\PSoC4/PWM_1.c **** 
 409:.\Generated_Source\PSoC4/PWM_1.c **** 
 410:.\Generated_Source\PSoC4/PWM_1.c ****     /*******************************************************************************
 411:.\Generated_Source\PSoC4/PWM_1.c ****     * Function Name: PWM_1_ReadCounter
 412:.\Generated_Source\PSoC4/PWM_1.c ****     ********************************************************************************
 413:.\Generated_Source\PSoC4/PWM_1.c ****     *
 414:.\Generated_Source\PSoC4/PWM_1.c ****     * Summary:
 415:.\Generated_Source\PSoC4/PWM_1.c ****     *  This function returns the current value of the counter.  It doesn't matter
 416:.\Generated_Source\PSoC4/PWM_1.c ****     *  if the counter is enabled or running.
 417:.\Generated_Source\PSoC4/PWM_1.c ****     *
 418:.\Generated_Source\PSoC4/PWM_1.c ****     * Parameters:
 419:.\Generated_Source\PSoC4/PWM_1.c ****     *  None
 420:.\Generated_Source\PSoC4/PWM_1.c ****     *
 421:.\Generated_Source\PSoC4/PWM_1.c ****     * Return:
 422:.\Generated_Source\PSoC4/PWM_1.c ****     *  The current value of the counter.
 423:.\Generated_Source\PSoC4/PWM_1.c ****     *
 424:.\Generated_Source\PSoC4/PWM_1.c ****     *******************************************************************************/
 425:.\Generated_Source\PSoC4/PWM_1.c ****     uint8 PWM_1_ReadCounter(void) 
 426:.\Generated_Source\PSoC4/PWM_1.c ****     {
  82              		.loc 1 426 0
  83              		.cfi_startproc
 427:.\Generated_Source\PSoC4/PWM_1.c ****         /* Force capture by reading Accumulator */
 428:.\Generated_Source\PSoC4/PWM_1.c ****         /* Must first do a software capture to be able to read the counter */
 429:.\Generated_Source\PSoC4/PWM_1.c ****         /* It is up to the user code to make sure there isn't already captured data in the FIFO */
 430:.\Generated_Source\PSoC4/PWM_1.c ****           (void)CY_GET_REG8(PWM_1_COUNTERCAP_LSB_PTR_8BIT);
ARM GAS  C:\Users\kbuchi\AppData\Local\Temp\ccCOF4X6.s 			page 10


  84              		.loc 1 430 0
  85 0000 024B     		ldr	r3, .L7
  86 0002 1B78     		ldrb	r3, [r3]
 431:.\Generated_Source\PSoC4/PWM_1.c **** 
 432:.\Generated_Source\PSoC4/PWM_1.c ****         /* Read the data from the FIFO */
 433:.\Generated_Source\PSoC4/PWM_1.c ****         return (CY_GET_REG8(PWM_1_CAPTURE_LSB_PTR));
  87              		.loc 1 433 0
  88 0004 024B     		ldr	r3, .L7+4
  89 0006 1878     		ldrb	r0, [r3]
  90 0008 C0B2     		uxtb	r0, r0
 434:.\Generated_Source\PSoC4/PWM_1.c ****     }
  91              		.loc 1 434 0
  92              		@ sp needed
  93 000a 7047     		bx	lr
  94              	.L8:
  95              		.align	2
  96              	.L7:
  97 000c 11000F40 		.word	1074724881
  98 0010 51000F40 		.word	1074724945
  99              		.cfi_endproc
 100              	.LFE5:
 101              		.size	PWM_1_ReadCounter, .-PWM_1_ReadCounter
 102              		.section	.text.PWM_1_WritePeriod,"ax",%progbits
 103              		.align	2
 104              		.global	PWM_1_WritePeriod
 105              		.code	16
 106              		.thumb_func
 107              		.type	PWM_1_WritePeriod, %function
 108              	PWM_1_WritePeriod:
 109              	.LFB7:
 435:.\Generated_Source\PSoC4/PWM_1.c **** 
 436:.\Generated_Source\PSoC4/PWM_1.c ****     #if (PWM_1_UseStatus)
 437:.\Generated_Source\PSoC4/PWM_1.c **** 
 438:.\Generated_Source\PSoC4/PWM_1.c **** 
 439:.\Generated_Source\PSoC4/PWM_1.c ****         /*******************************************************************************
 440:.\Generated_Source\PSoC4/PWM_1.c ****         * Function Name: PWM_1_ClearFIFO
 441:.\Generated_Source\PSoC4/PWM_1.c ****         ********************************************************************************
 442:.\Generated_Source\PSoC4/PWM_1.c ****         *
 443:.\Generated_Source\PSoC4/PWM_1.c ****         * Summary:
 444:.\Generated_Source\PSoC4/PWM_1.c ****         *  This function clears all capture data from the capture FIFO
 445:.\Generated_Source\PSoC4/PWM_1.c ****         *
 446:.\Generated_Source\PSoC4/PWM_1.c ****         * Parameters:
 447:.\Generated_Source\PSoC4/PWM_1.c ****         *  None
 448:.\Generated_Source\PSoC4/PWM_1.c ****         *
 449:.\Generated_Source\PSoC4/PWM_1.c ****         * Return:
 450:.\Generated_Source\PSoC4/PWM_1.c ****         *  None
 451:.\Generated_Source\PSoC4/PWM_1.c ****         *
 452:.\Generated_Source\PSoC4/PWM_1.c ****         *******************************************************************************/
 453:.\Generated_Source\PSoC4/PWM_1.c ****         void PWM_1_ClearFIFO(void) 
 454:.\Generated_Source\PSoC4/PWM_1.c ****         {
 455:.\Generated_Source\PSoC4/PWM_1.c ****             while(0u != (PWM_1_ReadStatusRegister() & PWM_1_STATUS_FIFONEMPTY))
 456:.\Generated_Source\PSoC4/PWM_1.c ****             {
 457:.\Generated_Source\PSoC4/PWM_1.c ****                 (void)PWM_1_ReadCapture();
 458:.\Generated_Source\PSoC4/PWM_1.c ****             }
 459:.\Generated_Source\PSoC4/PWM_1.c ****         }
 460:.\Generated_Source\PSoC4/PWM_1.c **** 
 461:.\Generated_Source\PSoC4/PWM_1.c ****     #endif /* PWM_1_UseStatus */
ARM GAS  C:\Users\kbuchi\AppData\Local\Temp\ccCOF4X6.s 			page 11


 462:.\Generated_Source\PSoC4/PWM_1.c **** 
 463:.\Generated_Source\PSoC4/PWM_1.c **** #endif /* !PWM_1_UsingFixedFunction */
 464:.\Generated_Source\PSoC4/PWM_1.c **** 
 465:.\Generated_Source\PSoC4/PWM_1.c **** 
 466:.\Generated_Source\PSoC4/PWM_1.c **** /*******************************************************************************
 467:.\Generated_Source\PSoC4/PWM_1.c **** * Function Name: PWM_1_WritePeriod
 468:.\Generated_Source\PSoC4/PWM_1.c **** ********************************************************************************
 469:.\Generated_Source\PSoC4/PWM_1.c **** *
 470:.\Generated_Source\PSoC4/PWM_1.c **** * Summary:
 471:.\Generated_Source\PSoC4/PWM_1.c **** *  This function is used to change the period of the counter.  The new period
 472:.\Generated_Source\PSoC4/PWM_1.c **** *  will be loaded the next time terminal count is detected.
 473:.\Generated_Source\PSoC4/PWM_1.c **** *
 474:.\Generated_Source\PSoC4/PWM_1.c **** * Parameters:
 475:.\Generated_Source\PSoC4/PWM_1.c **** *  period:  Period value. May be between 1 and (2^Resolution)-1.  A value of 0
 476:.\Generated_Source\PSoC4/PWM_1.c **** *           will result in the counter remaining at zero.
 477:.\Generated_Source\PSoC4/PWM_1.c **** *
 478:.\Generated_Source\PSoC4/PWM_1.c **** * Return:
 479:.\Generated_Source\PSoC4/PWM_1.c **** *  None
 480:.\Generated_Source\PSoC4/PWM_1.c **** *
 481:.\Generated_Source\PSoC4/PWM_1.c **** *******************************************************************************/
 482:.\Generated_Source\PSoC4/PWM_1.c **** void PWM_1_WritePeriod(uint8 period) 
 483:.\Generated_Source\PSoC4/PWM_1.c **** {
 110              		.loc 1 483 0
 111              		.cfi_startproc
 112              	.LVL1:
 484:.\Generated_Source\PSoC4/PWM_1.c ****     #if(PWM_1_UsingFixedFunction)
 485:.\Generated_Source\PSoC4/PWM_1.c ****         CY_SET_REG16(PWM_1_PERIOD_LSB_PTR, (uint16)period);
 486:.\Generated_Source\PSoC4/PWM_1.c ****     #else
 487:.\Generated_Source\PSoC4/PWM_1.c ****         CY_SET_REG8(PWM_1_PERIOD_LSB_PTR, period);
 113              		.loc 1 487 0
 114 0000 014B     		ldr	r3, .L10
 115 0002 1870     		strb	r0, [r3]
 488:.\Generated_Source\PSoC4/PWM_1.c ****     #endif /* (PWM_1_UsingFixedFunction) */
 489:.\Generated_Source\PSoC4/PWM_1.c **** }
 116              		.loc 1 489 0
 117              		@ sp needed
 118 0004 7047     		bx	lr
 119              	.L11:
 120 0006 C046     		.align	2
 121              	.L10:
 122 0008 41000F40 		.word	1074724929
 123              		.cfi_endproc
 124              	.LFE7:
 125              		.size	PWM_1_WritePeriod, .-PWM_1_WritePeriod
 126              		.section	.text.PWM_1_WriteCompare,"ax",%progbits
 127              		.align	2
 128              		.global	PWM_1_WriteCompare
 129              		.code	16
 130              		.thumb_func
 131              		.type	PWM_1_WriteCompare, %function
 132              	PWM_1_WriteCompare:
 133              	.LFB8:
 490:.\Generated_Source\PSoC4/PWM_1.c **** 
 491:.\Generated_Source\PSoC4/PWM_1.c **** #if (PWM_1_UseOneCompareMode)
 492:.\Generated_Source\PSoC4/PWM_1.c **** 
 493:.\Generated_Source\PSoC4/PWM_1.c **** 
 494:.\Generated_Source\PSoC4/PWM_1.c ****     /*******************************************************************************
ARM GAS  C:\Users\kbuchi\AppData\Local\Temp\ccCOF4X6.s 			page 12


 495:.\Generated_Source\PSoC4/PWM_1.c ****     * Function Name: PWM_1_WriteCompare
 496:.\Generated_Source\PSoC4/PWM_1.c ****     ********************************************************************************
 497:.\Generated_Source\PSoC4/PWM_1.c ****     *
 498:.\Generated_Source\PSoC4/PWM_1.c ****     * Summary:
 499:.\Generated_Source\PSoC4/PWM_1.c ****     *  This funtion is used to change the compare1 value when the PWM is in Dither
 500:.\Generated_Source\PSoC4/PWM_1.c ****     *  mode. The compare output will reflect the new value on the next UDB clock.
 501:.\Generated_Source\PSoC4/PWM_1.c ****     *  The compare output will be driven high when the present counter value is
 502:.\Generated_Source\PSoC4/PWM_1.c ****     *  compared to the compare value based on the compare mode defined in
 503:.\Generated_Source\PSoC4/PWM_1.c ****     *  Dither Mode.
 504:.\Generated_Source\PSoC4/PWM_1.c ****     *
 505:.\Generated_Source\PSoC4/PWM_1.c ****     * Parameters:
 506:.\Generated_Source\PSoC4/PWM_1.c ****     *  compare:  New compare value.
 507:.\Generated_Source\PSoC4/PWM_1.c ****     *
 508:.\Generated_Source\PSoC4/PWM_1.c ****     * Return:
 509:.\Generated_Source\PSoC4/PWM_1.c ****     *  None
 510:.\Generated_Source\PSoC4/PWM_1.c ****     *
 511:.\Generated_Source\PSoC4/PWM_1.c ****     * Side Effects:
 512:.\Generated_Source\PSoC4/PWM_1.c ****     *  This function is only available if the PWM mode parameter is set to
 513:.\Generated_Source\PSoC4/PWM_1.c ****     *  Dither Mode, Center Aligned Mode or One Output Mode
 514:.\Generated_Source\PSoC4/PWM_1.c ****     *
 515:.\Generated_Source\PSoC4/PWM_1.c ****     *******************************************************************************/
 516:.\Generated_Source\PSoC4/PWM_1.c ****     void PWM_1_WriteCompare(uint8 compare) \
 517:.\Generated_Source\PSoC4/PWM_1.c ****                                        
 518:.\Generated_Source\PSoC4/PWM_1.c ****     {
 134              		.loc 1 518 0
 135              		.cfi_startproc
 136              	.LVL2:
 519:.\Generated_Source\PSoC4/PWM_1.c ****         #if(PWM_1_UsingFixedFunction)
 520:.\Generated_Source\PSoC4/PWM_1.c ****             CY_SET_REG16(PWM_1_COMPARE1_LSB_PTR, (uint16)compare);
 521:.\Generated_Source\PSoC4/PWM_1.c ****         #else
 522:.\Generated_Source\PSoC4/PWM_1.c ****             CY_SET_REG8(PWM_1_COMPARE1_LSB_PTR, compare);
 137              		.loc 1 522 0
 138 0000 014B     		ldr	r3, .L13
 139 0002 1870     		strb	r0, [r3]
 523:.\Generated_Source\PSoC4/PWM_1.c ****         #endif /* (PWM_1_UsingFixedFunction) */
 524:.\Generated_Source\PSoC4/PWM_1.c **** 
 525:.\Generated_Source\PSoC4/PWM_1.c ****         #if (PWM_1_PWMMode == PWM_1__B_PWM__DITHER)
 526:.\Generated_Source\PSoC4/PWM_1.c ****             #if(PWM_1_UsingFixedFunction)
 527:.\Generated_Source\PSoC4/PWM_1.c ****                 CY_SET_REG16(PWM_1_COMPARE2_LSB_PTR, (uint16)(compare + 1u));
 528:.\Generated_Source\PSoC4/PWM_1.c ****             #else
 529:.\Generated_Source\PSoC4/PWM_1.c ****                 CY_SET_REG8(PWM_1_COMPARE2_LSB_PTR, (compare + 1u));
 530:.\Generated_Source\PSoC4/PWM_1.c ****             #endif /* (PWM_1_UsingFixedFunction) */
 531:.\Generated_Source\PSoC4/PWM_1.c ****         #endif /* (PWM_1_PWMMode == PWM_1__B_PWM__DITHER) */
 532:.\Generated_Source\PSoC4/PWM_1.c ****     }
 140              		.loc 1 532 0
 141              		@ sp needed
 142 0004 7047     		bx	lr
 143              	.L14:
 144 0006 C046     		.align	2
 145              	.L13:
 146 0008 21000F40 		.word	1074724897
 147              		.cfi_endproc
 148              	.LFE8:
 149              		.size	PWM_1_WriteCompare, .-PWM_1_WriteCompare
 150              		.section	.text.PWM_1_SetInterruptMode,"ax",%progbits
 151              		.align	2
 152              		.global	PWM_1_SetInterruptMode
ARM GAS  C:\Users\kbuchi\AppData\Local\Temp\ccCOF4X6.s 			page 13


 153              		.code	16
 154              		.thumb_func
 155              		.type	PWM_1_SetInterruptMode, %function
 156              	PWM_1_SetInterruptMode:
 157              	.LFB9:
 533:.\Generated_Source\PSoC4/PWM_1.c **** 
 534:.\Generated_Source\PSoC4/PWM_1.c **** 
 535:.\Generated_Source\PSoC4/PWM_1.c **** #else
 536:.\Generated_Source\PSoC4/PWM_1.c **** 
 537:.\Generated_Source\PSoC4/PWM_1.c **** 
 538:.\Generated_Source\PSoC4/PWM_1.c ****     /*******************************************************************************
 539:.\Generated_Source\PSoC4/PWM_1.c ****     * Function Name: PWM_1_WriteCompare1
 540:.\Generated_Source\PSoC4/PWM_1.c ****     ********************************************************************************
 541:.\Generated_Source\PSoC4/PWM_1.c ****     *
 542:.\Generated_Source\PSoC4/PWM_1.c ****     * Summary:
 543:.\Generated_Source\PSoC4/PWM_1.c ****     *  This funtion is used to change the compare1 value.  The compare output will
 544:.\Generated_Source\PSoC4/PWM_1.c ****     *  reflect the new value on the next UDB clock.  The compare output will be
 545:.\Generated_Source\PSoC4/PWM_1.c ****     *  driven high when the present counter value is less than or less than or
 546:.\Generated_Source\PSoC4/PWM_1.c ****     *  equal to the compare register, depending on the mode.
 547:.\Generated_Source\PSoC4/PWM_1.c ****     *
 548:.\Generated_Source\PSoC4/PWM_1.c ****     * Parameters:
 549:.\Generated_Source\PSoC4/PWM_1.c ****     *  compare:  New compare value.
 550:.\Generated_Source\PSoC4/PWM_1.c ****     *
 551:.\Generated_Source\PSoC4/PWM_1.c ****     * Return:
 552:.\Generated_Source\PSoC4/PWM_1.c ****     *  None
 553:.\Generated_Source\PSoC4/PWM_1.c ****     *
 554:.\Generated_Source\PSoC4/PWM_1.c ****     *******************************************************************************/
 555:.\Generated_Source\PSoC4/PWM_1.c ****     void PWM_1_WriteCompare1(uint8 compare) \
 556:.\Generated_Source\PSoC4/PWM_1.c ****                                         
 557:.\Generated_Source\PSoC4/PWM_1.c ****     {
 558:.\Generated_Source\PSoC4/PWM_1.c ****         #if(PWM_1_UsingFixedFunction)
 559:.\Generated_Source\PSoC4/PWM_1.c ****             CY_SET_REG16(PWM_1_COMPARE1_LSB_PTR, (uint16)compare);
 560:.\Generated_Source\PSoC4/PWM_1.c ****         #else
 561:.\Generated_Source\PSoC4/PWM_1.c ****             CY_SET_REG8(PWM_1_COMPARE1_LSB_PTR, compare);
 562:.\Generated_Source\PSoC4/PWM_1.c ****         #endif /* (PWM_1_UsingFixedFunction) */
 563:.\Generated_Source\PSoC4/PWM_1.c ****     }
 564:.\Generated_Source\PSoC4/PWM_1.c **** 
 565:.\Generated_Source\PSoC4/PWM_1.c **** 
 566:.\Generated_Source\PSoC4/PWM_1.c ****     /*******************************************************************************
 567:.\Generated_Source\PSoC4/PWM_1.c ****     * Function Name: PWM_1_WriteCompare2
 568:.\Generated_Source\PSoC4/PWM_1.c ****     ********************************************************************************
 569:.\Generated_Source\PSoC4/PWM_1.c ****     *
 570:.\Generated_Source\PSoC4/PWM_1.c ****     * Summary:
 571:.\Generated_Source\PSoC4/PWM_1.c ****     *  This funtion is used to change the compare value, for compare1 output.
 572:.\Generated_Source\PSoC4/PWM_1.c ****     *  The compare output will reflect the new value on the next UDB clock.
 573:.\Generated_Source\PSoC4/PWM_1.c ****     *  The compare output will be driven high when the present counter value is
 574:.\Generated_Source\PSoC4/PWM_1.c ****     *  less than or less than or equal to the compare register, depending on the
 575:.\Generated_Source\PSoC4/PWM_1.c ****     *  mode.
 576:.\Generated_Source\PSoC4/PWM_1.c ****     *
 577:.\Generated_Source\PSoC4/PWM_1.c ****     * Parameters:
 578:.\Generated_Source\PSoC4/PWM_1.c ****     *  compare:  New compare value.
 579:.\Generated_Source\PSoC4/PWM_1.c ****     *
 580:.\Generated_Source\PSoC4/PWM_1.c ****     * Return:
 581:.\Generated_Source\PSoC4/PWM_1.c ****     *  None
 582:.\Generated_Source\PSoC4/PWM_1.c ****     *
 583:.\Generated_Source\PSoC4/PWM_1.c ****     *******************************************************************************/
 584:.\Generated_Source\PSoC4/PWM_1.c ****     void PWM_1_WriteCompare2(uint8 compare) \
ARM GAS  C:\Users\kbuchi\AppData\Local\Temp\ccCOF4X6.s 			page 14


 585:.\Generated_Source\PSoC4/PWM_1.c ****                                         
 586:.\Generated_Source\PSoC4/PWM_1.c ****     {
 587:.\Generated_Source\PSoC4/PWM_1.c ****         #if(PWM_1_UsingFixedFunction)
 588:.\Generated_Source\PSoC4/PWM_1.c ****             CY_SET_REG16(PWM_1_COMPARE2_LSB_PTR, compare);
 589:.\Generated_Source\PSoC4/PWM_1.c ****         #else
 590:.\Generated_Source\PSoC4/PWM_1.c ****             CY_SET_REG8(PWM_1_COMPARE2_LSB_PTR, compare);
 591:.\Generated_Source\PSoC4/PWM_1.c ****         #endif /* (PWM_1_UsingFixedFunction) */
 592:.\Generated_Source\PSoC4/PWM_1.c ****     }
 593:.\Generated_Source\PSoC4/PWM_1.c **** #endif /* UseOneCompareMode */
 594:.\Generated_Source\PSoC4/PWM_1.c **** 
 595:.\Generated_Source\PSoC4/PWM_1.c **** #if (PWM_1_DeadBandUsed)
 596:.\Generated_Source\PSoC4/PWM_1.c **** 
 597:.\Generated_Source\PSoC4/PWM_1.c **** 
 598:.\Generated_Source\PSoC4/PWM_1.c ****     /*******************************************************************************
 599:.\Generated_Source\PSoC4/PWM_1.c ****     * Function Name: PWM_1_WriteDeadTime
 600:.\Generated_Source\PSoC4/PWM_1.c ****     ********************************************************************************
 601:.\Generated_Source\PSoC4/PWM_1.c ****     *
 602:.\Generated_Source\PSoC4/PWM_1.c ****     * Summary:
 603:.\Generated_Source\PSoC4/PWM_1.c ****     *  This function writes the dead-band counts to the corresponding register
 604:.\Generated_Source\PSoC4/PWM_1.c ****     *
 605:.\Generated_Source\PSoC4/PWM_1.c ****     * Parameters:
 606:.\Generated_Source\PSoC4/PWM_1.c ****     *  deadtime:  Number of counts for dead time
 607:.\Generated_Source\PSoC4/PWM_1.c ****     *
 608:.\Generated_Source\PSoC4/PWM_1.c ****     * Return:
 609:.\Generated_Source\PSoC4/PWM_1.c ****     *  None
 610:.\Generated_Source\PSoC4/PWM_1.c ****     *
 611:.\Generated_Source\PSoC4/PWM_1.c ****     *******************************************************************************/
 612:.\Generated_Source\PSoC4/PWM_1.c ****     void PWM_1_WriteDeadTime(uint8 deadtime) 
 613:.\Generated_Source\PSoC4/PWM_1.c ****     {
 614:.\Generated_Source\PSoC4/PWM_1.c ****         /* If using the Dead Band 1-255 mode then just write the register */
 615:.\Generated_Source\PSoC4/PWM_1.c ****         #if(!PWM_1_DeadBand2_4)
 616:.\Generated_Source\PSoC4/PWM_1.c ****             CY_SET_REG8(PWM_1_DEADBAND_COUNT_PTR, deadtime);
 617:.\Generated_Source\PSoC4/PWM_1.c ****         #else
 618:.\Generated_Source\PSoC4/PWM_1.c ****             /* Otherwise the data has to be masked and offset */
 619:.\Generated_Source\PSoC4/PWM_1.c ****             /* Clear existing data */
 620:.\Generated_Source\PSoC4/PWM_1.c ****             PWM_1_DEADBAND_COUNT &= ((uint8)(~PWM_1_DEADBAND_COUNT_MASK));
 621:.\Generated_Source\PSoC4/PWM_1.c **** 
 622:.\Generated_Source\PSoC4/PWM_1.c ****             /* Set new dead time */
 623:.\Generated_Source\PSoC4/PWM_1.c ****             #if(PWM_1_DEADBAND_COUNT_SHIFT)
 624:.\Generated_Source\PSoC4/PWM_1.c ****                 PWM_1_DEADBAND_COUNT |= ((uint8)((uint8)deadtime << PWM_1_DEADBAND_COUNT_SHIFT)) &
 625:.\Generated_Source\PSoC4/PWM_1.c ****                                                     PWM_1_DEADBAND_COUNT_MASK;
 626:.\Generated_Source\PSoC4/PWM_1.c ****             #else
 627:.\Generated_Source\PSoC4/PWM_1.c ****                 PWM_1_DEADBAND_COUNT |= deadtime & PWM_1_DEADBAND_COUNT_MASK;
 628:.\Generated_Source\PSoC4/PWM_1.c ****             #endif /* (PWM_1_DEADBAND_COUNT_SHIFT) */
 629:.\Generated_Source\PSoC4/PWM_1.c **** 
 630:.\Generated_Source\PSoC4/PWM_1.c ****         #endif /* (!PWM_1_DeadBand2_4) */
 631:.\Generated_Source\PSoC4/PWM_1.c ****     }
 632:.\Generated_Source\PSoC4/PWM_1.c **** 
 633:.\Generated_Source\PSoC4/PWM_1.c **** 
 634:.\Generated_Source\PSoC4/PWM_1.c ****     /*******************************************************************************
 635:.\Generated_Source\PSoC4/PWM_1.c ****     * Function Name: PWM_1_ReadDeadTime
 636:.\Generated_Source\PSoC4/PWM_1.c ****     ********************************************************************************
 637:.\Generated_Source\PSoC4/PWM_1.c ****     *
 638:.\Generated_Source\PSoC4/PWM_1.c ****     * Summary:
 639:.\Generated_Source\PSoC4/PWM_1.c ****     *  This function reads the dead-band counts from the corresponding register
 640:.\Generated_Source\PSoC4/PWM_1.c ****     *
 641:.\Generated_Source\PSoC4/PWM_1.c ****     * Parameters:
ARM GAS  C:\Users\kbuchi\AppData\Local\Temp\ccCOF4X6.s 			page 15


 642:.\Generated_Source\PSoC4/PWM_1.c ****     *  None
 643:.\Generated_Source\PSoC4/PWM_1.c ****     *
 644:.\Generated_Source\PSoC4/PWM_1.c ****     * Return:
 645:.\Generated_Source\PSoC4/PWM_1.c ****     *  Dead Band Counts
 646:.\Generated_Source\PSoC4/PWM_1.c ****     *
 647:.\Generated_Source\PSoC4/PWM_1.c ****     *******************************************************************************/
 648:.\Generated_Source\PSoC4/PWM_1.c ****     uint8 PWM_1_ReadDeadTime(void) 
 649:.\Generated_Source\PSoC4/PWM_1.c ****     {
 650:.\Generated_Source\PSoC4/PWM_1.c ****         /* If using the Dead Band 1-255 mode then just read the register */
 651:.\Generated_Source\PSoC4/PWM_1.c ****         #if(!PWM_1_DeadBand2_4)
 652:.\Generated_Source\PSoC4/PWM_1.c ****             return (CY_GET_REG8(PWM_1_DEADBAND_COUNT_PTR));
 653:.\Generated_Source\PSoC4/PWM_1.c ****         #else
 654:.\Generated_Source\PSoC4/PWM_1.c **** 
 655:.\Generated_Source\PSoC4/PWM_1.c ****             /* Otherwise the data has to be masked and offset */
 656:.\Generated_Source\PSoC4/PWM_1.c ****             #if(PWM_1_DEADBAND_COUNT_SHIFT)
 657:.\Generated_Source\PSoC4/PWM_1.c ****                 return ((uint8)(((uint8)(PWM_1_DEADBAND_COUNT & PWM_1_DEADBAND_COUNT_MASK)) >>
 658:.\Generated_Source\PSoC4/PWM_1.c ****                                                                            PWM_1_DEADBAND_COUNT_SHI
 659:.\Generated_Source\PSoC4/PWM_1.c ****             #else
 660:.\Generated_Source\PSoC4/PWM_1.c ****                 return (PWM_1_DEADBAND_COUNT & PWM_1_DEADBAND_COUNT_MASK);
 661:.\Generated_Source\PSoC4/PWM_1.c ****             #endif /* (PWM_1_DEADBAND_COUNT_SHIFT) */
 662:.\Generated_Source\PSoC4/PWM_1.c ****         #endif /* (!PWM_1_DeadBand2_4) */
 663:.\Generated_Source\PSoC4/PWM_1.c ****     }
 664:.\Generated_Source\PSoC4/PWM_1.c **** #endif /* DeadBandUsed */
 665:.\Generated_Source\PSoC4/PWM_1.c **** 
 666:.\Generated_Source\PSoC4/PWM_1.c **** #if (PWM_1_UseStatus || PWM_1_UsingFixedFunction)
 667:.\Generated_Source\PSoC4/PWM_1.c **** 
 668:.\Generated_Source\PSoC4/PWM_1.c **** 
 669:.\Generated_Source\PSoC4/PWM_1.c ****     /*******************************************************************************
 670:.\Generated_Source\PSoC4/PWM_1.c ****     * Function Name: PWM_1_SetInterruptMode
 671:.\Generated_Source\PSoC4/PWM_1.c ****     ********************************************************************************
 672:.\Generated_Source\PSoC4/PWM_1.c ****     *
 673:.\Generated_Source\PSoC4/PWM_1.c ****     * Summary:
 674:.\Generated_Source\PSoC4/PWM_1.c ****     *  This function configures the interrupts mask control of theinterrupt
 675:.\Generated_Source\PSoC4/PWM_1.c ****     *  source status register.
 676:.\Generated_Source\PSoC4/PWM_1.c ****     *
 677:.\Generated_Source\PSoC4/PWM_1.c ****     * Parameters:
 678:.\Generated_Source\PSoC4/PWM_1.c ****     *  uint8 interruptMode: Bit field containing the interrupt sources enabled
 679:.\Generated_Source\PSoC4/PWM_1.c ****     *
 680:.\Generated_Source\PSoC4/PWM_1.c ****     * Return:
 681:.\Generated_Source\PSoC4/PWM_1.c ****     *  None
 682:.\Generated_Source\PSoC4/PWM_1.c ****     *
 683:.\Generated_Source\PSoC4/PWM_1.c ****     *******************************************************************************/
 684:.\Generated_Source\PSoC4/PWM_1.c ****     void PWM_1_SetInterruptMode(uint8 interruptMode) 
 685:.\Generated_Source\PSoC4/PWM_1.c ****     {
 158              		.loc 1 685 0
 159              		.cfi_startproc
 160              	.LVL3:
 686:.\Generated_Source\PSoC4/PWM_1.c ****         CY_SET_REG8(PWM_1_STATUS_MASK_PTR, interruptMode);
 161              		.loc 1 686 0
 162 0000 014B     		ldr	r3, .L16
 163 0002 1870     		strb	r0, [r3]
 687:.\Generated_Source\PSoC4/PWM_1.c ****     }
 164              		.loc 1 687 0
 165              		@ sp needed
 166 0004 7047     		bx	lr
 167              	.L17:
 168 0006 C046     		.align	2
ARM GAS  C:\Users\kbuchi\AppData\Local\Temp\ccCOF4X6.s 			page 16


 169              	.L16:
 170 0008 81000F40 		.word	1074724993
 171              		.cfi_endproc
 172              	.LFE9:
 173              		.size	PWM_1_SetInterruptMode, .-PWM_1_SetInterruptMode
 174              		.section	.text.PWM_1_ReadStatusRegister,"ax",%progbits
 175              		.align	2
 176              		.global	PWM_1_ReadStatusRegister
 177              		.code	16
 178              		.thumb_func
 179              		.type	PWM_1_ReadStatusRegister, %function
 180              	PWM_1_ReadStatusRegister:
 181              	.LFB10:
 688:.\Generated_Source\PSoC4/PWM_1.c **** 
 689:.\Generated_Source\PSoC4/PWM_1.c **** 
 690:.\Generated_Source\PSoC4/PWM_1.c ****     /*******************************************************************************
 691:.\Generated_Source\PSoC4/PWM_1.c ****     * Function Name: PWM_1_ReadStatusRegister
 692:.\Generated_Source\PSoC4/PWM_1.c ****     ********************************************************************************
 693:.\Generated_Source\PSoC4/PWM_1.c ****     *
 694:.\Generated_Source\PSoC4/PWM_1.c ****     * Summary:
 695:.\Generated_Source\PSoC4/PWM_1.c ****     *  This function returns the current state of the status register.
 696:.\Generated_Source\PSoC4/PWM_1.c ****     *
 697:.\Generated_Source\PSoC4/PWM_1.c ****     * Parameters:
 698:.\Generated_Source\PSoC4/PWM_1.c ****     *  None
 699:.\Generated_Source\PSoC4/PWM_1.c ****     *
 700:.\Generated_Source\PSoC4/PWM_1.c ****     * Return:
 701:.\Generated_Source\PSoC4/PWM_1.c ****     *  uint8 : Current status register value. The status register bits are:
 702:.\Generated_Source\PSoC4/PWM_1.c ****     *  [7:6] : Unused(0)
 703:.\Generated_Source\PSoC4/PWM_1.c ****     *  [5]   : Kill event output
 704:.\Generated_Source\PSoC4/PWM_1.c ****     *  [4]   : FIFO not empty
 705:.\Generated_Source\PSoC4/PWM_1.c ****     *  [3]   : FIFO full
 706:.\Generated_Source\PSoC4/PWM_1.c ****     *  [2]   : Terminal count
 707:.\Generated_Source\PSoC4/PWM_1.c ****     *  [1]   : Compare output 2
 708:.\Generated_Source\PSoC4/PWM_1.c ****     *  [0]   : Compare output 1
 709:.\Generated_Source\PSoC4/PWM_1.c ****     *
 710:.\Generated_Source\PSoC4/PWM_1.c ****     *******************************************************************************/
 711:.\Generated_Source\PSoC4/PWM_1.c ****     uint8 PWM_1_ReadStatusRegister(void) 
 712:.\Generated_Source\PSoC4/PWM_1.c ****     {
 182              		.loc 1 712 0
 183              		.cfi_startproc
 713:.\Generated_Source\PSoC4/PWM_1.c ****         return (CY_GET_REG8(PWM_1_STATUS_PTR));
 184              		.loc 1 713 0
 185 0000 014B     		ldr	r3, .L19
 186 0002 1878     		ldrb	r0, [r3]
 187 0004 C0B2     		uxtb	r0, r0
 714:.\Generated_Source\PSoC4/PWM_1.c ****     }
 188              		.loc 1 714 0
 189              		@ sp needed
 190 0006 7047     		bx	lr
 191              	.L20:
 192              		.align	2
 193              	.L19:
 194 0008 61000F40 		.word	1074724961
 195              		.cfi_endproc
 196              	.LFE10:
 197              		.size	PWM_1_ReadStatusRegister, .-PWM_1_ReadStatusRegister
 198              		.section	.text.PWM_1_ReadCapture,"ax",%progbits
ARM GAS  C:\Users\kbuchi\AppData\Local\Temp\ccCOF4X6.s 			page 17


 199              		.align	2
 200              		.global	PWM_1_ReadCapture
 201              		.code	16
 202              		.thumb_func
 203              		.type	PWM_1_ReadCapture, %function
 204              	PWM_1_ReadCapture:
 205              	.LFB11:
 715:.\Generated_Source\PSoC4/PWM_1.c **** 
 716:.\Generated_Source\PSoC4/PWM_1.c **** #endif /* (PWM_1_UseStatus || PWM_1_UsingFixedFunction) */
 717:.\Generated_Source\PSoC4/PWM_1.c **** 
 718:.\Generated_Source\PSoC4/PWM_1.c **** 
 719:.\Generated_Source\PSoC4/PWM_1.c **** #if (PWM_1_UseControl)
 720:.\Generated_Source\PSoC4/PWM_1.c **** 
 721:.\Generated_Source\PSoC4/PWM_1.c **** 
 722:.\Generated_Source\PSoC4/PWM_1.c ****     /*******************************************************************************
 723:.\Generated_Source\PSoC4/PWM_1.c ****     * Function Name: PWM_1_ReadControlRegister
 724:.\Generated_Source\PSoC4/PWM_1.c ****     ********************************************************************************
 725:.\Generated_Source\PSoC4/PWM_1.c ****     *
 726:.\Generated_Source\PSoC4/PWM_1.c ****     * Summary:
 727:.\Generated_Source\PSoC4/PWM_1.c ****     *  Returns the current state of the control register. This API is available
 728:.\Generated_Source\PSoC4/PWM_1.c ****     *  only if the control register is not removed.
 729:.\Generated_Source\PSoC4/PWM_1.c ****     *
 730:.\Generated_Source\PSoC4/PWM_1.c ****     * Parameters:
 731:.\Generated_Source\PSoC4/PWM_1.c ****     *  None
 732:.\Generated_Source\PSoC4/PWM_1.c ****     *
 733:.\Generated_Source\PSoC4/PWM_1.c ****     * Return:
 734:.\Generated_Source\PSoC4/PWM_1.c ****     *  uint8 : Current control register value
 735:.\Generated_Source\PSoC4/PWM_1.c ****     *
 736:.\Generated_Source\PSoC4/PWM_1.c ****     *******************************************************************************/
 737:.\Generated_Source\PSoC4/PWM_1.c ****     uint8 PWM_1_ReadControlRegister(void) 
 738:.\Generated_Source\PSoC4/PWM_1.c ****     {
 739:.\Generated_Source\PSoC4/PWM_1.c ****         uint8 result;
 740:.\Generated_Source\PSoC4/PWM_1.c **** 
 741:.\Generated_Source\PSoC4/PWM_1.c ****         result = CY_GET_REG8(PWM_1_CONTROL_PTR);
 742:.\Generated_Source\PSoC4/PWM_1.c ****         return (result);
 743:.\Generated_Source\PSoC4/PWM_1.c ****     }
 744:.\Generated_Source\PSoC4/PWM_1.c **** 
 745:.\Generated_Source\PSoC4/PWM_1.c **** 
 746:.\Generated_Source\PSoC4/PWM_1.c ****     /*******************************************************************************
 747:.\Generated_Source\PSoC4/PWM_1.c ****     * Function Name: PWM_1_WriteControlRegister
 748:.\Generated_Source\PSoC4/PWM_1.c ****     ********************************************************************************
 749:.\Generated_Source\PSoC4/PWM_1.c ****     *
 750:.\Generated_Source\PSoC4/PWM_1.c ****     * Summary:
 751:.\Generated_Source\PSoC4/PWM_1.c ****     *  Sets the bit field of the control register. This API is available only if
 752:.\Generated_Source\PSoC4/PWM_1.c ****     *  the control register is not removed.
 753:.\Generated_Source\PSoC4/PWM_1.c ****     *
 754:.\Generated_Source\PSoC4/PWM_1.c ****     * Parameters:
 755:.\Generated_Source\PSoC4/PWM_1.c ****     *  uint8 control: Control register bit field, The status register bits are:
 756:.\Generated_Source\PSoC4/PWM_1.c ****     *  [7]   : PWM Enable
 757:.\Generated_Source\PSoC4/PWM_1.c ****     *  [6]   : Reset
 758:.\Generated_Source\PSoC4/PWM_1.c ****     *  [5:3] : Compare Mode2
 759:.\Generated_Source\PSoC4/PWM_1.c ****     *  [2:0] : Compare Mode2
 760:.\Generated_Source\PSoC4/PWM_1.c ****     *
 761:.\Generated_Source\PSoC4/PWM_1.c ****     * Return:
 762:.\Generated_Source\PSoC4/PWM_1.c ****     *  None
 763:.\Generated_Source\PSoC4/PWM_1.c ****     *
 764:.\Generated_Source\PSoC4/PWM_1.c ****     *******************************************************************************/
ARM GAS  C:\Users\kbuchi\AppData\Local\Temp\ccCOF4X6.s 			page 18


 765:.\Generated_Source\PSoC4/PWM_1.c ****     void PWM_1_WriteControlRegister(uint8 control) 
 766:.\Generated_Source\PSoC4/PWM_1.c ****     {
 767:.\Generated_Source\PSoC4/PWM_1.c ****         CY_SET_REG8(PWM_1_CONTROL_PTR, control);
 768:.\Generated_Source\PSoC4/PWM_1.c ****     }
 769:.\Generated_Source\PSoC4/PWM_1.c **** 
 770:.\Generated_Source\PSoC4/PWM_1.c **** #endif /* (PWM_1_UseControl) */
 771:.\Generated_Source\PSoC4/PWM_1.c **** 
 772:.\Generated_Source\PSoC4/PWM_1.c **** 
 773:.\Generated_Source\PSoC4/PWM_1.c **** #if (!PWM_1_UsingFixedFunction)
 774:.\Generated_Source\PSoC4/PWM_1.c **** 
 775:.\Generated_Source\PSoC4/PWM_1.c **** 
 776:.\Generated_Source\PSoC4/PWM_1.c ****     /*******************************************************************************
 777:.\Generated_Source\PSoC4/PWM_1.c ****     * Function Name: PWM_1_ReadCapture
 778:.\Generated_Source\PSoC4/PWM_1.c ****     ********************************************************************************
 779:.\Generated_Source\PSoC4/PWM_1.c ****     *
 780:.\Generated_Source\PSoC4/PWM_1.c ****     * Summary:
 781:.\Generated_Source\PSoC4/PWM_1.c ****     *  Reads the capture value from the capture FIFO.
 782:.\Generated_Source\PSoC4/PWM_1.c ****     *
 783:.\Generated_Source\PSoC4/PWM_1.c ****     * Parameters:
 784:.\Generated_Source\PSoC4/PWM_1.c ****     *  None
 785:.\Generated_Source\PSoC4/PWM_1.c ****     *
 786:.\Generated_Source\PSoC4/PWM_1.c ****     * Return:
 787:.\Generated_Source\PSoC4/PWM_1.c ****     *  uint8/uint16: The current capture value
 788:.\Generated_Source\PSoC4/PWM_1.c ****     *
 789:.\Generated_Source\PSoC4/PWM_1.c ****     *******************************************************************************/
 790:.\Generated_Source\PSoC4/PWM_1.c ****     uint8 PWM_1_ReadCapture(void) 
 791:.\Generated_Source\PSoC4/PWM_1.c ****     {
 206              		.loc 1 791 0
 207              		.cfi_startproc
 792:.\Generated_Source\PSoC4/PWM_1.c ****         return (CY_GET_REG8(PWM_1_CAPTURE_LSB_PTR));
 208              		.loc 1 792 0
 209 0000 014B     		ldr	r3, .L22
 210 0002 1878     		ldrb	r0, [r3]
 211 0004 C0B2     		uxtb	r0, r0
 793:.\Generated_Source\PSoC4/PWM_1.c ****     }
 212              		.loc 1 793 0
 213              		@ sp needed
 214 0006 7047     		bx	lr
 215              	.L23:
 216              		.align	2
 217              	.L22:
 218 0008 51000F40 		.word	1074724945
 219              		.cfi_endproc
 220              	.LFE11:
 221              		.size	PWM_1_ReadCapture, .-PWM_1_ReadCapture
 222              		.section	.text.PWM_1_ClearFIFO,"ax",%progbits
 223              		.align	2
 224              		.global	PWM_1_ClearFIFO
 225              		.code	16
 226              		.thumb_func
 227              		.type	PWM_1_ClearFIFO, %function
 228              	PWM_1_ClearFIFO:
 229              	.LFB6:
 454:.\Generated_Source\PSoC4/PWM_1.c ****         {
 230              		.loc 1 454 0
 231              		.cfi_startproc
 232 0000 10B5     		push	{r4, lr}
ARM GAS  C:\Users\kbuchi\AppData\Local\Temp\ccCOF4X6.s 			page 19


 233              		.cfi_def_cfa_offset 8
 234              		.cfi_offset 4, -8
 235              		.cfi_offset 14, -4
 455:.\Generated_Source\PSoC4/PWM_1.c ****             while(0u != (PWM_1_ReadStatusRegister() & PWM_1_STATUS_FIFONEMPTY))
 236              		.loc 1 455 0
 237 0002 1024     		mov	r4, #16
 238 0004 01E0     		b	.L25
 239              	.L26:
 457:.\Generated_Source\PSoC4/PWM_1.c ****                 (void)PWM_1_ReadCapture();
 240              		.loc 1 457 0
 241 0006 FFF7FEFF 		bl	PWM_1_ReadCapture
 242              	.LVL4:
 243              	.L25:
 455:.\Generated_Source\PSoC4/PWM_1.c ****             while(0u != (PWM_1_ReadStatusRegister() & PWM_1_STATUS_FIFONEMPTY))
 244              		.loc 1 455 0 discriminator 1
 245 000a FFF7FEFF 		bl	PWM_1_ReadStatusRegister
 246              	.LVL5:
 247 000e 0442     		tst	r4, r0
 248 0010 F9D1     		bne	.L26
 459:.\Generated_Source\PSoC4/PWM_1.c ****         }
 249              		.loc 1 459 0
 250              		@ sp needed
 251 0012 10BD     		pop	{r4, pc}
 252              		.cfi_endproc
 253              	.LFE6:
 254              		.size	PWM_1_ClearFIFO, .-PWM_1_ClearFIFO
 255              		.section	.text.PWM_1_Init,"ax",%progbits
 256              		.align	2
 257              		.global	PWM_1_Init
 258              		.code	16
 259              		.thumb_func
 260              		.type	PWM_1_Init, %function
 261              	PWM_1_Init:
 262              	.LFB1:
  85:.\Generated_Source\PSoC4/PWM_1.c **** {
 263              		.loc 1 85 0
 264              		.cfi_startproc
 265 0000 10B5     		push	{r4, lr}
 266              		.cfi_def_cfa_offset 8
 267              		.cfi_offset 4, -8
 268              		.cfi_offset 14, -4
 126:.\Generated_Source\PSoC4/PWM_1.c ****             PWM_1_AUX_CONTROLDP0 |= (PWM_1_AUX_CTRL_FIFO0_CLR);
 269              		.loc 1 126 0
 270 0002 0E4C     		ldr	r4, .L28
 271 0004 2278     		ldrb	r2, [r4]
 272 0006 0123     		mov	r3, #1
 273 0008 1343     		orr	r3, r2
 274 000a 2370     		strb	r3, [r4]
 133:.\Generated_Source\PSoC4/PWM_1.c ****         PWM_1_WriteCounter(PWM_1_INIT_PERIOD_VALUE);
 275              		.loc 1 133 0
 276 000c 6420     		mov	r0, #100
 277 000e FFF7FEFF 		bl	PWM_1_WriteCounter
 278              	.LVL6:
 136:.\Generated_Source\PSoC4/PWM_1.c ****     PWM_1_WritePeriod(PWM_1_INIT_PERIOD_VALUE);
 279              		.loc 1 136 0
 280 0012 6420     		mov	r0, #100
 281 0014 FFF7FEFF 		bl	PWM_1_WritePeriod
ARM GAS  C:\Users\kbuchi\AppData\Local\Temp\ccCOF4X6.s 			page 20


 282              	.LVL7:
 139:.\Generated_Source\PSoC4/PWM_1.c ****             PWM_1_WriteCompare(PWM_1_INIT_COMPARE_VALUE1);
 283              		.loc 1 139 0
 284 0018 5520     		mov	r0, #85
 285 001a FFF7FEFF 		bl	PWM_1_WriteCompare
 286              	.LVL8:
 154:.\Generated_Source\PSoC4/PWM_1.c ****         PWM_1_SetInterruptMode(PWM_1_INIT_INTERRUPTS_MODE);
 287              		.loc 1 154 0
 288 001e 0020     		mov	r0, #0
 289 0020 FFF7FEFF 		bl	PWM_1_SetInterruptMode
 290              	.LVL9:
 167:.\Generated_Source\PSoC4/PWM_1.c ****             PWM_1_interruptState = CyEnterCriticalSection();
 291              		.loc 1 167 0
 292 0024 FFF7FEFF 		bl	CyEnterCriticalSection
 293              	.LVL10:
 169:.\Generated_Source\PSoC4/PWM_1.c ****             PWM_1_STATUS_AUX_CTRL |= PWM_1_STATUS_ACTL_INT_EN_MASK;
 294              		.loc 1 169 0
 295 0028 2278     		ldrb	r2, [r4]
 296 002a 1023     		mov	r3, #16
 297 002c 1343     		orr	r3, r2
 298 002e 2370     		strb	r3, [r4]
 172:.\Generated_Source\PSoC4/PWM_1.c ****             CyExitCriticalSection(PWM_1_interruptState);
 299              		.loc 1 172 0
 300 0030 FFF7FEFF 		bl	CyExitCriticalSection
 301              	.LVL11:
 176:.\Generated_Source\PSoC4/PWM_1.c ****             PWM_1_ClearFIFO();
 302              		.loc 1 176 0
 303 0034 FFF7FEFF 		bl	PWM_1_ClearFIFO
 304              	.LVL12:
 179:.\Generated_Source\PSoC4/PWM_1.c **** }
 305              		.loc 1 179 0
 306              		@ sp needed
 307 0038 10BD     		pop	{r4, pc}
 308              	.L29:
 309 003a C046     		.align	2
 310              	.L28:
 311 003c 91000F40 		.word	1074725009
 312              		.cfi_endproc
 313              	.LFE1:
 314              		.size	PWM_1_Init, .-PWM_1_Init
 315              		.section	.text.PWM_1_Start,"ax",%progbits
 316              		.align	2
 317              		.global	PWM_1_Start
 318              		.code	16
 319              		.thumb_func
 320              		.type	PWM_1_Start, %function
 321              	PWM_1_Start:
 322              	.LFB0:
  56:.\Generated_Source\PSoC4/PWM_1.c **** {
 323              		.loc 1 56 0
 324              		.cfi_startproc
 325 0000 08B5     		push	{r3, lr}
 326              		.cfi_def_cfa_offset 8
 327              		.cfi_offset 3, -8
 328              		.cfi_offset 14, -4
  58:.\Generated_Source\PSoC4/PWM_1.c ****     if(PWM_1_initVar == 0u)
 329              		.loc 1 58 0
ARM GAS  C:\Users\kbuchi\AppData\Local\Temp\ccCOF4X6.s 			page 21


 330 0002 054B     		ldr	r3, .L32
 331 0004 1B78     		ldrb	r3, [r3]
 332 0006 002B     		cmp	r3, #0
 333 0008 04D1     		bne	.L30
  60:.\Generated_Source\PSoC4/PWM_1.c ****         PWM_1_Init();
 334              		.loc 1 60 0
 335 000a FFF7FEFF 		bl	PWM_1_Init
 336              	.LVL13:
  61:.\Generated_Source\PSoC4/PWM_1.c ****         PWM_1_initVar = 1u;
 337              		.loc 1 61 0
 338 000e 0122     		mov	r2, #1
 339 0010 014B     		ldr	r3, .L32
 340 0012 1A70     		strb	r2, [r3]
 341              	.L30:
  65:.\Generated_Source\PSoC4/PWM_1.c **** }
 342              		.loc 1 65 0
 343              		@ sp needed
 344 0014 08BD     		pop	{r3, pc}
 345              	.L33:
 346 0016 C046     		.align	2
 347              	.L32:
 348 0018 00000000 		.word	.LANCHOR0
 349              		.cfi_endproc
 350              	.LFE0:
 351              		.size	PWM_1_Start, .-PWM_1_Start
 352              		.section	.text.PWM_1_ReadCompare,"ax",%progbits
 353              		.align	2
 354              		.global	PWM_1_ReadCompare
 355              		.code	16
 356              		.thumb_func
 357              		.type	PWM_1_ReadCompare, %function
 358              	PWM_1_ReadCompare:
 359              	.LFB12:
 794:.\Generated_Source\PSoC4/PWM_1.c **** 
 795:.\Generated_Source\PSoC4/PWM_1.c **** #endif /* (!PWM_1_UsingFixedFunction) */
 796:.\Generated_Source\PSoC4/PWM_1.c **** 
 797:.\Generated_Source\PSoC4/PWM_1.c **** 
 798:.\Generated_Source\PSoC4/PWM_1.c **** #if (PWM_1_UseOneCompareMode)
 799:.\Generated_Source\PSoC4/PWM_1.c **** 
 800:.\Generated_Source\PSoC4/PWM_1.c **** 
 801:.\Generated_Source\PSoC4/PWM_1.c ****     /*******************************************************************************
 802:.\Generated_Source\PSoC4/PWM_1.c ****     * Function Name: PWM_1_ReadCompare
 803:.\Generated_Source\PSoC4/PWM_1.c ****     ********************************************************************************
 804:.\Generated_Source\PSoC4/PWM_1.c ****     *
 805:.\Generated_Source\PSoC4/PWM_1.c ****     * Summary:
 806:.\Generated_Source\PSoC4/PWM_1.c ****     *  Reads the compare value for the compare output when the PWM Mode parameter is
 807:.\Generated_Source\PSoC4/PWM_1.c ****     *  set to Dither mode, Center Aligned mode, or One Output mode.
 808:.\Generated_Source\PSoC4/PWM_1.c ****     *
 809:.\Generated_Source\PSoC4/PWM_1.c ****     * Parameters:
 810:.\Generated_Source\PSoC4/PWM_1.c ****     *  None
 811:.\Generated_Source\PSoC4/PWM_1.c ****     *
 812:.\Generated_Source\PSoC4/PWM_1.c ****     * Return:
 813:.\Generated_Source\PSoC4/PWM_1.c ****     *  uint8/uint16: Current compare value
 814:.\Generated_Source\PSoC4/PWM_1.c ****     *
 815:.\Generated_Source\PSoC4/PWM_1.c ****     *******************************************************************************/
 816:.\Generated_Source\PSoC4/PWM_1.c ****     uint8 PWM_1_ReadCompare(void) 
 817:.\Generated_Source\PSoC4/PWM_1.c ****     {
ARM GAS  C:\Users\kbuchi\AppData\Local\Temp\ccCOF4X6.s 			page 22


 360              		.loc 1 817 0
 361              		.cfi_startproc
 818:.\Generated_Source\PSoC4/PWM_1.c ****         #if(PWM_1_UsingFixedFunction)
 819:.\Generated_Source\PSoC4/PWM_1.c ****             return ((uint8)CY_GET_REG16(PWM_1_COMPARE1_LSB_PTR));
 820:.\Generated_Source\PSoC4/PWM_1.c ****         #else
 821:.\Generated_Source\PSoC4/PWM_1.c ****             return (CY_GET_REG8(PWM_1_COMPARE1_LSB_PTR));
 362              		.loc 1 821 0
 363 0000 014B     		ldr	r3, .L35
 364 0002 1878     		ldrb	r0, [r3]
 365 0004 C0B2     		uxtb	r0, r0
 822:.\Generated_Source\PSoC4/PWM_1.c ****         #endif /* (PWM_1_UsingFixedFunction) */
 823:.\Generated_Source\PSoC4/PWM_1.c ****     }
 366              		.loc 1 823 0
 367              		@ sp needed
 368 0006 7047     		bx	lr
 369              	.L36:
 370              		.align	2
 371              	.L35:
 372 0008 21000F40 		.word	1074724897
 373              		.cfi_endproc
 374              	.LFE12:
 375              		.size	PWM_1_ReadCompare, .-PWM_1_ReadCompare
 376              		.section	.text.PWM_1_ReadPeriod,"ax",%progbits
 377              		.align	2
 378              		.global	PWM_1_ReadPeriod
 379              		.code	16
 380              		.thumb_func
 381              		.type	PWM_1_ReadPeriod, %function
 382              	PWM_1_ReadPeriod:
 383              	.LFB13:
 824:.\Generated_Source\PSoC4/PWM_1.c **** 
 825:.\Generated_Source\PSoC4/PWM_1.c **** #else
 826:.\Generated_Source\PSoC4/PWM_1.c **** 
 827:.\Generated_Source\PSoC4/PWM_1.c **** 
 828:.\Generated_Source\PSoC4/PWM_1.c ****     /*******************************************************************************
 829:.\Generated_Source\PSoC4/PWM_1.c ****     * Function Name: PWM_1_ReadCompare1
 830:.\Generated_Source\PSoC4/PWM_1.c ****     ********************************************************************************
 831:.\Generated_Source\PSoC4/PWM_1.c ****     *
 832:.\Generated_Source\PSoC4/PWM_1.c ****     * Summary:
 833:.\Generated_Source\PSoC4/PWM_1.c ****     *  Reads the compare value for the compare1 output.
 834:.\Generated_Source\PSoC4/PWM_1.c ****     *
 835:.\Generated_Source\PSoC4/PWM_1.c ****     * Parameters:
 836:.\Generated_Source\PSoC4/PWM_1.c ****     *  None
 837:.\Generated_Source\PSoC4/PWM_1.c ****     *
 838:.\Generated_Source\PSoC4/PWM_1.c ****     * Return:
 839:.\Generated_Source\PSoC4/PWM_1.c ****     *  uint8/uint16: Current compare value.
 840:.\Generated_Source\PSoC4/PWM_1.c ****     *
 841:.\Generated_Source\PSoC4/PWM_1.c ****     *******************************************************************************/
 842:.\Generated_Source\PSoC4/PWM_1.c ****     uint8 PWM_1_ReadCompare1(void) 
 843:.\Generated_Source\PSoC4/PWM_1.c ****     {
 844:.\Generated_Source\PSoC4/PWM_1.c ****         return (CY_GET_REG8(PWM_1_COMPARE1_LSB_PTR));
 845:.\Generated_Source\PSoC4/PWM_1.c ****     }
 846:.\Generated_Source\PSoC4/PWM_1.c **** 
 847:.\Generated_Source\PSoC4/PWM_1.c **** 
 848:.\Generated_Source\PSoC4/PWM_1.c ****     /*******************************************************************************
 849:.\Generated_Source\PSoC4/PWM_1.c ****     * Function Name: PWM_1_ReadCompare2
 850:.\Generated_Source\PSoC4/PWM_1.c ****     ********************************************************************************
ARM GAS  C:\Users\kbuchi\AppData\Local\Temp\ccCOF4X6.s 			page 23


 851:.\Generated_Source\PSoC4/PWM_1.c ****     *
 852:.\Generated_Source\PSoC4/PWM_1.c ****     * Summary:
 853:.\Generated_Source\PSoC4/PWM_1.c ****     *  Reads the compare value for the compare2 output.
 854:.\Generated_Source\PSoC4/PWM_1.c ****     *
 855:.\Generated_Source\PSoC4/PWM_1.c ****     * Parameters:
 856:.\Generated_Source\PSoC4/PWM_1.c ****     *  None
 857:.\Generated_Source\PSoC4/PWM_1.c ****     *
 858:.\Generated_Source\PSoC4/PWM_1.c ****     * Return:
 859:.\Generated_Source\PSoC4/PWM_1.c ****     *  uint8/uint16: Current compare value.
 860:.\Generated_Source\PSoC4/PWM_1.c ****     *
 861:.\Generated_Source\PSoC4/PWM_1.c ****     *******************************************************************************/
 862:.\Generated_Source\PSoC4/PWM_1.c ****     uint8 PWM_1_ReadCompare2(void) 
 863:.\Generated_Source\PSoC4/PWM_1.c ****     {
 864:.\Generated_Source\PSoC4/PWM_1.c ****         return (CY_GET_REG8(PWM_1_COMPARE2_LSB_PTR));
 865:.\Generated_Source\PSoC4/PWM_1.c ****     }
 866:.\Generated_Source\PSoC4/PWM_1.c **** 
 867:.\Generated_Source\PSoC4/PWM_1.c **** #endif /* (PWM_1_UseOneCompareMode) */
 868:.\Generated_Source\PSoC4/PWM_1.c **** 
 869:.\Generated_Source\PSoC4/PWM_1.c **** 
 870:.\Generated_Source\PSoC4/PWM_1.c **** /*******************************************************************************
 871:.\Generated_Source\PSoC4/PWM_1.c **** * Function Name: PWM_1_ReadPeriod
 872:.\Generated_Source\PSoC4/PWM_1.c **** ********************************************************************************
 873:.\Generated_Source\PSoC4/PWM_1.c **** *
 874:.\Generated_Source\PSoC4/PWM_1.c **** * Summary:
 875:.\Generated_Source\PSoC4/PWM_1.c **** *  Reads the period value used by the PWM hardware.
 876:.\Generated_Source\PSoC4/PWM_1.c **** *
 877:.\Generated_Source\PSoC4/PWM_1.c **** * Parameters:
 878:.\Generated_Source\PSoC4/PWM_1.c **** *  None
 879:.\Generated_Source\PSoC4/PWM_1.c **** *
 880:.\Generated_Source\PSoC4/PWM_1.c **** * Return:
 881:.\Generated_Source\PSoC4/PWM_1.c **** *  uint8/16: Period value
 882:.\Generated_Source\PSoC4/PWM_1.c **** *
 883:.\Generated_Source\PSoC4/PWM_1.c **** *******************************************************************************/
 884:.\Generated_Source\PSoC4/PWM_1.c **** uint8 PWM_1_ReadPeriod(void) 
 885:.\Generated_Source\PSoC4/PWM_1.c **** {
 384              		.loc 1 885 0
 385              		.cfi_startproc
 886:.\Generated_Source\PSoC4/PWM_1.c ****     #if(PWM_1_UsingFixedFunction)
 887:.\Generated_Source\PSoC4/PWM_1.c ****         return ((uint8)CY_GET_REG16(PWM_1_PERIOD_LSB_PTR));
 888:.\Generated_Source\PSoC4/PWM_1.c ****     #else
 889:.\Generated_Source\PSoC4/PWM_1.c ****         return (CY_GET_REG8(PWM_1_PERIOD_LSB_PTR));
 386              		.loc 1 889 0
 387 0000 014B     		ldr	r3, .L38
 388 0002 1878     		ldrb	r0, [r3]
 389 0004 C0B2     		uxtb	r0, r0
 890:.\Generated_Source\PSoC4/PWM_1.c ****     #endif /* (PWM_1_UsingFixedFunction) */
 891:.\Generated_Source\PSoC4/PWM_1.c **** }
 390              		.loc 1 891 0
 391              		@ sp needed
 392 0006 7047     		bx	lr
 393              	.L39:
 394              		.align	2
 395              	.L38:
 396 0008 41000F40 		.word	1074724929
 397              		.cfi_endproc
 398              	.LFE13:
 399              		.size	PWM_1_ReadPeriod, .-PWM_1_ReadPeriod
ARM GAS  C:\Users\kbuchi\AppData\Local\Temp\ccCOF4X6.s 			page 24


 400              		.global	PWM_1_initVar
 401              		.bss
 402              		.set	.LANCHOR0,. + 0
 403              		.type	PWM_1_initVar, %object
 404              		.size	PWM_1_initVar, 1
 405              	PWM_1_initVar:
 406 0000 00       		.space	1
 407              		.text
 408              	.Letext0:
 409              		.file 2 ".\\Generated_Source\\PSoC4\\cytypes.h"
 410              		.file 3 ".\\Generated_Source\\PSoC4\\CyLib.h"