ARM GAS  C:\Users\kbuchi\AppData\Local\Temp\ccOUPaAd.s 			page 1


   1              		.cpu cortex-m0
   2              		.fpu softvfp
   3              		.eabi_attribute 20, 1
   4              		.eabi_attribute 21, 1
   5              		.eabi_attribute 23, 3
   6              		.eabi_attribute 24, 1
   7              		.eabi_attribute 25, 1
   8              		.eabi_attribute 26, 1
   9              		.eabi_attribute 30, 1
  10              		.eabi_attribute 34, 0
  11              		.eabi_attribute 18, 4
  12              		.code	16
  13              		.file	"CapSense.c"
  14              		.text
  15              	.Ltext0:
  16              		.cfi_sections	.debug_frame
  17              		.section	.text.CapSense_CsdHwBlockInit,"ax",%progbits
  18              		.align	2
  19              		.global	CapSense_CsdHwBlockInit
  20              		.code	16
  21              		.thumb_func
  22              		.type	CapSense_CsdHwBlockInit, %function
  23              	CapSense_CsdHwBlockInit:
  24              	.LFB34:
  25              		.file 1 ".\\Generated_Source\\PSoC4\\CapSense.c"
   1:.\Generated_Source\PSoC4/CapSense.c **** /*******************************************************************************
   2:.\Generated_Source\PSoC4/CapSense.c **** * File Name: CapSense.c
   3:.\Generated_Source\PSoC4/CapSense.c **** * Version 2.20
   4:.\Generated_Source\PSoC4/CapSense.c **** *
   5:.\Generated_Source\PSoC4/CapSense.c **** * Description:
   6:.\Generated_Source\PSoC4/CapSense.c **** *  This file provides the source code for scanning APIs for the CapSense CSD 
   7:.\Generated_Source\PSoC4/CapSense.c **** *  component.
   8:.\Generated_Source\PSoC4/CapSense.c **** *
   9:.\Generated_Source\PSoC4/CapSense.c **** * Note:
  10:.\Generated_Source\PSoC4/CapSense.c **** *
  11:.\Generated_Source\PSoC4/CapSense.c **** ********************************************************************************
  12:.\Generated_Source\PSoC4/CapSense.c **** * Copyright 2014, Cypress Semiconductor Corporation.  All rights reserved.
  13:.\Generated_Source\PSoC4/CapSense.c **** * You may use this file only in accordance with the license, terms, conditions,
  14:.\Generated_Source\PSoC4/CapSense.c **** * disclaimers, and limitations in the end user license agreement accompanying
  15:.\Generated_Source\PSoC4/CapSense.c **** * the software package with which this file was provided.
  16:.\Generated_Source\PSoC4/CapSense.c **** *******************************************************************************/
  17:.\Generated_Source\PSoC4/CapSense.c **** 
  18:.\Generated_Source\PSoC4/CapSense.c **** #include "CapSense.h"
  19:.\Generated_Source\PSoC4/CapSense.c **** #include "CapSense_PVT.h"
  20:.\Generated_Source\PSoC4/CapSense.c **** #include "cypins.h"
  21:.\Generated_Source\PSoC4/CapSense.c **** 
  22:.\Generated_Source\PSoC4/CapSense.c **** #if(0u != CapSense_CSHL_API_GENERATE)
  23:.\Generated_Source\PSoC4/CapSense.c **** 	#include "CapSense_CSHL.h"
  24:.\Generated_Source\PSoC4/CapSense.c **** #endif /* (0u != CapSense_CSHL_API_GENERATE) */
  25:.\Generated_Source\PSoC4/CapSense.c **** 
  26:.\Generated_Source\PSoC4/CapSense.c **** /* This definition is intended to prevent unexpected linker error. 
  27:.\Generated_Source\PSoC4/CapSense.c ****    For more details please see the IAR Technical Note 49981 */
  28:.\Generated_Source\PSoC4/CapSense.c **** #if defined(__ICCARM__)
  29:.\Generated_Source\PSoC4/CapSense.c **** 	extern void CapSense_EnableSensor(uint32 sensor);
  30:.\Generated_Source\PSoC4/CapSense.c **** 	extern void CapSense_DisableSensor(uint32 sensor);
  31:.\Generated_Source\PSoC4/CapSense.c **** #endif /* (__ICCARM__) */	
  32:.\Generated_Source\PSoC4/CapSense.c **** 
ARM GAS  C:\Users\kbuchi\AppData\Local\Temp\ccOUPaAd.s 			page 2


  33:.\Generated_Source\PSoC4/CapSense.c **** /* SmartSense functions */
  34:.\Generated_Source\PSoC4/CapSense.c **** #if (CapSense_TUNING_METHOD == CapSense__TUNING_AUTO)
  35:.\Generated_Source\PSoC4/CapSense.c ****     uint8 CapSense_lowLevelTuningDone = 0u;
  36:.\Generated_Source\PSoC4/CapSense.c **** 	uint8 scanSpeedTbl[((CapSense_TOTAL_SENSOR_COUNT - 1u) / 8u) + 1u];
  37:.\Generated_Source\PSoC4/CapSense.c **** #endif /* (CapSense_TUNING_METHOD == CapSense__TUNING_AUTO) */
  38:.\Generated_Source\PSoC4/CapSense.c **** 
  39:.\Generated_Source\PSoC4/CapSense.c **** #if(CapSense_PRS_OPTIONS != CapSense__PRS_NONE)
  40:.\Generated_Source\PSoC4/CapSense.c **** 	uint8 CapSense_prescalersTuningDone = 0u;
  41:.\Generated_Source\PSoC4/CapSense.c **** #endif /* (CapSense_PRS_OPTIONS == CapSense__PRS_NONE) */
  42:.\Generated_Source\PSoC4/CapSense.c ****             
  43:.\Generated_Source\PSoC4/CapSense.c **** /* Global software variables */
  44:.\Generated_Source\PSoC4/CapSense.c **** volatile uint8 CapSense_csdStatusVar = 0u;   /* CapSense CSD status, variable */
  45:.\Generated_Source\PSoC4/CapSense.c **** volatile uint8 CapSense_sensorIndex = 0u;    /* Index of scannig sensor */
  46:.\Generated_Source\PSoC4/CapSense.c **** 
  47:.\Generated_Source\PSoC4/CapSense.c **** /* Global array of Raw Counts */
  48:.\Generated_Source\PSoC4/CapSense.c **** uint16 CapSense_sensorRaw[CapSense_TOTAL_SENSOR_COUNT] = {0u};
  49:.\Generated_Source\PSoC4/CapSense.c **** 
  50:.\Generated_Source\PSoC4/CapSense.c **** /* Backup variables for trim registers*/
  51:.\Generated_Source\PSoC4/CapSense.c **** #if (CapSense_IDAC1_POLARITY == CapSense__IDAC_SINK)
  52:.\Generated_Source\PSoC4/CapSense.c **** 	uint8 CapSense_csdTrim2;   
  53:.\Generated_Source\PSoC4/CapSense.c **** #else
  54:.\Generated_Source\PSoC4/CapSense.c ****     uint8 CapSense_csdTrim1;	
  55:.\Generated_Source\PSoC4/CapSense.c **** #endif /* (CapSense_IDAC1_POLARITY == CapSense__IDAC_SINK) */
  56:.\Generated_Source\PSoC4/CapSense.c **** 
  57:.\Generated_Source\PSoC4/CapSense.c **** /* Global array of un-scanned sensors state */
  58:.\Generated_Source\PSoC4/CapSense.c **** uint8 CapSense_unscannedSnsDriveMode[CapSense_TOTAL_SENSOR_COUNT];
  59:.\Generated_Source\PSoC4/CapSense.c **** 
  60:.\Generated_Source\PSoC4/CapSense.c **** /* Backup array for CapSense_sensorEnableMask */
  61:.\Generated_Source\PSoC4/CapSense.c **** uint8 CapSense_sensorEnableMaskBackup[(((CapSense_TOTAL_SENSOR_COUNT - 1u) / 8u) + 1u)];
  62:.\Generated_Source\PSoC4/CapSense.c **** 
  63:.\Generated_Source\PSoC4/CapSense.c **** /* Configured constants and arrays by Customizer */
  64:.\Generated_Source\PSoC4/CapSense.c **** uint8 CapSense_sensorEnableMask[(((CapSense_TOTAL_SENSOR_COUNT - 1u) / 8u) + 1u)] = {
  65:.\Generated_Source\PSoC4/CapSense.c **** 0x1Fu, };
  66:.\Generated_Source\PSoC4/CapSense.c **** 
  67:.\Generated_Source\PSoC4/CapSense.c **** reg32 * CapSense_pcTable[] = {
  68:.\Generated_Source\PSoC4/CapSense.c ****     (reg32 *)CapSense_Sns__LinearSlider0_e0__LS__PC, 
  69:.\Generated_Source\PSoC4/CapSense.c ****     (reg32 *)CapSense_Sns__LinearSlider0_e1__LS__PC, 
  70:.\Generated_Source\PSoC4/CapSense.c ****     (reg32 *)CapSense_Sns__LinearSlider0_e2__LS__PC, 
  71:.\Generated_Source\PSoC4/CapSense.c ****     (reg32 *)CapSense_Sns__LinearSlider0_e3__LS__PC, 
  72:.\Generated_Source\PSoC4/CapSense.c ****     (reg32 *)CapSense_Sns__LinearSlider0_e4__LS__PC, 
  73:.\Generated_Source\PSoC4/CapSense.c **** };
  74:.\Generated_Source\PSoC4/CapSense.c **** 
  75:.\Generated_Source\PSoC4/CapSense.c **** const uint8 CapSense_portTable[] = {
  76:.\Generated_Source\PSoC4/CapSense.c ****     CapSense_Sns__LinearSlider0_e0__LS__PORT, 
  77:.\Generated_Source\PSoC4/CapSense.c ****     CapSense_Sns__LinearSlider0_e1__LS__PORT, 
  78:.\Generated_Source\PSoC4/CapSense.c ****     CapSense_Sns__LinearSlider0_e2__LS__PORT, 
  79:.\Generated_Source\PSoC4/CapSense.c ****     CapSense_Sns__LinearSlider0_e3__LS__PORT, 
  80:.\Generated_Source\PSoC4/CapSense.c ****     CapSense_Sns__LinearSlider0_e4__LS__PORT, 
  81:.\Generated_Source\PSoC4/CapSense.c **** };
  82:.\Generated_Source\PSoC4/CapSense.c **** 
  83:.\Generated_Source\PSoC4/CapSense.c **** const uint32 CapSense_maskTable[] = {
  84:.\Generated_Source\PSoC4/CapSense.c ****     CapSense_Sns__LinearSlider0_e0__LS__MASK, 
  85:.\Generated_Source\PSoC4/CapSense.c ****     CapSense_Sns__LinearSlider0_e1__LS__MASK, 
  86:.\Generated_Source\PSoC4/CapSense.c ****     CapSense_Sns__LinearSlider0_e2__LS__MASK, 
  87:.\Generated_Source\PSoC4/CapSense.c ****     CapSense_Sns__LinearSlider0_e3__LS__MASK, 
  88:.\Generated_Source\PSoC4/CapSense.c ****     CapSense_Sns__LinearSlider0_e4__LS__MASK, 
  89:.\Generated_Source\PSoC4/CapSense.c **** };
ARM GAS  C:\Users\kbuchi\AppData\Local\Temp\ccOUPaAd.s 			page 3


  90:.\Generated_Source\PSoC4/CapSense.c **** 
  91:.\Generated_Source\PSoC4/CapSense.c **** const uint8 CapSense_pinShiftTbl[] = {
  92:.\Generated_Source\PSoC4/CapSense.c ****     (uint8) CapSense_Sns__LinearSlider0_e0__LS__SHIFT, 
  93:.\Generated_Source\PSoC4/CapSense.c ****     (uint8) CapSense_Sns__LinearSlider0_e1__LS__SHIFT, 
  94:.\Generated_Source\PSoC4/CapSense.c ****     (uint8) CapSense_Sns__LinearSlider0_e2__LS__SHIFT, 
  95:.\Generated_Source\PSoC4/CapSense.c ****     (uint8) CapSense_Sns__LinearSlider0_e3__LS__SHIFT, 
  96:.\Generated_Source\PSoC4/CapSense.c ****     (uint8) CapSense_Sns__LinearSlider0_e4__LS__SHIFT, 
  97:.\Generated_Source\PSoC4/CapSense.c **** };
  98:.\Generated_Source\PSoC4/CapSense.c **** 
  99:.\Generated_Source\PSoC4/CapSense.c **** uint8 CapSense_modulationIDAC[CapSense_TOTAL_SENSOR_COUNT];
 100:.\Generated_Source\PSoC4/CapSense.c **** uint8 CapSense_compensationIDAC[CapSense_TOTAL_SENSOR_COUNT];
 101:.\Generated_Source\PSoC4/CapSense.c **** 
 102:.\Generated_Source\PSoC4/CapSense.c **** uint32 CapSense_widgetResolution[CapSense_RESOLUTIONS_TBL_SIZE] = {
 103:.\Generated_Source\PSoC4/CapSense.c ****     CapSense_RESOLUTION_12_BITS,
 104:.\Generated_Source\PSoC4/CapSense.c **** };
 105:.\Generated_Source\PSoC4/CapSense.c **** 
 106:.\Generated_Source\PSoC4/CapSense.c **** uint8 CapSense_senseClkDividerVal[CapSense_TOTAL_SCANSLOT_COUNT];
 107:.\Generated_Source\PSoC4/CapSense.c **** uint8 CapSense_sampleClkDividerVal[CapSense_TOTAL_SCANSLOT_COUNT];
 108:.\Generated_Source\PSoC4/CapSense.c **** 
 109:.\Generated_Source\PSoC4/CapSense.c **** const uint8 CapSense_widgetNumber[CapSense_TOTAL_SENSOR_COUNT] = {
 110:.\Generated_Source\PSoC4/CapSense.c ****     0u, 0u, 0u, 0u, 0u, /* LinearSlider0__LS */
 111:.\Generated_Source\PSoC4/CapSense.c **** };
 112:.\Generated_Source\PSoC4/CapSense.c **** 
 113:.\Generated_Source\PSoC4/CapSense.c **** 
 114:.\Generated_Source\PSoC4/CapSense.c **** 
 115:.\Generated_Source\PSoC4/CapSense.c **** reg32* const CapSense_prtSelTbl[] = {
 116:.\Generated_Source\PSoC4/CapSense.c **** /* CY_PSOC4_4000 is default*/
 117:.\Generated_Source\PSoC4/CapSense.c **** 	((reg32 *) CYREG_HSIOM_PORT_SEL0),
 118:.\Generated_Source\PSoC4/CapSense.c **** 	((reg32 *) CYREG_HSIOM_PORT_SEL1),
 119:.\Generated_Source\PSoC4/CapSense.c **** 	((reg32 *) CYREG_HSIOM_PORT_SEL2),
 120:.\Generated_Source\PSoC4/CapSense.c **** 	((reg32 *) CYREG_HSIOM_PORT_SEL3),
 121:.\Generated_Source\PSoC4/CapSense.c **** #if (CapSense_CFG_REG_TBL_SIZE == 5u)
 122:.\Generated_Source\PSoC4/CapSense.c **** 	((reg32 *) CYREG_HSIOM_PORT_SEL4)
 123:.\Generated_Source\PSoC4/CapSense.c **** #elif(CapSense_CFG_REG_TBL_SIZE == 6u)
 124:.\Generated_Source\PSoC4/CapSense.c **** 	((reg32 *) CYREG_HSIOM_PORT_SEL4),
 125:.\Generated_Source\PSoC4/CapSense.c **** 	((reg32 *) CYREG_HSIOM_PORT_SEL5)
 126:.\Generated_Source\PSoC4/CapSense.c **** #elif(CapSense_CFG_REG_TBL_SIZE == 8u)
 127:.\Generated_Source\PSoC4/CapSense.c **** 	((reg32 *) CYREG_HSIOM_PORT_SEL4),
 128:.\Generated_Source\PSoC4/CapSense.c **** 	((reg32 *) CYREG_HSIOM_PORT_SEL5),
 129:.\Generated_Source\PSoC4/CapSense.c **** 	((reg32 *) CYREG_HSIOM_PORT_SEL6),
 130:.\Generated_Source\PSoC4/CapSense.c **** 	((reg32 *) CYREG_HSIOM_PORT_SEL7)
 131:.\Generated_Source\PSoC4/CapSense.c **** #endif /* (CY_PSOC4_4200) */
 132:.\Generated_Source\PSoC4/CapSense.c **** };
 133:.\Generated_Source\PSoC4/CapSense.c **** 
 134:.\Generated_Source\PSoC4/CapSense.c **** reg32* const CapSense_prtCfgTbl[] = {
 135:.\Generated_Source\PSoC4/CapSense.c **** /* CY_PSOC4_4000 is default*/
 136:.\Generated_Source\PSoC4/CapSense.c **** 	((reg32 *) CYREG_PRT0_PC),
 137:.\Generated_Source\PSoC4/CapSense.c **** 	((reg32 *) CYREG_PRT1_PC),
 138:.\Generated_Source\PSoC4/CapSense.c **** 	((reg32 *) CYREG_PRT2_PC),
 139:.\Generated_Source\PSoC4/CapSense.c **** 	((reg32 *) CYREG_PRT3_PC),
 140:.\Generated_Source\PSoC4/CapSense.c **** #if (CapSense_CFG_REG_TBL_SIZE == 5u)
 141:.\Generated_Source\PSoC4/CapSense.c **** 	((reg32 *) CYREG_PRT4_PC)
 142:.\Generated_Source\PSoC4/CapSense.c **** #elif(CapSense_CFG_REG_TBL_SIZE == 6u)
 143:.\Generated_Source\PSoC4/CapSense.c **** 	((reg32 *) CYREG_PRT4_PC),
 144:.\Generated_Source\PSoC4/CapSense.c **** 	((reg32 *) CYREG_PRT5_PC)
 145:.\Generated_Source\PSoC4/CapSense.c **** #elif(CapSense_CFG_REG_TBL_SIZE == 8u)
 146:.\Generated_Source\PSoC4/CapSense.c **** 	((reg32 *) CYREG_PRT4_PC),
ARM GAS  C:\Users\kbuchi\AppData\Local\Temp\ccOUPaAd.s 			page 4


 147:.\Generated_Source\PSoC4/CapSense.c **** 	((reg32 *) CYREG_PRT5_PC),
 148:.\Generated_Source\PSoC4/CapSense.c **** 	((reg32 *) CYREG_PRT6_PC),
 149:.\Generated_Source\PSoC4/CapSense.c **** 	((reg32 *) CYREG_PRT7_PC)
 150:.\Generated_Source\PSoC4/CapSense.c **** #endif /* (CY_PSOC4_4200) */	
 151:.\Generated_Source\PSoC4/CapSense.c **** };
 152:.\Generated_Source\PSoC4/CapSense.c **** 
 153:.\Generated_Source\PSoC4/CapSense.c **** reg32* const CapSense_prtDRTbl[] = {
 154:.\Generated_Source\PSoC4/CapSense.c **** /* CY_PSOC4_4000 is default*/
 155:.\Generated_Source\PSoC4/CapSense.c **** 	((reg32 *) CYREG_PRT0_DR),
 156:.\Generated_Source\PSoC4/CapSense.c **** 	((reg32 *) CYREG_PRT1_DR),
 157:.\Generated_Source\PSoC4/CapSense.c **** 	((reg32 *) CYREG_PRT2_DR),
 158:.\Generated_Source\PSoC4/CapSense.c **** 	((reg32 *) CYREG_PRT3_DR),
 159:.\Generated_Source\PSoC4/CapSense.c **** #if (CapSense_CFG_REG_TBL_SIZE == 5u)
 160:.\Generated_Source\PSoC4/CapSense.c **** 	((reg32 *) CYREG_PRT4_DR)
 161:.\Generated_Source\PSoC4/CapSense.c **** #elif(CapSense_CFG_REG_TBL_SIZE == 6u)
 162:.\Generated_Source\PSoC4/CapSense.c **** 	((reg32 *) CYREG_PRT4_DR),
 163:.\Generated_Source\PSoC4/CapSense.c **** 	((reg32 *) CYREG_PRT5_DR),
 164:.\Generated_Source\PSoC4/CapSense.c **** #elif(CapSense_CFG_REG_TBL_SIZE == 8u)
 165:.\Generated_Source\PSoC4/CapSense.c **** 	((reg32 *) CYREG_PRT4_DR),
 166:.\Generated_Source\PSoC4/CapSense.c **** 	((reg32 *) CYREG_PRT5_DR),
 167:.\Generated_Source\PSoC4/CapSense.c **** 	((reg32 *) CYREG_PRT6_DR),
 168:.\Generated_Source\PSoC4/CapSense.c **** 	((reg32 *) CYREG_PRT7_DR),
 169:.\Generated_Source\PSoC4/CapSense.c **** #endif /* (CY_PSOC4_4200) */	
 170:.\Generated_Source\PSoC4/CapSense.c **** };
 171:.\Generated_Source\PSoC4/CapSense.c ****     
 172:.\Generated_Source\PSoC4/CapSense.c **** 
 173:.\Generated_Source\PSoC4/CapSense.c **** /*******************************************************************************
 174:.\Generated_Source\PSoC4/CapSense.c **** * Function Name: CapSense_Init
 175:.\Generated_Source\PSoC4/CapSense.c **** ********************************************************************************
 176:.\Generated_Source\PSoC4/CapSense.c **** *
 177:.\Generated_Source\PSoC4/CapSense.c **** * Summary:
 178:.\Generated_Source\PSoC4/CapSense.c **** *  API initializes default CapSense configuration provided by the customizer that defines 
 179:.\Generated_Source\PSoC4/CapSense.c **** *  the mode of component operations and resets all the sensors to an inactive state.
 180:.\Generated_Source\PSoC4/CapSense.c **** *
 181:.\Generated_Source\PSoC4/CapSense.c **** * Parameters:
 182:.\Generated_Source\PSoC4/CapSense.c **** *  None
 183:.\Generated_Source\PSoC4/CapSense.c **** *
 184:.\Generated_Source\PSoC4/CapSense.c **** * Return:
 185:.\Generated_Source\PSoC4/CapSense.c **** *  None
 186:.\Generated_Source\PSoC4/CapSense.c **** *
 187:.\Generated_Source\PSoC4/CapSense.c **** * Global Variables:
 188:.\Generated_Source\PSoC4/CapSense.c **** *  CapSense_immunityIndex - defines immunity level.
 189:.\Generated_Source\PSoC4/CapSense.c **** *
 190:.\Generated_Source\PSoC4/CapSense.c **** * Side Effects:
 191:.\Generated_Source\PSoC4/CapSense.c **** *  None
 192:.\Generated_Source\PSoC4/CapSense.c **** * 
 193:.\Generated_Source\PSoC4/CapSense.c **** *******************************************************************************/
 194:.\Generated_Source\PSoC4/CapSense.c **** void CapSense_Init(void)
 195:.\Generated_Source\PSoC4/CapSense.c **** {   
 196:.\Generated_Source\PSoC4/CapSense.c **** 	uint32 curSensor;
 197:.\Generated_Source\PSoC4/CapSense.c **** 	
 198:.\Generated_Source\PSoC4/CapSense.c **** 	#if(CapSense_IS_SHIELD_ENABLE)
 199:.\Generated_Source\PSoC4/CapSense.c **** 		
 200:.\Generated_Source\PSoC4/CapSense.c **** 		#if((CapSense_CSH_TANK_PREGARGE_OPTION == CapSense__CAPPRIOBUF) || (0u != CapSense_CSH_TANK_ENABL
 201:.\Generated_Source\PSoC4/CapSense.c **** 			uint32 newRegValue;
 202:.\Generated_Source\PSoC4/CapSense.c **** 			
 203:.\Generated_Source\PSoC4/CapSense.c **** 			newRegValue = CapSense_CTANK_CONNECTION_REG;
ARM GAS  C:\Users\kbuchi\AppData\Local\Temp\ccOUPaAd.s 			page 5


 204:.\Generated_Source\PSoC4/CapSense.c **** 	        newRegValue &= ~(CapSense_CSD_CTANK_CONNECTION_MASK);
 205:.\Generated_Source\PSoC4/CapSense.c **** 			newRegValue |= CapSense_CSD_CTANK_TO_AMUXBUS_B;
 206:.\Generated_Source\PSoC4/CapSense.c **** 	        CapSense_CTANK_CONNECTION_REG = newRegValue;
 207:.\Generated_Source\PSoC4/CapSense.c **** 			
 208:.\Generated_Source\PSoC4/CapSense.c **** 			#if(CapSense_CSH_TANK_PREGARGE_OPTION == CapSense__CAPPRIOBUF)
 209:.\Generated_Source\PSoC4/CapSense.c **** 				newRegValue = CapSense_CTANK_PORT_PC_REG;
 210:.\Generated_Source\PSoC4/CapSense.c **** 		        newRegValue &= ~(CapSense_CSD_CTANK_PC_MASK);
 211:.\Generated_Source\PSoC4/CapSense.c **** 				newRegValue |= CapSense_CTANK_PC_STRONG_MODE;
 212:.\Generated_Source\PSoC4/CapSense.c **** 		        CapSense_CTANK_PORT_PC_REG = newRegValue;
 213:.\Generated_Source\PSoC4/CapSense.c **** 				
 214:.\Generated_Source\PSoC4/CapSense.c **** 				newRegValue = CapSense_CTANK_PORT_DR_REG;
 215:.\Generated_Source\PSoC4/CapSense.c **** 		        newRegValue &= ~(CapSense_CTANK_DR_MASK);
 216:.\Generated_Source\PSoC4/CapSense.c **** 				newRegValue |= CapSense_CTANK_DR_CONFIG;
 217:.\Generated_Source\PSoC4/CapSense.c **** 		        CapSense_CTANK_PORT_DR_REG = newRegValue;
 218:.\Generated_Source\PSoC4/CapSense.c **** 			#endif /* (CapSense_CSH_TANK_PREGARGE_OPTION == CapSense__CAPPRIOBUF) */
 219:.\Generated_Source\PSoC4/CapSense.c **** 	        
 220:.\Generated_Source\PSoC4/CapSense.c **** 		#endif /* ((CapSense_CSH_TANK_PREGARGE_OPTION == CapSense__CAPPRIOBUF) || (CapSense_CSH_TANK_ENAB
 221:.\Generated_Source\PSoC4/CapSense.c **** 		
 222:.\Generated_Source\PSoC4/CapSense.c **** 		CapSense_EnableShieldElectrode((uint32)CapSense_SHIELD_PIN_NUMBER, (uint32)CapSense_SHIELD_PORT_N
 223:.\Generated_Source\PSoC4/CapSense.c **** 		
 224:.\Generated_Source\PSoC4/CapSense.c **** 	#endif /* (CapSense_IS_SHIELD_ENABLE) */
 225:.\Generated_Source\PSoC4/CapSense.c **** 	
 226:.\Generated_Source\PSoC4/CapSense.c **** 	for(curSensor = 0u; curSensor < CapSense_TOTAL_SENSOR_COUNT; curSensor++)
 227:.\Generated_Source\PSoC4/CapSense.c **** 	{
 228:.\Generated_Source\PSoC4/CapSense.c **** 		CapSense_unscannedSnsDriveMode[curSensor] = CapSense_CONNECT_INACTIVE_SNS;
 229:.\Generated_Source\PSoC4/CapSense.c **** 	}
 230:.\Generated_Source\PSoC4/CapSense.c ****     
 231:.\Generated_Source\PSoC4/CapSense.c **** 	CapSense_CsdHwBlockInit();
 232:.\Generated_Source\PSoC4/CapSense.c ****     CapSense_SetShieldDelay(CapSense_SHIELD_DELAY );
 233:.\Generated_Source\PSoC4/CapSense.c **** 	
 234:.\Generated_Source\PSoC4/CapSense.c **** 	/* Clear all sensors */
 235:.\Generated_Source\PSoC4/CapSense.c ****     CapSense_ClearSensors();
 236:.\Generated_Source\PSoC4/CapSense.c **** }
 237:.\Generated_Source\PSoC4/CapSense.c **** 
 238:.\Generated_Source\PSoC4/CapSense.c **** /*******************************************************************************
 239:.\Generated_Source\PSoC4/CapSense.c **** * Function Name: CapSense_CsdHwBlockInit
 240:.\Generated_Source\PSoC4/CapSense.c **** ********************************************************************************
 241:.\Generated_Source\PSoC4/CapSense.c **** *
 242:.\Generated_Source\PSoC4/CapSense.c **** * Summary:
 243:.\Generated_Source\PSoC4/CapSense.c **** *  Initialises the hardware parameters of the CSD block 
 244:.\Generated_Source\PSoC4/CapSense.c **** *
 245:.\Generated_Source\PSoC4/CapSense.c **** * Parameters:
 246:.\Generated_Source\PSoC4/CapSense.c **** *  None
 247:.\Generated_Source\PSoC4/CapSense.c **** *
 248:.\Generated_Source\PSoC4/CapSense.c **** * Return:
 249:.\Generated_Source\PSoC4/CapSense.c **** *  None
 250:.\Generated_Source\PSoC4/CapSense.c **** *
 251:.\Generated_Source\PSoC4/CapSense.c **** * Global Variables:
 252:.\Generated_Source\PSoC4/CapSense.c **** *  CapSense_csdTrim1 - Contains IDAC trim register value for Sourcing Mode.
 253:.\Generated_Source\PSoC4/CapSense.c **** *  CapSense_csdTrim2 - Contains IDAC trim register value for Sinking Mode.
 254:.\Generated_Source\PSoC4/CapSense.c **** *
 255:.\Generated_Source\PSoC4/CapSense.c **** * Side Effects:
 256:.\Generated_Source\PSoC4/CapSense.c **** *  None
 257:.\Generated_Source\PSoC4/CapSense.c **** * 
 258:.\Generated_Source\PSoC4/CapSense.c **** *******************************************************************************/
 259:.\Generated_Source\PSoC4/CapSense.c **** void CapSense_CsdHwBlockInit(void)
 260:.\Generated_Source\PSoC4/CapSense.c **** {
ARM GAS  C:\Users\kbuchi\AppData\Local\Temp\ccOUPaAd.s 			page 6


  26              		.loc 1 260 0
  27              		.cfi_startproc
  28 0000 38B5     		push	{r3, r4, r5, lr}
  29              		.cfi_def_cfa_offset 16
  30              		.cfi_offset 3, -16
  31              		.cfi_offset 4, -12
  32              		.cfi_offset 5, -8
  33              		.cfi_offset 14, -4
 261:.\Generated_Source\PSoC4/CapSense.c **** 	uint32 newRegValue;
 262:.\Generated_Source\PSoC4/CapSense.c **** 	
 263:.\Generated_Source\PSoC4/CapSense.c **** 	    /* Set trim registers for CSD Mode */
 264:.\Generated_Source\PSoC4/CapSense.c ****     #if (CapSense_IDAC1_POLARITY == CapSense__IDAC_SINK)
 265:.\Generated_Source\PSoC4/CapSense.c **** 		/* iDAC1 Sinking Mode */ 
 266:.\Generated_Source\PSoC4/CapSense.c **** 		CapSense_csdTrim2 = (uint8)CapSense_CSD_TRIM2_REG;
 267:.\Generated_Source\PSoC4/CapSense.c **** 		newRegValue = CapSense_csdTrim2;
 268:.\Generated_Source\PSoC4/CapSense.c **** 		newRegValue &= CapSense_CSD_IDAC1_TRIM_MASK;
 269:.\Generated_Source\PSoC4/CapSense.c **** 		newRegValue |= (uint32)((uint32)CapSense_SFLASH_CSD_TRIM2_REG & (uint32)CapSense_CSFLASH_TRIM_IDA
 270:.\Generated_Source\PSoC4/CapSense.c **** 		
 271:.\Generated_Source\PSoC4/CapSense.c **** 		#if (CapSense_IDAC_CNT == 2u)
 272:.\Generated_Source\PSoC4/CapSense.c **** 		    /* iDAC2 Sinking Mode */ 
 273:.\Generated_Source\PSoC4/CapSense.c **** 			newRegValue &= CapSense_CSD_IDAC2_TRIM_MASK;
 274:.\Generated_Source\PSoC4/CapSense.c **** 			newRegValue |= (uint32)((uint32)CapSense_SFLASH_CSD_TRIM2_REG & (uint32)CapSense_CSFLASH_TRIM_ID
 275:.\Generated_Source\PSoC4/CapSense.c **** 		#endif /* (CapSense_IDAC_CNT == 2u) */
 276:.\Generated_Source\PSoC4/CapSense.c **** 		CapSense_CSD_TRIM2_REG = newRegValue;
 277:.\Generated_Source\PSoC4/CapSense.c ****     #else   
 278:.\Generated_Source\PSoC4/CapSense.c **** 		/* iDAC1 Sourcing Mode */ 
 279:.\Generated_Source\PSoC4/CapSense.c **** 		CapSense_csdTrim1 = (uint8)CapSense_CSD_TRIM1_REG;
  34              		.loc 1 279 0
  35 0002 164B     		ldr	r3, .L2
  36 0004 1968     		ldr	r1, [r3]
  37 0006 C9B2     		uxtb	r1, r1
  38 0008 154A     		ldr	r2, .L2+4
  39 000a 1170     		strb	r1, [r2]
  40              	.LVL0:
 280:.\Generated_Source\PSoC4/CapSense.c **** 		newRegValue = CapSense_csdTrim1;
 281:.\Generated_Source\PSoC4/CapSense.c **** 		newRegValue &= CapSense_CSD_IDAC1_TRIM_MASK;
  41              		.loc 1 281 0
  42 000c 0F22     		mov	r2, #15
  43 000e 0C1C     		mov	r4, r1
  44 0010 9443     		bic	r4, r2
  45              	.LVL1:
 282:.\Generated_Source\PSoC4/CapSense.c **** 		newRegValue |= (uint32)((uint32)CapSense_SFLASH_CSD_TRIM1_REG & (uint32)CapSense_CSFLASH_TRIM_IDA
  46              		.loc 1 282 0
  47 0012 1449     		ldr	r1, .L2+8
  48 0014 0D78     		ldrb	r5, [r1]
  49 0016 0F20     		mov	r0, #15
  50 0018 2840     		and	r0, r5
  51 001a 2043     		orr	r0, r4
  52              	.LVL2:
 283:.\Generated_Source\PSoC4/CapSense.c **** 		#if (CapSense_IDAC_CNT == 2u)
 284:.\Generated_Source\PSoC4/CapSense.c **** 		     /* iDAC2 Sourcing Mode */ 
 285:.\Generated_Source\PSoC4/CapSense.c **** 			newRegValue &= CapSense_CSD_IDAC2_TRIM_MASK;
  53              		.loc 1 285 0
  54 001c F024     		mov	r4, #240
  55 001e A043     		bic	r0, r4
  56              	.LVL3:
 286:.\Generated_Source\PSoC4/CapSense.c **** 			newRegValue |= (uint32)((uint32)CapSense_SFLASH_CSD_TRIM1_REG & (uint32)CapSense_CSFLASH_TRIM_ID
ARM GAS  C:\Users\kbuchi\AppData\Local\Temp\ccOUPaAd.s 			page 7


  57              		.loc 1 286 0
  58 0020 0978     		ldrb	r1, [r1]
  59 0022 9143     		bic	r1, r2
  60 0024 0143     		orr	r1, r0
  61              	.LVL4:
 287:.\Generated_Source\PSoC4/CapSense.c **** 		#endif		
 288:.\Generated_Source\PSoC4/CapSense.c **** 		CapSense_CSD_TRIM1_REG = newRegValue;
  62              		.loc 1 288 0
  63 0026 1960     		str	r1, [r3]
 289:.\Generated_Source\PSoC4/CapSense.c ****     #endif /* (CapSense_IDAC1_POLARITY == CapSense__IDAC_SINK) */
 290:.\Generated_Source\PSoC4/CapSense.c **** 	
 291:.\Generated_Source\PSoC4/CapSense.c **** 	/* Configure CSD and IDAC */
 292:.\Generated_Source\PSoC4/CapSense.c **** 	#if (CapSense_IDAC_CNT > 1u)
 293:.\Generated_Source\PSoC4/CapSense.c **** 		CapSense_CSD_IDAC_REG = CapSense_DEFAULT_CSD_IDAC_CONFIG;
  64              		.loc 1 293 0
  65 0028 0F4A     		ldr	r2, .L2+12
  66 002a 104B     		ldr	r3, .L2+16
  67 002c 1A60     		str	r2, [r3]
 294:.\Generated_Source\PSoC4/CapSense.c **** 		CapSense_CSD_CFG_REG = CapSense_DEFAULT_CSD_CONFIG;
  68              		.loc 1 294 0
  69 002e 104A     		ldr	r2, .L2+20
  70 0030 104B     		ldr	r3, .L2+24
  71 0032 1A60     		str	r2, [r3]
 295:.\Generated_Source\PSoC4/CapSense.c **** 	#else
 296:.\Generated_Source\PSoC4/CapSense.c **** 		CapSense_CSD_IDAC_REG &= ~(CapSense_CSD_IDAC1_MODE_MASK  | CapSense_CSD_IDAC1_DATA_MASK);
 297:.\Generated_Source\PSoC4/CapSense.c **** 		CapSense_CSD_IDAC_REG |= CapSense_DEFAULT_CSD_IDAC_CONFIG;
 298:.\Generated_Source\PSoC4/CapSense.c **** 		
 299:.\Generated_Source\PSoC4/CapSense.c **** 		CapSense_CSD_CFG_REG &= ~(CapSense_CSD_CONFIG_MASK);
 300:.\Generated_Source\PSoC4/CapSense.c **** 		CapSense_CSD_CFG_REG |= (CapSense_DEFAULT_CSD_CONFIG);
 301:.\Generated_Source\PSoC4/CapSense.c **** 	#endif /* (CapSense_IDAC_CNT > 1u) */
 302:.\Generated_Source\PSoC4/CapSense.c **** 	
 303:.\Generated_Source\PSoC4/CapSense.c **** 	
 304:.\Generated_Source\PSoC4/CapSense.c **** 	/* Connect Cmod to AMUX bus */ 
 305:.\Generated_Source\PSoC4/CapSense.c **** 	newRegValue = CapSense_CMOD_CONNECTION_REG; 
  72              		.loc 1 305 0
  73 0034 104B     		ldr	r3, .L2+28
  74 0036 1968     		ldr	r1, [r3]
  75              	.LVL5:
 306:.\Generated_Source\PSoC4/CapSense.c ****     newRegValue &= ~(CapSense_CSD_CMOD_CONNECTION_MASK);
  76              		.loc 1 306 0
  77 0038 104A     		ldr	r2, .L2+32
  78 003a 0A40     		and	r2, r1
  79              	.LVL6:
 307:.\Generated_Source\PSoC4/CapSense.c ****     newRegValue |= CapSense_CSD_CMOD_TO_AMUXBUS_A;
  80              		.loc 1 307 0
  81 003c C021     		mov	r1, #192
  82 003e C900     		lsl	r1, r1, #3
  83 0040 0A43     		orr	r2, r1
  84              	.LVL7:
 308:.\Generated_Source\PSoC4/CapSense.c ****     CapSense_CMOD_CONNECTION_REG = newRegValue;
  85              		.loc 1 308 0
  86 0042 1A60     		str	r2, [r3]
 309:.\Generated_Source\PSoC4/CapSense.c **** 	
 310:.\Generated_Source\PSoC4/CapSense.c **** 	/* Configure Dead Band PWM if it is enabled */
 311:.\Generated_Source\PSoC4/CapSense.c **** 	#if(CapSense_CSD_4B_PWM_MODE != CapSense__PWM_OFF)
 312:.\Generated_Source\PSoC4/CapSense.c **** 		CapSense_CSD_4B_PWM_REG = CapSense_DEFAULT_CSD_4B_PWM_CONFIG;
 313:.\Generated_Source\PSoC4/CapSense.c **** 	#endif /* (CapSense_CSD_4B_PWM_MODE != CapSense__PWM_OFF) */
ARM GAS  C:\Users\kbuchi\AppData\Local\Temp\ccOUPaAd.s 			page 8


 314:.\Generated_Source\PSoC4/CapSense.c **** 
 315:.\Generated_Source\PSoC4/CapSense.c **** 	/* Setup ISR */
 316:.\Generated_Source\PSoC4/CapSense.c **** 	CyIntDisable(CapSense_ISR_NUMBER);
  87              		.loc 1 316 0
  88 0044 0F20     		mov	r0, #15
  89 0046 FFF7FEFF 		bl	CyIntDisable
  90              	.LVL8:
 317:.\Generated_Source\PSoC4/CapSense.c **** 	#if !defined(CY_EXTERNAL_INTERRUPT_CONFIG)		
 318:.\Generated_Source\PSoC4/CapSense.c **** 	    (void)CyIntSetVector(CapSense_ISR_NUMBER, &CapSense_ISR);
  91              		.loc 1 318 0
  92 004a 0F20     		mov	r0, #15
  93 004c 0C49     		ldr	r1, .L2+36
  94 004e FFF7FEFF 		bl	CyIntSetVector
  95              	.LVL9:
 319:.\Generated_Source\PSoC4/CapSense.c **** 	    CyIntSetPriority(CapSense_ISR_NUMBER, CapSense_ISR_PRIORITY);
  96              		.loc 1 319 0
  97 0052 0F20     		mov	r0, #15
  98 0054 0321     		mov	r1, #3
  99 0056 FFF7FEFF 		bl	CyIntSetPriority
 100              	.LVL10:
 320:.\Generated_Source\PSoC4/CapSense.c **** 	#endif /* (CY_EXTERNAL_INTERRUPT_CONFIG) */
 321:.\Generated_Source\PSoC4/CapSense.c **** }
 101              		.loc 1 321 0
 102              		@ sp needed
 103 005a 38BD     		pop	{r3, r4, r5, pc}
 104              	.L3:
 105              		.align	2
 106              	.L2:
 107 005c 00FF0840 		.word	1074331392
 108 0060 00000000 		.word	CapSense_csdTrim1
 109 0064 62F1FF0F 		.word	268431714
 110 0068 00020001 		.word	16777728
 111 006c 08000840 		.word	1074266120
 112 0070 0008A001 		.word	27265024
 113 0074 04000840 		.word	1074266116
 114 0078 10000140 		.word	1073807376
 115 007c FFF0FFFF 		.word	-3841
 116 0080 00000000 		.word	CapSense_ISR
 117              		.cfi_endproc
 118              	.LFE34:
 119              		.size	CapSense_CsdHwBlockInit, .-CapSense_CsdHwBlockInit
 120              		.section	.text.CapSense_Enable,"ax",%progbits
 121              		.align	2
 122              		.global	CapSense_Enable
 123              		.code	16
 124              		.thumb_func
 125              		.type	CapSense_Enable, %function
 126              	CapSense_Enable:
 127              	.LFB35:
 322:.\Generated_Source\PSoC4/CapSense.c **** 
 323:.\Generated_Source\PSoC4/CapSense.c **** 
 324:.\Generated_Source\PSoC4/CapSense.c **** /*******************************************************************************
 325:.\Generated_Source\PSoC4/CapSense.c **** * Function Name: CapSense_Enable
 326:.\Generated_Source\PSoC4/CapSense.c **** ********************************************************************************
 327:.\Generated_Source\PSoC4/CapSense.c **** *
 328:.\Generated_Source\PSoC4/CapSense.c **** * Summary:
 329:.\Generated_Source\PSoC4/CapSense.c **** *  Enables the CSD block and related resources to an active mode.
ARM GAS  C:\Users\kbuchi\AppData\Local\Temp\ccOUPaAd.s 			page 9


 330:.\Generated_Source\PSoC4/CapSense.c **** *
 331:.\Generated_Source\PSoC4/CapSense.c **** * Parameters:
 332:.\Generated_Source\PSoC4/CapSense.c **** *  None
 333:.\Generated_Source\PSoC4/CapSense.c **** *
 334:.\Generated_Source\PSoC4/CapSense.c **** * Return:
 335:.\Generated_Source\PSoC4/CapSense.c **** *  None
 336:.\Generated_Source\PSoC4/CapSense.c **** *
 337:.\Generated_Source\PSoC4/CapSense.c **** * Global Variables:
 338:.\Generated_Source\PSoC4/CapSense.c **** *  None.
 339:.\Generated_Source\PSoC4/CapSense.c **** *
 340:.\Generated_Source\PSoC4/CapSense.c **** * Side Effects:
 341:.\Generated_Source\PSoC4/CapSense.c **** *  None
 342:.\Generated_Source\PSoC4/CapSense.c **** * 
 343:.\Generated_Source\PSoC4/CapSense.c **** *******************************************************************************/
 344:.\Generated_Source\PSoC4/CapSense.c **** void CapSense_Enable(void)
 345:.\Generated_Source\PSoC4/CapSense.c **** {
 128              		.loc 1 345 0
 129              		.cfi_startproc
 130 0000 08B5     		push	{r3, lr}
 131              		.cfi_def_cfa_offset 8
 132              		.cfi_offset 3, -8
 133              		.cfi_offset 14, -4
 346:.\Generated_Source\PSoC4/CapSense.c ****     uint32 newRegValue;
 347:.\Generated_Source\PSoC4/CapSense.c ****     
 348:.\Generated_Source\PSoC4/CapSense.c ****     /* Enable Clocks */
 349:.\Generated_Source\PSoC4/CapSense.c **** 	CapSense_SenseClk_Stop();
 134              		.loc 1 349 0
 135 0002 FFF7FEFF 		bl	CapSense_SenseClk_Stop
 136              	.LVL11:
 350:.\Generated_Source\PSoC4/CapSense.c **** 	CapSense_SampleClk_Stop();
 137              		.loc 1 350 0
 138 0006 FFF7FEFF 		bl	CapSense_SampleClk_Stop
 139              	.LVL12:
 351:.\Generated_Source\PSoC4/CapSense.c **** 	
 352:.\Generated_Source\PSoC4/CapSense.c **** 	CapSense_SampleClk_SetDividerValue((uint16)CapSense_INITIAL_CLK_DIVIDER);
 140              		.loc 1 352 0
 141 000a 0020     		mov	r0, #0
 142 000c 0021     		mov	r1, #0
 143 000e FFF7FEFF 		bl	CapSense_SampleClk_SetFractionalDividerRegister
 144              	.LVL13:
 353:.\Generated_Source\PSoC4/CapSense.c **** 	CapSense_SenseClk_SetDividerValue((uint16)CapSense_INITIAL_CLK_DIVIDER);
 145              		.loc 1 353 0
 146 0012 0020     		mov	r0, #0
 147 0014 0021     		mov	r1, #0
 148 0016 FFF7FEFF 		bl	CapSense_SenseClk_SetFractionalDividerRegister
 149              	.LVL14:
 354:.\Generated_Source\PSoC4/CapSense.c **** 	
 355:.\Generated_Source\PSoC4/CapSense.c **** 	#if (0u == CapSense_IS_M0S8PERI_BLOCK)
 356:.\Generated_Source\PSoC4/CapSense.c **** 		CapSense_SenseClk_Start();
 150              		.loc 1 356 0
 151 001a FFF7FEFF 		bl	CapSense_SenseClk_Start
 152              	.LVL15:
 357:.\Generated_Source\PSoC4/CapSense.c **** 		CapSense_SampleClk_Start();
 153              		.loc 1 357 0
 154 001e FFF7FEFF 		bl	CapSense_SampleClk_Start
 155              	.LVL16:
 358:.\Generated_Source\PSoC4/CapSense.c **** 	#else
ARM GAS  C:\Users\kbuchi\AppData\Local\Temp\ccOUPaAd.s 			page 10


 359:.\Generated_Source\PSoC4/CapSense.c **** 		CapSense_SampleClk_Start();
 360:.\Generated_Source\PSoC4/CapSense.c **** 		CapSense_SenseClk_StartEx(CapSense_SampleClk__DIV_ID);
 361:.\Generated_Source\PSoC4/CapSense.c **** 	#endif /* (0u == CapSense_IS_M0S8PERI_BLOCK) */
 362:.\Generated_Source\PSoC4/CapSense.c **** 	
 363:.\Generated_Source\PSoC4/CapSense.c **** 	/* Enable the CSD block */
 364:.\Generated_Source\PSoC4/CapSense.c ****     newRegValue = CapSense_CSD_CFG_REG;
 156              		.loc 1 364 0
 157 0022 044B     		ldr	r3, .L5
 158 0024 1A68     		ldr	r2, [r3]
 159              	.LVL17:
 365:.\Generated_Source\PSoC4/CapSense.c ****     newRegValue |= (CapSense_CSD_CFG_ENABLE | CapSense_CSD_CFG_SENSE_COMP_EN 
 160              		.loc 1 365 0
 161 0026 0449     		ldr	r1, .L5+4
 162 0028 0A43     		orr	r2, r1
 163              	.LVL18:
 366:.\Generated_Source\PSoC4/CapSense.c ****                                                    | CapSense_CSD_CFG_SENSE_EN);    
 367:.\Generated_Source\PSoC4/CapSense.c ****     CapSense_CSD_CFG_REG = newRegValue;
 164              		.loc 1 367 0
 165 002a 1A60     		str	r2, [r3]
 368:.\Generated_Source\PSoC4/CapSense.c **** 
 369:.\Generated_Source\PSoC4/CapSense.c ****     /* Enable interrupt */
 370:.\Generated_Source\PSoC4/CapSense.c ****     CyIntEnable(CapSense_ISR_NUMBER);
 166              		.loc 1 370 0
 167 002c 0F20     		mov	r0, #15
 168 002e FFF7FEFF 		bl	CyIntEnable
 169              	.LVL19:
 371:.\Generated_Source\PSoC4/CapSense.c **** }
 170              		.loc 1 371 0
 171              		@ sp needed
 172 0032 08BD     		pop	{r3, pc}
 173              	.L6:
 174              		.align	2
 175              	.L5:
 176 0034 04000840 		.word	1074266116
 177 0038 00100880 		.word	-2146955264
 178              		.cfi_endproc
 179              	.LFE35:
 180              		.size	CapSense_Enable, .-CapSense_Enable
 181              		.section	.text.CapSense_Stop,"ax",%progbits
 182              		.align	2
 183              		.global	CapSense_Stop
 184              		.code	16
 185              		.thumb_func
 186              		.type	CapSense_Stop, %function
 187              	CapSense_Stop:
 188              	.LFB37:
 372:.\Generated_Source\PSoC4/CapSense.c **** 
 373:.\Generated_Source\PSoC4/CapSense.c **** 
 374:.\Generated_Source\PSoC4/CapSense.c **** /*******************************************************************************
 375:.\Generated_Source\PSoC4/CapSense.c **** * Function Name: CapSense_Start
 376:.\Generated_Source\PSoC4/CapSense.c **** ********************************************************************************
 377:.\Generated_Source\PSoC4/CapSense.c **** *
 378:.\Generated_Source\PSoC4/CapSense.c **** * Summary:
 379:.\Generated_Source\PSoC4/CapSense.c **** *  This is the preferred method to begin the component operation. CapSense_Start() 
 380:.\Generated_Source\PSoC4/CapSense.c **** *  calls the CapSense_Init() function, and then calls the CapSense_Enable() 
 381:.\Generated_Source\PSoC4/CapSense.c **** *  function. Initializes the registers and starts the CSD method of the CapSense 
 382:.\Generated_Source\PSoC4/CapSense.c **** *  component. Resets all the sensors to an inactive state. Enables interrupts for 
ARM GAS  C:\Users\kbuchi\AppData\Local\Temp\ccOUPaAd.s 			page 11


 383:.\Generated_Source\PSoC4/CapSense.c **** *  sensors scanning. When the SmartSense tuning mode is selected, the tuning procedure
 384:.\Generated_Source\PSoC4/CapSense.c **** *  is applied for all the sensors. The CapSense_Start() routine must be called before 
 385:.\Generated_Source\PSoC4/CapSense.c **** *  any other API routines.
 386:.\Generated_Source\PSoC4/CapSense.c **** *
 387:.\Generated_Source\PSoC4/CapSense.c **** * Parameters:
 388:.\Generated_Source\PSoC4/CapSense.c **** *  None
 389:.\Generated_Source\PSoC4/CapSense.c **** *
 390:.\Generated_Source\PSoC4/CapSense.c **** * Return:
 391:.\Generated_Source\PSoC4/CapSense.c **** *  None
 392:.\Generated_Source\PSoC4/CapSense.c **** *
 393:.\Generated_Source\PSoC4/CapSense.c **** * Global Variables:
 394:.\Generated_Source\PSoC4/CapSense.c **** *   CapSense_initVar - used to check the initial configuration, 
 395:.\Generated_Source\PSoC4/CapSense.c **** *   modified on the first function call.
 396:.\Generated_Source\PSoC4/CapSense.c **** *  CapSense_lowLevelTuningDone - Used to notify the Tuner GUI that 
 397:.\Generated_Source\PSoC4/CapSense.c **** *   tuning of the scanning parameters is done. 
 398:.\Generated_Source\PSoC4/CapSense.c **** *
 399:.\Generated_Source\PSoC4/CapSense.c **** * Side Effects:
 400:.\Generated_Source\PSoC4/CapSense.c **** *  None
 401:.\Generated_Source\PSoC4/CapSense.c **** * 
 402:.\Generated_Source\PSoC4/CapSense.c **** *******************************************************************************/
 403:.\Generated_Source\PSoC4/CapSense.c **** void CapSense_Start(void)
 404:.\Generated_Source\PSoC4/CapSense.c **** {
 405:.\Generated_Source\PSoC4/CapSense.c **** 
 406:.\Generated_Source\PSoC4/CapSense.c **** 	static uint8 CapSense_initVar = 0u;
 407:.\Generated_Source\PSoC4/CapSense.c **** 
 408:.\Generated_Source\PSoC4/CapSense.c **** 	#if((0u != CapSense_AUTOCALIBRATION_ENABLE) && (CapSense_TUNING_METHOD != CapSense__TUNING_AUTO))
 409:.\Generated_Source\PSoC4/CapSense.c **** 		uint32 curSensor;
 410:.\Generated_Source\PSoC4/CapSense.c **** 		uint32 rawLevel;
 411:.\Generated_Source\PSoC4/CapSense.c **** 		uint32 widget;
 412:.\Generated_Source\PSoC4/CapSense.c ****     #endif /* ((0u != CapSense_AUTOCALIBRATION_ENABLE) && (CapSense_TUNING_METHOD != CapSense__TUNI
 413:.\Generated_Source\PSoC4/CapSense.c **** 	
 414:.\Generated_Source\PSoC4/CapSense.c ****     if (CapSense_initVar == 0u)
 415:.\Generated_Source\PSoC4/CapSense.c ****     {
 416:.\Generated_Source\PSoC4/CapSense.c ****         CapSense_Init();
 417:.\Generated_Source\PSoC4/CapSense.c ****         CapSense_initVar = 1u;
 418:.\Generated_Source\PSoC4/CapSense.c ****     }
 419:.\Generated_Source\PSoC4/CapSense.c ****     CapSense_Enable();
 420:.\Generated_Source\PSoC4/CapSense.c **** 	
 421:.\Generated_Source\PSoC4/CapSense.c ****     /* AutoTunning start */
 422:.\Generated_Source\PSoC4/CapSense.c ****     #if(CapSense_TUNING_METHOD == CapSense__TUNING_AUTO)
 423:.\Generated_Source\PSoC4/CapSense.c **** 		#if(0u != CapSense_CSHL_API_GENERATE)
 424:.\Generated_Source\PSoC4/CapSense.c **** 	        CapSense_AutoTune();
 425:.\Generated_Source\PSoC4/CapSense.c **** 	        CapSense_lowLevelTuningDone = 1u;
 426:.\Generated_Source\PSoC4/CapSense.c **** 		#endif /* (0u != CapSense_CSHL_API_GENERATE) */
 427:.\Generated_Source\PSoC4/CapSense.c **** 	#else
 428:.\Generated_Source\PSoC4/CapSense.c **** 		#if(0u != CapSense_AUTOCALIBRATION_ENABLE)
 429:.\Generated_Source\PSoC4/CapSense.c **** 			
 430:.\Generated_Source\PSoC4/CapSense.c **** 			#if(CapSense_IDAC_CNT > 1u)
 431:.\Generated_Source\PSoC4/CapSense.c **** 				CapSense_CSD_IDAC_REG &= ~(CapSense_CSD_IDAC2_MODE_MASK);	
 432:.\Generated_Source\PSoC4/CapSense.c **** 			#endif /* (CapSense_IDAC_CNT > 1u) */
 433:.\Generated_Source\PSoC4/CapSense.c **** 			
 434:.\Generated_Source\PSoC4/CapSense.c **** 			for(curSensor = 0u; curSensor < CapSense_TOTAL_SCANSLOT_COUNT; curSensor++)
 435:.\Generated_Source\PSoC4/CapSense.c **** 			{
 436:.\Generated_Source\PSoC4/CapSense.c **** 				widget = CapSense_widgetNumber[curSensor];
 437:.\Generated_Source\PSoC4/CapSense.c **** 				rawLevel = CapSense_widgetResolution[widget] >> CapSense_RESOLUTION_OFFSET;
 438:.\Generated_Source\PSoC4/CapSense.c **** 				
 439:.\Generated_Source\PSoC4/CapSense.c **** 				/* Calibration level should be equal to 85% from scanning resolution */
ARM GAS  C:\Users\kbuchi\AppData\Local\Temp\ccOUPaAd.s 			page 12


 440:.\Generated_Source\PSoC4/CapSense.c **** 				rawLevel = (rawLevel * 85u) / 100u;
 441:.\Generated_Source\PSoC4/CapSense.c **** 				
 442:.\Generated_Source\PSoC4/CapSense.c **** 				CapSense_CalibrateSensor(curSensor, rawLevel, CapSense_modulationIDAC);
 443:.\Generated_Source\PSoC4/CapSense.c **** 			}
 444:.\Generated_Source\PSoC4/CapSense.c **** 
 445:.\Generated_Source\PSoC4/CapSense.c **** 			#if(0u != CapSense_TOTAL_CENTROIDS_COUNT) 
 446:.\Generated_Source\PSoC4/CapSense.c **** 				CapSense_NormalizeWidgets(CapSense_END_OF_WIDGETS_INDEX, CapSense_modulationIDAC);
 447:.\Generated_Source\PSoC4/CapSense.c **** 			#endif /* (0u != CapSense_TOTAL_CENTROIDS_COUNT)  */
 448:.\Generated_Source\PSoC4/CapSense.c **** 
 449:.\Generated_Source\PSoC4/CapSense.c **** 			#if(CapSense_IDAC_CNT > 1u)
 450:.\Generated_Source\PSoC4/CapSense.c **** 				for(curSensor = 0u; curSensor < CapSense_TOTAL_SCANSLOT_COUNT; curSensor++)
 451:.\Generated_Source\PSoC4/CapSense.c **** 			    {
 452:.\Generated_Source\PSoC4/CapSense.c **** 					CapSense_compensationIDAC[curSensor] = CapSense_modulationIDAC[curSensor] / 2u;
 453:.\Generated_Source\PSoC4/CapSense.c **** 					CapSense_modulationIDAC[curSensor] = (CapSense_modulationIDAC[curSensor] + 1u) / 2u;
 454:.\Generated_Source\PSoC4/CapSense.c **** 			    }
 455:.\Generated_Source\PSoC4/CapSense.c **** 				CapSense_CSD_IDAC_REG |= CapSense_CSD_IDAC2_MODE_FIXED;
 456:.\Generated_Source\PSoC4/CapSense.c **** 			#endif /* (CapSense_IDAC_CNT > 1u) */
 457:.\Generated_Source\PSoC4/CapSense.c **** 			
 458:.\Generated_Source\PSoC4/CapSense.c ****         #endif /* (0u != CapSense_AUTOCALIBRATION_ENABLE) */ 
 459:.\Generated_Source\PSoC4/CapSense.c **** 					
 460:.\Generated_Source\PSoC4/CapSense.c ****     #endif /* ((CapSense_TUNING_METHOD == CapSense__TUNING_AUTO) */	
 461:.\Generated_Source\PSoC4/CapSense.c **** 	
 462:.\Generated_Source\PSoC4/CapSense.c **** 	/* Initialize Advanced Centroid */
 463:.\Generated_Source\PSoC4/CapSense.c **** 	#if(CapSense_TOTAL_TRACKPAD_GESTURES_COUNT > 0u)
 464:.\Generated_Source\PSoC4/CapSense.c **** 		CapSense_AdvancedCentroidInit();
 465:.\Generated_Source\PSoC4/CapSense.c **** 	#endif /* (CapSense_TOTAL_TRACKPAD_GESTURES_COUNT > 0u) */
 466:.\Generated_Source\PSoC4/CapSense.c **** 	
 467:.\Generated_Source\PSoC4/CapSense.c **** 	/* Connect sense comparator input to AMUXA */
 468:.\Generated_Source\PSoC4/CapSense.c **** 	CapSense_CSD_CFG_REG |= CapSense_CSD_CFG_SENSE_INSEL;
 469:.\Generated_Source\PSoC4/CapSense.c **** }
 470:.\Generated_Source\PSoC4/CapSense.c **** 
 471:.\Generated_Source\PSoC4/CapSense.c **** 
 472:.\Generated_Source\PSoC4/CapSense.c **** /*******************************************************************************
 473:.\Generated_Source\PSoC4/CapSense.c **** * Function Name: CapSense_Stop
 474:.\Generated_Source\PSoC4/CapSense.c **** ********************************************************************************
 475:.\Generated_Source\PSoC4/CapSense.c **** *
 476:.\Generated_Source\PSoC4/CapSense.c **** * Summary:
 477:.\Generated_Source\PSoC4/CapSense.c **** *  Stops the sensor scanning, disables component interrupts, and resets all the 
 478:.\Generated_Source\PSoC4/CapSense.c **** *  sensors to an inactive state. Disables the Active mode power template bits for
 479:.\Generated_Source\PSoC4/CapSense.c **** *  the subcomponents used within CapSense.
 480:.\Generated_Source\PSoC4/CapSense.c **** *
 481:.\Generated_Source\PSoC4/CapSense.c **** * Parameters:
 482:.\Generated_Source\PSoC4/CapSense.c **** *  None
 483:.\Generated_Source\PSoC4/CapSense.c **** *
 484:.\Generated_Source\PSoC4/CapSense.c **** * Return:
 485:.\Generated_Source\PSoC4/CapSense.c **** *  None
 486:.\Generated_Source\PSoC4/CapSense.c **** *
 487:.\Generated_Source\PSoC4/CapSense.c **** * Global Variables:
 488:.\Generated_Source\PSoC4/CapSense.c **** *  CapSense_csdTrim1 - Contains the IDAC trim register value for the Sourcing Mode.
 489:.\Generated_Source\PSoC4/CapSense.c **** *  CapSense_csdTrim2 - Contains the IDAC trim register value for vSinking Mode.
 490:.\Generated_Source\PSoC4/CapSense.c **** *
 491:.\Generated_Source\PSoC4/CapSense.c **** * Side Effects:
 492:.\Generated_Source\PSoC4/CapSense.c **** *  This function should be called after scans are completed.
 493:.\Generated_Source\PSoC4/CapSense.c **** *
 494:.\Generated_Source\PSoC4/CapSense.c **** *******************************************************************************/
 495:.\Generated_Source\PSoC4/CapSense.c **** void CapSense_Stop(void)
 496:.\Generated_Source\PSoC4/CapSense.c **** {
ARM GAS  C:\Users\kbuchi\AppData\Local\Temp\ccOUPaAd.s 			page 13


 189              		.loc 1 496 0
 190              		.cfi_startproc
 191 0000 08B5     		push	{r3, lr}
 192              		.cfi_def_cfa_offset 8
 193              		.cfi_offset 3, -8
 194              		.cfi_offset 14, -4
 497:.\Generated_Source\PSoC4/CapSense.c ****     /* Disable interrupt */
 498:.\Generated_Source\PSoC4/CapSense.c ****     CyIntDisable(CapSense_ISR_NUMBER);
 195              		.loc 1 498 0
 196 0002 0F20     		mov	r0, #15
 197 0004 FFF7FEFF 		bl	CyIntDisable
 198              	.LVL20:
 499:.\Generated_Source\PSoC4/CapSense.c **** 	
 500:.\Generated_Source\PSoC4/CapSense.c **** 	CapSense_CSD_CFG_REG &= ~(CapSense_CSD_CFG_SENSE_COMP_EN | CapSense_CSD_CFG_SENSE_EN);
 199              		.loc 1 500 0
 200 0008 064B     		ldr	r3, .L8
 201 000a 1968     		ldr	r1, [r3]
 202 000c 064A     		ldr	r2, .L8+4
 203 000e 0A40     		and	r2, r1
 204 0010 1A60     		str	r2, [r3]
 501:.\Generated_Source\PSoC4/CapSense.c **** 	
 502:.\Generated_Source\PSoC4/CapSense.c **** 	#if(CapSense_IDAC_CNT == 2u)
 503:.\Generated_Source\PSoC4/CapSense.c **** 		CapSense_CSD_CFG_REG &= ~(CapSense_CSD_CFG_ENABLE);
 205              		.loc 1 503 0
 206 0012 1A68     		ldr	r2, [r3]
 207 0014 5200     		lsl	r2, r2, #1
 208 0016 5208     		lsr	r2, r2, #1
 209 0018 1A60     		str	r2, [r3]
 504:.\Generated_Source\PSoC4/CapSense.c **** 	#endif /* (CapSense_IDAC_CNT == 2u) */
 505:.\Generated_Source\PSoC4/CapSense.c **** 
 506:.\Generated_Source\PSoC4/CapSense.c ****     /* Disable the Clocks */
 507:.\Generated_Source\PSoC4/CapSense.c ****     CapSense_SenseClk_Stop();
 210              		.loc 1 507 0
 211 001a FFF7FEFF 		bl	CapSense_SenseClk_Stop
 212              	.LVL21:
 508:.\Generated_Source\PSoC4/CapSense.c ****     CapSense_SampleClk_Stop();
 213              		.loc 1 508 0
 214 001e FFF7FEFF 		bl	CapSense_SampleClk_Stop
 215              	.LVL22:
 509:.\Generated_Source\PSoC4/CapSense.c **** }
 216              		.loc 1 509 0
 217              		@ sp needed
 218 0022 08BD     		pop	{r3, pc}
 219              	.L9:
 220              		.align	2
 221              	.L8:
 222 0024 04000840 		.word	1074266116
 223 0028 FFEFF7FF 		.word	-528385
 224              		.cfi_endproc
 225              	.LFE37:
 226              		.size	CapSense_Stop, .-CapSense_Stop
 227              		.section	.text.CapSense_IsBusy,"ax",%progbits
 228              		.align	2
 229              		.global	CapSense_IsBusy
 230              		.code	16
 231              		.thumb_func
 232              		.type	CapSense_IsBusy, %function
ARM GAS  C:\Users\kbuchi\AppData\Local\Temp\ccOUPaAd.s 			page 14


 233              	CapSense_IsBusy:
 234              	.LFB42:
 510:.\Generated_Source\PSoC4/CapSense.c **** 
 511:.\Generated_Source\PSoC4/CapSense.c **** 
 512:.\Generated_Source\PSoC4/CapSense.c **** /*******************************************************************************
 513:.\Generated_Source\PSoC4/CapSense.c **** * Function Name: CapSense_FindNextSensor
 514:.\Generated_Source\PSoC4/CapSense.c **** ********************************************************************************
 515:.\Generated_Source\PSoC4/CapSense.c **** *
 516:.\Generated_Source\PSoC4/CapSense.c **** * Summary:
 517:.\Generated_Source\PSoC4/CapSense.c **** *  Finds the next sensor to scan. 
 518:.\Generated_Source\PSoC4/CapSense.c **** *
 519:.\Generated_Source\PSoC4/CapSense.c **** * Parameters:
 520:.\Generated_Source\PSoC4/CapSense.c **** *  snsIndex:  Current index of sensor.
 521:.\Generated_Source\PSoC4/CapSense.c **** *
 522:.\Generated_Source\PSoC4/CapSense.c **** * Return:
 523:.\Generated_Source\PSoC4/CapSense.c **** *  Returns the next sensor index to scan.
 524:.\Generated_Source\PSoC4/CapSense.c **** *
 525:.\Generated_Source\PSoC4/CapSense.c **** * Global Variables:
 526:.\Generated_Source\PSoC4/CapSense.c **** *  CapSense_sensorEnableMask[] - used to store bit masks of the enabled sensors.
 527:.\Generated_Source\PSoC4/CapSense.c **** *
 528:.\Generated_Source\PSoC4/CapSense.c **** * Side Effects:
 529:.\Generated_Source\PSoC4/CapSense.c **** *  This function affects the  current scanning and should not
 530:.\Generated_Source\PSoC4/CapSense.c **** *  be used outside the component.
 531:.\Generated_Source\PSoC4/CapSense.c **** *
 532:.\Generated_Source\PSoC4/CapSense.c **** *******************************************************************************/
 533:.\Generated_Source\PSoC4/CapSense.c **** uint8 CapSense_FindNextSensor(uint8 snsIndex)
 534:.\Generated_Source\PSoC4/CapSense.c **** {
 535:.\Generated_Source\PSoC4/CapSense.c ****     uint32 enableFlag;
 536:.\Generated_Source\PSoC4/CapSense.c ****     
 537:.\Generated_Source\PSoC4/CapSense.c ****     /* Check if sensor enabled */
 538:.\Generated_Source\PSoC4/CapSense.c ****     do
 539:.\Generated_Source\PSoC4/CapSense.c ****     {
 540:.\Generated_Source\PSoC4/CapSense.c ****         /* Proceed with next sensor */
 541:.\Generated_Source\PSoC4/CapSense.c ****         snsIndex++;
 542:.\Generated_Source\PSoC4/CapSense.c ****         if(snsIndex == CapSense_TOTAL_SENSOR_COUNT)
 543:.\Generated_Source\PSoC4/CapSense.c ****         {
 544:.\Generated_Source\PSoC4/CapSense.c ****             break;
 545:.\Generated_Source\PSoC4/CapSense.c ****         }
 546:.\Generated_Source\PSoC4/CapSense.c ****         enableFlag = CapSense_GetBitValue(CapSense_sensorEnableMask, (uint32)snsIndex);
 547:.\Generated_Source\PSoC4/CapSense.c ****     }    
 548:.\Generated_Source\PSoC4/CapSense.c ****     while(enableFlag == 0u);
 549:.\Generated_Source\PSoC4/CapSense.c ****     
 550:.\Generated_Source\PSoC4/CapSense.c ****     return ((uint8)snsIndex);
 551:.\Generated_Source\PSoC4/CapSense.c **** }
 552:.\Generated_Source\PSoC4/CapSense.c **** 
 553:.\Generated_Source\PSoC4/CapSense.c **** 
 554:.\Generated_Source\PSoC4/CapSense.c **** /*******************************************************************************
 555:.\Generated_Source\PSoC4/CapSense.c **** * Function Name: CapSense_ScanSensor
 556:.\Generated_Source\PSoC4/CapSense.c **** ********************************************************************************
 557:.\Generated_Source\PSoC4/CapSense.c **** *
 558:.\Generated_Source\PSoC4/CapSense.c **** * Summary:
 559:.\Generated_Source\PSoC4/CapSense.c **** *  Sets the scan settings and starts scanning a sensor. After scanning is complete,
 560:.\Generated_Source\PSoC4/CapSense.c **** *  the ISR copies the measured sensor raw data to the global raw sensor array. 
 561:.\Generated_Source\PSoC4/CapSense.c **** *  Use of the ISR ensures this function is non-blocking. 
 562:.\Generated_Source\PSoC4/CapSense.c **** *  Each sensor has a unique number within the sensor array. 
 563:.\Generated_Source\PSoC4/CapSense.c **** *  This number is assigned by the CapSense customizer in sequence.
 564:.\Generated_Source\PSoC4/CapSense.c **** *
ARM GAS  C:\Users\kbuchi\AppData\Local\Temp\ccOUPaAd.s 			page 15


 565:.\Generated_Source\PSoC4/CapSense.c **** * Parameters:
 566:.\Generated_Source\PSoC4/CapSense.c **** *  sensor:  Sensor number.
 567:.\Generated_Source\PSoC4/CapSense.c **** *
 568:.\Generated_Source\PSoC4/CapSense.c **** * Return:
 569:.\Generated_Source\PSoC4/CapSense.c **** *  None
 570:.\Generated_Source\PSoC4/CapSense.c **** *
 571:.\Generated_Source\PSoC4/CapSense.c **** * Global Variables:
 572:.\Generated_Source\PSoC4/CapSense.c **** *  CapSense_csdStatusVar - used to provide the status and mode of the scanning process. 
 573:.\Generated_Source\PSoC4/CapSense.c **** *  Sets the busy status(scan in progress) and mode of scan as single scan.
 574:.\Generated_Source\PSoC4/CapSense.c **** *  CapSense_sensorIndex - used to store a sensor scanning sensor number.
 575:.\Generated_Source\PSoC4/CapSense.c **** *  Sets to the provided sensor argument.
 576:.\Generated_Source\PSoC4/CapSense.c **** *
 577:.\Generated_Source\PSoC4/CapSense.c **** * Side Effects:
 578:.\Generated_Source\PSoC4/CapSense.c **** *  None
 579:.\Generated_Source\PSoC4/CapSense.c **** * 
 580:.\Generated_Source\PSoC4/CapSense.c **** *******************************************************************************/
 581:.\Generated_Source\PSoC4/CapSense.c **** void CapSense_ScanSensor(uint32 sensor)
 582:.\Generated_Source\PSoC4/CapSense.c **** {
 583:.\Generated_Source\PSoC4/CapSense.c ****     /* Clears status/control variable and set sensorIndex */
 584:.\Generated_Source\PSoC4/CapSense.c ****     CapSense_csdStatusVar = 0u;
 585:.\Generated_Source\PSoC4/CapSense.c ****     CapSense_sensorIndex = (uint8)sensor;
 586:.\Generated_Source\PSoC4/CapSense.c ****     
 587:.\Generated_Source\PSoC4/CapSense.c ****     /* Start of sensor scan */
 588:.\Generated_Source\PSoC4/CapSense.c ****     CapSense_csdStatusVar = (CapSense_SW_STS_BUSY | CapSense_SW_CTRL_SINGLE_SCAN);
 589:.\Generated_Source\PSoC4/CapSense.c ****     CapSense_PreScan(sensor);
 590:.\Generated_Source\PSoC4/CapSense.c **** }
 591:.\Generated_Source\PSoC4/CapSense.c **** 
 592:.\Generated_Source\PSoC4/CapSense.c **** 
 593:.\Generated_Source\PSoC4/CapSense.c **** #if(0u != CapSense_CSHL_API_GENERATE)
 594:.\Generated_Source\PSoC4/CapSense.c **** /*******************************************************************************
 595:.\Generated_Source\PSoC4/CapSense.c **** * Function Name: CapSense_ScanWidget
 596:.\Generated_Source\PSoC4/CapSense.c **** ********************************************************************************
 597:.\Generated_Source\PSoC4/CapSense.c **** *
 598:.\Generated_Source\PSoC4/CapSense.c **** * Summary:
 599:.\Generated_Source\PSoC4/CapSense.c **** *  Sets the scan settings and starts scanning a widget.
 600:.\Generated_Source\PSoC4/CapSense.c **** *
 601:.\Generated_Source\PSoC4/CapSense.c **** * Parameters:
 602:.\Generated_Source\PSoC4/CapSense.c **** *  uint32 widget: Widget number.
 603:.\Generated_Source\PSoC4/CapSense.c **** *
 604:.\Generated_Source\PSoC4/CapSense.c **** * Return:
 605:.\Generated_Source\PSoC4/CapSense.c **** *  None
 606:.\Generated_Source\PSoC4/CapSense.c **** *
 607:.\Generated_Source\PSoC4/CapSense.c **** * Global Variables:
 608:.\Generated_Source\PSoC4/CapSense.c **** *  CapSense_csdStatusVar - used to provide the status and mode of the scanning process. 
 609:.\Generated_Source\PSoC4/CapSense.c **** *  Sets the busy status(scan in progress) and clears the single scan mode.
 610:.\Generated_Source\PSoC4/CapSense.c **** *  CapSense_sensorIndex - used to store a sensor scanning sensor number.
 611:.\Generated_Source\PSoC4/CapSense.c **** *  Sets to 0xFF and provided to function CapSense_FindNextSensor or
 612:.\Generated_Source\PSoC4/CapSense.c **** *  CapSense_sensorEnableMask[] - used to store bit masks of the enabled sensors.
 613:.\Generated_Source\PSoC4/CapSense.c **** *  CapSense_sensorEnableMaskBackup[] - used to backup bit masks of the enabled
 614:.\Generated_Source\PSoC4/CapSense.c **** *   sensors.
 615:.\Generated_Source\PSoC4/CapSense.c **** *
 616:.\Generated_Source\PSoC4/CapSense.c **** * Side Effects:
 617:.\Generated_Source\PSoC4/CapSense.c **** *  None
 618:.\Generated_Source\PSoC4/CapSense.c **** * 
 619:.\Generated_Source\PSoC4/CapSense.c **** *******************************************************************************/
 620:.\Generated_Source\PSoC4/CapSense.c **** void CapSense_ScanWidget(uint32 widget)
 621:.\Generated_Source\PSoC4/CapSense.c **** {
ARM GAS  C:\Users\kbuchi\AppData\Local\Temp\ccOUPaAd.s 			page 16


 622:.\Generated_Source\PSoC4/CapSense.c ****     uint32 sensorsPerWidget;
 623:.\Generated_Source\PSoC4/CapSense.c ****     uint32 lastSensor;
 624:.\Generated_Source\PSoC4/CapSense.c ****     uint32 snsIndex;
 625:.\Generated_Source\PSoC4/CapSense.c **** 
 626:.\Generated_Source\PSoC4/CapSense.c **** 	/* Get first sensor in widget */
 627:.\Generated_Source\PSoC4/CapSense.c **** 	CapSense_sensorIndex = CapSense_rawDataIndex[widget];
 628:.\Generated_Source\PSoC4/CapSense.c **** 	
 629:.\Generated_Source\PSoC4/CapSense.c **** 	/* Get number of sensors in widget */
 630:.\Generated_Source\PSoC4/CapSense.c **** 	sensorsPerWidget = CapSense_numberOfSensors[widget];
 631:.\Generated_Source\PSoC4/CapSense.c **** 	
 632:.\Generated_Source\PSoC4/CapSense.c **** 	/* Check if generic Sensor */
 633:.\Generated_Source\PSoC4/CapSense.c **** 	if(sensorsPerWidget == 0u)
 634:.\Generated_Source\PSoC4/CapSense.c **** 	{
 635:.\Generated_Source\PSoC4/CapSense.c **** 		sensorsPerWidget = 1u;
 636:.\Generated_Source\PSoC4/CapSense.c **** 	}
 637:.\Generated_Source\PSoC4/CapSense.c **** 	
 638:.\Generated_Source\PSoC4/CapSense.c **** 	/* Get last sensor in widget */
 639:.\Generated_Source\PSoC4/CapSense.c **** 	lastSensor = (CapSense_rawDataIndex[widget] + sensorsPerWidget) - 1u;
 640:.\Generated_Source\PSoC4/CapSense.c **** 
 641:.\Generated_Source\PSoC4/CapSense.c **** 	/* Backup sensorEnableMask array */
 642:.\Generated_Source\PSoC4/CapSense.c **** 	for(snsIndex = 0u; snsIndex < CapSense_TOTAL_SENSOR_MASK; snsIndex++)
 643:.\Generated_Source\PSoC4/CapSense.c **** 	{
 644:.\Generated_Source\PSoC4/CapSense.c **** 		/* Backup sensorEnableMask array */
 645:.\Generated_Source\PSoC4/CapSense.c **** 		CapSense_sensorEnableMaskBackup[snsIndex] = CapSense_sensorEnableMask[snsIndex];
 646:.\Generated_Source\PSoC4/CapSense.c **** 	}
 647:.\Generated_Source\PSoC4/CapSense.c **** 
 648:.\Generated_Source\PSoC4/CapSense.c **** 	/* Update sensorEnableMask to scan the sensors that belong to widget */
 649:.\Generated_Source\PSoC4/CapSense.c **** 	for(snsIndex = 0u; snsIndex < CapSense_TOTAL_SENSOR_COUNT; snsIndex++)
 650:.\Generated_Source\PSoC4/CapSense.c **** 	{
 651:.\Generated_Source\PSoC4/CapSense.c **** 		/* Update sensorEnableMask array bits to scan the widget only */ 
 652:.\Generated_Source\PSoC4/CapSense.c **** 	    if((snsIndex >= CapSense_sensorIndex) && (snsIndex <= lastSensor))
 653:.\Generated_Source\PSoC4/CapSense.c **** 		{
 654:.\Generated_Source\PSoC4/CapSense.c **** 		    /* Set sensor bit to scan */
 655:.\Generated_Source\PSoC4/CapSense.c **** 			CapSense_SetBitValue(CapSense_sensorEnableMask, snsIndex, 1u);
 656:.\Generated_Source\PSoC4/CapSense.c **** 		}
 657:.\Generated_Source\PSoC4/CapSense.c **** 		else
 658:.\Generated_Source\PSoC4/CapSense.c **** 		{
 659:.\Generated_Source\PSoC4/CapSense.c **** 		    /* Reset sensor bit to do not scan */
 660:.\Generated_Source\PSoC4/CapSense.c **** 		    CapSense_SetBitValue(CapSense_sensorEnableMask, snsIndex, 0u);
 661:.\Generated_Source\PSoC4/CapSense.c **** 		}
 662:.\Generated_Source\PSoC4/CapSense.c **** 	}
 663:.\Generated_Source\PSoC4/CapSense.c **** 
 664:.\Generated_Source\PSoC4/CapSense.c ****     /* Check end of scan condition */
 665:.\Generated_Source\PSoC4/CapSense.c ****     if(CapSense_sensorIndex < CapSense_TOTAL_SENSOR_COUNT)
 666:.\Generated_Source\PSoC4/CapSense.c ****     {
 667:.\Generated_Source\PSoC4/CapSense.c **** 		/* Set widget busy bit in status/control variable*/ 
 668:.\Generated_Source\PSoC4/CapSense.c **** 		CapSense_csdStatusVar = (CapSense_SW_STS_BUSY | CapSense_SW_CTRL_WIDGET_SCAN);
 669:.\Generated_Source\PSoC4/CapSense.c **** 		/* Scan first sensor of widget*/ 
 670:.\Generated_Source\PSoC4/CapSense.c ****         CapSense_PreScan((uint32)CapSense_sensorIndex);
 671:.\Generated_Source\PSoC4/CapSense.c ****     }
 672:.\Generated_Source\PSoC4/CapSense.c **** }
 673:.\Generated_Source\PSoC4/CapSense.c **** #endif /* (0u != CapSense_CSHL_API_GENERATE) */
 674:.\Generated_Source\PSoC4/CapSense.c **** 
 675:.\Generated_Source\PSoC4/CapSense.c **** 
 676:.\Generated_Source\PSoC4/CapSense.c **** /*******************************************************************************
 677:.\Generated_Source\PSoC4/CapSense.c **** * Function Name: CapSense_ScanEnableWidgets
 678:.\Generated_Source\PSoC4/CapSense.c **** ********************************************************************************
ARM GAS  C:\Users\kbuchi\AppData\Local\Temp\ccOUPaAd.s 			page 17


 679:.\Generated_Source\PSoC4/CapSense.c **** *
 680:.\Generated_Source\PSoC4/CapSense.c **** * Summary:
 681:.\Generated_Source\PSoC4/CapSense.c **** *  This is the preferred method to scan all of the enabled widgets. 
 682:.\Generated_Source\PSoC4/CapSense.c **** *  The API starts scanning a sensor within the enabled widgets. 
 683:.\Generated_Source\PSoC4/CapSense.c **** *  The ISR continues scanning the sensors until all the enabled widgets are scanned. 
 684:.\Generated_Source\PSoC4/CapSense.c **** *  Use of the ISR ensures this function is non-blocking.
 685:.\Generated_Source\PSoC4/CapSense.c **** *  All the widgets are enabled by default except proximity widgets. 
 686:.\Generated_Source\PSoC4/CapSense.c **** *  The proximity widgets must be manually enabled as their long scan time 
 687:.\Generated_Source\PSoC4/CapSense.c **** *  is incompatible with a fast response required of other widget types.
 688:.\Generated_Source\PSoC4/CapSense.c **** *
 689:.\Generated_Source\PSoC4/CapSense.c **** * Parameters:
 690:.\Generated_Source\PSoC4/CapSense.c **** *  None
 691:.\Generated_Source\PSoC4/CapSense.c **** *
 692:.\Generated_Source\PSoC4/CapSense.c **** * Return:
 693:.\Generated_Source\PSoC4/CapSense.c **** *  None
 694:.\Generated_Source\PSoC4/CapSense.c **** *
 695:.\Generated_Source\PSoC4/CapSense.c **** * Global Variables:
 696:.\Generated_Source\PSoC4/CapSense.c **** *  CapSense_csdStatusVar - used to provide the status and mode of the scanning process. 
 697:.\Generated_Source\PSoC4/CapSense.c **** *  Sets the busy status(scan in progress) and clears the single scan mode.
 698:.\Generated_Source\PSoC4/CapSense.c **** *  CapSense_sensorIndex - used to store a sensor scanning sensor number.
 699:.\Generated_Source\PSoC4/CapSense.c **** *  Sets to 0xFF and provided to function CapSense_FindNextSensor or
 700:.\Generated_Source\PSoC4/CapSense.c **** *
 701:.\Generated_Source\PSoC4/CapSense.c **** * Side Effects:
 702:.\Generated_Source\PSoC4/CapSense.c **** *  None
 703:.\Generated_Source\PSoC4/CapSense.c **** * 
 704:.\Generated_Source\PSoC4/CapSense.c **** *******************************************************************************/
 705:.\Generated_Source\PSoC4/CapSense.c **** void CapSense_ScanEnabledWidgets(void)
 706:.\Generated_Source\PSoC4/CapSense.c **** {
 707:.\Generated_Source\PSoC4/CapSense.c ****     /* Clears status/control variable and set sensorIndex */
 708:.\Generated_Source\PSoC4/CapSense.c ****     CapSense_csdStatusVar = 0u;
 709:.\Generated_Source\PSoC4/CapSense.c ****     CapSense_sensorIndex = 0xFFu;
 710:.\Generated_Source\PSoC4/CapSense.c ****     
 711:.\Generated_Source\PSoC4/CapSense.c ****     /* Find next sensor */
 712:.\Generated_Source\PSoC4/CapSense.c ****     CapSense_sensorIndex = (uint8)CapSense_FindNextSensor(CapSense_sensorIndex);
 713:.\Generated_Source\PSoC4/CapSense.c **** 
 714:.\Generated_Source\PSoC4/CapSense.c ****     /* Check end of scan condition */
 715:.\Generated_Source\PSoC4/CapSense.c ****     if(CapSense_sensorIndex < CapSense_TOTAL_SENSOR_COUNT)
 716:.\Generated_Source\PSoC4/CapSense.c ****     {
 717:.\Generated_Source\PSoC4/CapSense.c ****         CapSense_csdStatusVar |= CapSense_SW_STS_BUSY;
 718:.\Generated_Source\PSoC4/CapSense.c ****         CapSense_PreScan((uint32)CapSense_sensorIndex);
 719:.\Generated_Source\PSoC4/CapSense.c ****     }
 720:.\Generated_Source\PSoC4/CapSense.c **** }
 721:.\Generated_Source\PSoC4/CapSense.c **** 
 722:.\Generated_Source\PSoC4/CapSense.c **** 
 723:.\Generated_Source\PSoC4/CapSense.c **** /*******************************************************************************
 724:.\Generated_Source\PSoC4/CapSense.c **** * Function Name: CapSense_IsBusy
 725:.\Generated_Source\PSoC4/CapSense.c **** ********************************************************************************
 726:.\Generated_Source\PSoC4/CapSense.c **** *
 727:.\Generated_Source\PSoC4/CapSense.c **** * Summary:
 728:.\Generated_Source\PSoC4/CapSense.c **** *  Returns the state of the CapSense component. 1 means that scanning in 
 729:.\Generated_Source\PSoC4/CapSense.c **** *  progress and 0 means that scanning is complete.
 730:.\Generated_Source\PSoC4/CapSense.c **** *
 731:.\Generated_Source\PSoC4/CapSense.c **** * Parameters:
 732:.\Generated_Source\PSoC4/CapSense.c **** *  None
 733:.\Generated_Source\PSoC4/CapSense.c **** *
 734:.\Generated_Source\PSoC4/CapSense.c **** * Return:
 735:.\Generated_Source\PSoC4/CapSense.c **** *  Returns the state of scanning. 1 - scanning in progress, 0 - scanning 
ARM GAS  C:\Users\kbuchi\AppData\Local\Temp\ccOUPaAd.s 			page 18


 736:.\Generated_Source\PSoC4/CapSense.c **** *  completed.
 737:.\Generated_Source\PSoC4/CapSense.c **** *
 738:.\Generated_Source\PSoC4/CapSense.c **** * Global Variables:
 739:.\Generated_Source\PSoC4/CapSense.c **** *  CapSense_csdStatusVar - used to provide the status and mode of the scanning process. 
 740:.\Generated_Source\PSoC4/CapSense.c **** *  Checks the busy status.
 741:.\Generated_Source\PSoC4/CapSense.c **** *
 742:.\Generated_Source\PSoC4/CapSense.c **** * Side Effects:
 743:.\Generated_Source\PSoC4/CapSense.c **** *  None
 744:.\Generated_Source\PSoC4/CapSense.c **** * 
 745:.\Generated_Source\PSoC4/CapSense.c **** *******************************************************************************/
 746:.\Generated_Source\PSoC4/CapSense.c **** uint32 CapSense_IsBusy(void)
 747:.\Generated_Source\PSoC4/CapSense.c **** {
 235              		.loc 1 747 0
 236              		.cfi_startproc
 748:.\Generated_Source\PSoC4/CapSense.c ****     return ((uint32)((0u != (CapSense_csdStatusVar & CapSense_SW_STS_BUSY)) ? 1u : 0u));
 237              		.loc 1 748 0
 238 0000 024B     		ldr	r3, .L11
 239 0002 1878     		ldrb	r0, [r3]
 240 0004 0123     		mov	r3, #1
 241 0006 1840     		and	r0, r3
 749:.\Generated_Source\PSoC4/CapSense.c **** }
 242              		.loc 1 749 0
 243              		@ sp needed
 244 0008 7047     		bx	lr
 245              	.L12:
 246 000a C046     		.align	2
 247              	.L11:
 248 000c 00000000 		.word	.LANCHOR0
 249              		.cfi_endproc
 250              	.LFE42:
 251              		.size	CapSense_IsBusy, .-CapSense_IsBusy
 252              		.section	.text.CapSense_ReadSensorRaw,"ax",%progbits
 253              		.align	2
 254              		.global	CapSense_ReadSensorRaw
 255              		.code	16
 256              		.thumb_func
 257              		.type	CapSense_ReadSensorRaw, %function
 258              	CapSense_ReadSensorRaw:
 259              	.LFB43:
 750:.\Generated_Source\PSoC4/CapSense.c **** 
 751:.\Generated_Source\PSoC4/CapSense.c **** 
 752:.\Generated_Source\PSoC4/CapSense.c **** /*******************************************************************************
 753:.\Generated_Source\PSoC4/CapSense.c **** * Function Name: CapSense_ReadSensorRaw
 754:.\Generated_Source\PSoC4/CapSense.c **** ********************************************************************************
 755:.\Generated_Source\PSoC4/CapSense.c **** *
 756:.\Generated_Source\PSoC4/CapSense.c **** * Summary:
 757:.\Generated_Source\PSoC4/CapSense.c **** *  Returns sensor raw data from the global CapSense_sensorRaw[ ] array. 
 758:.\Generated_Source\PSoC4/CapSense.c **** *  Each scan sensor has a unique number within the sensor array. 
 759:.\Generated_Source\PSoC4/CapSense.c **** *  This number is assigned by the CapSense customizer in sequence. 
 760:.\Generated_Source\PSoC4/CapSense.c **** *  Raw data can be used to perform calculations outside of the CapSense 
 761:.\Generated_Source\PSoC4/CapSense.c **** *  provided framework.
 762:.\Generated_Source\PSoC4/CapSense.c **** *
 763:.\Generated_Source\PSoC4/CapSense.c **** * Parameters:
 764:.\Generated_Source\PSoC4/CapSense.c **** *  sensor:  Sensor number.
 765:.\Generated_Source\PSoC4/CapSense.c **** *
 766:.\Generated_Source\PSoC4/CapSense.c **** * Return:
 767:.\Generated_Source\PSoC4/CapSense.c **** *  Returns the current raw data value for a defined sensor number.
ARM GAS  C:\Users\kbuchi\AppData\Local\Temp\ccOUPaAd.s 			page 19


 768:.\Generated_Source\PSoC4/CapSense.c **** *
 769:.\Generated_Source\PSoC4/CapSense.c **** * Global Variables:
 770:.\Generated_Source\PSoC4/CapSense.c **** *  CapSense_sensorRaw[] - used to store sensors raw data.
 771:.\Generated_Source\PSoC4/CapSense.c **** *
 772:.\Generated_Source\PSoC4/CapSense.c **** * Side Effects: 
 773:.\Generated_Source\PSoC4/CapSense.c **** *  None
 774:.\Generated_Source\PSoC4/CapSense.c **** *
 775:.\Generated_Source\PSoC4/CapSense.c **** *******************************************************************************/
 776:.\Generated_Source\PSoC4/CapSense.c **** uint16 CapSense_ReadSensorRaw(uint32 sensor)
 777:.\Generated_Source\PSoC4/CapSense.c **** {
 260              		.loc 1 777 0
 261              		.cfi_startproc
 262              	.LVL23:
 778:.\Generated_Source\PSoC4/CapSense.c ****     return CapSense_sensorRaw[sensor];
 263              		.loc 1 778 0
 264 0000 4000     		lsl	r0, r0, #1
 265              	.LVL24:
 266 0002 024B     		ldr	r3, .L14
 267 0004 1818     		add	r0, r3, r0
 268 0006 8088     		ldrh	r0, [r0, #4]
 779:.\Generated_Source\PSoC4/CapSense.c **** }
 269              		.loc 1 779 0
 270              		@ sp needed
 271 0008 7047     		bx	lr
 272              	.L15:
 273 000a C046     		.align	2
 274              	.L14:
 275 000c 00000000 		.word	.LANCHOR0
 276              		.cfi_endproc
 277              	.LFE43:
 278              		.size	CapSense_ReadSensorRaw, .-CapSense_ReadSensorRaw
 279              		.section	.text.CapSense_WriteSensorRaw,"ax",%progbits
 280              		.align	2
 281              		.global	CapSense_WriteSensorRaw
 282              		.code	16
 283              		.thumb_func
 284              		.type	CapSense_WriteSensorRaw, %function
 285              	CapSense_WriteSensorRaw:
 286              	.LFB44:
 780:.\Generated_Source\PSoC4/CapSense.c **** 
 781:.\Generated_Source\PSoC4/CapSense.c **** 
 782:.\Generated_Source\PSoC4/CapSense.c **** /*******************************************************************************
 783:.\Generated_Source\PSoC4/CapSense.c **** * Function Name: CapSense_WriteSensorRaw
 784:.\Generated_Source\PSoC4/CapSense.c **** ********************************************************************************
 785:.\Generated_Source\PSoC4/CapSense.c **** *
 786:.\Generated_Source\PSoC4/CapSense.c **** * Summary:
 787:.\Generated_Source\PSoC4/CapSense.c **** *  This API writes the raw count value passed as an argument to the sensor Raw count array.
 788:.\Generated_Source\PSoC4/CapSense.c **** *
 789:.\Generated_Source\PSoC4/CapSense.c **** * Parameters:
 790:.\Generated_Source\PSoC4/CapSense.c **** *  sensor:  Sensor number.
 791:.\Generated_Source\PSoC4/CapSense.c **** *  value: Raw count value.
 792:.\Generated_Source\PSoC4/CapSense.c **** *
 793:.\Generated_Source\PSoC4/CapSense.c **** * Global Variables:
 794:.\Generated_Source\PSoC4/CapSense.c **** *  CapSense_sensorRaw[] - used to store sensors raw data.
 795:.\Generated_Source\PSoC4/CapSense.c **** *
 796:.\Generated_Source\PSoC4/CapSense.c **** * Return:
 797:.\Generated_Source\PSoC4/CapSense.c **** *  None
ARM GAS  C:\Users\kbuchi\AppData\Local\Temp\ccOUPaAd.s 			page 20


 798:.\Generated_Source\PSoC4/CapSense.c **** *
 799:.\Generated_Source\PSoC4/CapSense.c **** * Side Effects: 
 800:.\Generated_Source\PSoC4/CapSense.c **** *  None
 801:.\Generated_Source\PSoC4/CapSense.c **** *
 802:.\Generated_Source\PSoC4/CapSense.c **** *******************************************************************************/
 803:.\Generated_Source\PSoC4/CapSense.c **** void CapSense_WriteSensorRaw(uint32 sensor, uint16 value)
 804:.\Generated_Source\PSoC4/CapSense.c **** {
 287              		.loc 1 804 0
 288              		.cfi_startproc
 289              	.LVL25:
 805:.\Generated_Source\PSoC4/CapSense.c **** 	CapSense_sensorRaw[sensor] = value;
 290              		.loc 1 805 0
 291 0000 4000     		lsl	r0, r0, #1
 292              	.LVL26:
 293 0002 024B     		ldr	r3, .L17
 294 0004 1818     		add	r0, r3, r0
 295 0006 8180     		strh	r1, [r0, #4]
 806:.\Generated_Source\PSoC4/CapSense.c **** }
 296              		.loc 1 806 0
 297              		@ sp needed
 298 0008 7047     		bx	lr
 299              	.L18:
 300 000a C046     		.align	2
 301              	.L17:
 302 000c 00000000 		.word	.LANCHOR0
 303              		.cfi_endproc
 304              	.LFE44:
 305              		.size	CapSense_WriteSensorRaw, .-CapSense_WriteSensorRaw
 306              		.section	.text.CapSense_SetScanResolution,"ax",%progbits
 307              		.align	2
 308              		.global	CapSense_SetScanResolution
 309              		.code	16
 310              		.thumb_func
 311              		.type	CapSense_SetScanResolution, %function
 312              	CapSense_SetScanResolution:
 313              	.LFB45:
 807:.\Generated_Source\PSoC4/CapSense.c **** 
 808:.\Generated_Source\PSoC4/CapSense.c **** 
 809:.\Generated_Source\PSoC4/CapSense.c **** #if (CapSense_TUNING_METHOD != CapSense__TUNING_NONE)
 810:.\Generated_Source\PSoC4/CapSense.c **** 	/*******************************************************************************
 811:.\Generated_Source\PSoC4/CapSense.c **** 	* Function Name: CapSense_SetScanResolution
 812:.\Generated_Source\PSoC4/CapSense.c **** 	********************************************************************************
 813:.\Generated_Source\PSoC4/CapSense.c **** 	*
 814:.\Generated_Source\PSoC4/CapSense.c **** 	* Summary:
 815:.\Generated_Source\PSoC4/CapSense.c **** 	*  Sets a value of the sensor scan resolution for a widget. 
 816:.\Generated_Source\PSoC4/CapSense.c **** 	*  The MIN resolution can be set 8-bit. The MAX Resolution can be set 16 bit.
 817:.\Generated_Source\PSoC4/CapSense.c **** 	*  This function is not available for the tuning mode "None".
 818:.\Generated_Source\PSoC4/CapSense.c **** 	*
 819:.\Generated_Source\PSoC4/CapSense.c **** 	* Parameters:
 820:.\Generated_Source\PSoC4/CapSense.c **** 	*  widget:     Widget index.
 821:.\Generated_Source\PSoC4/CapSense.c **** 	*  resolution: Represents the resolution value. The following defines which are available in the
 822:.\Generated_Source\PSoC4/CapSense.c **** 	*			   CapSense.h file should be used:
 823:.\Generated_Source\PSoC4/CapSense.c **** 	*			   CapSense_RESOLUTION_6_BITS
 824:.\Generated_Source\PSoC4/CapSense.c **** 	*			   CapSense_RESOLUTION_7_BITS
 825:.\Generated_Source\PSoC4/CapSense.c **** 	*			   CapSense_RESOLUTION_8_BITS
 826:.\Generated_Source\PSoC4/CapSense.c **** 	*			   CapSense_RESOLUTION_9_BITS
 827:.\Generated_Source\PSoC4/CapSense.c **** 	*			   CapSense_RESOLUTION_10_BITS
ARM GAS  C:\Users\kbuchi\AppData\Local\Temp\ccOUPaAd.s 			page 21


 828:.\Generated_Source\PSoC4/CapSense.c **** 	*			   CapSense_RESOLUTION_11_BITS
 829:.\Generated_Source\PSoC4/CapSense.c **** 	*			   CapSense_RESOLUTION_12_BITS
 830:.\Generated_Source\PSoC4/CapSense.c **** 	*			   CapSense_RESOLUTION_13_BITS
 831:.\Generated_Source\PSoC4/CapSense.c **** 	*			   CapSense_RESOLUTION_14_BITS
 832:.\Generated_Source\PSoC4/CapSense.c **** 	*			   CapSense_RESOLUTION_15_BITS
 833:.\Generated_Source\PSoC4/CapSense.c **** 	*			   CapSense_RESOLUTION_16_BITS
 834:.\Generated_Source\PSoC4/CapSense.c **** 	*
 835:.\Generated_Source\PSoC4/CapSense.c **** 	* Return:
 836:.\Generated_Source\PSoC4/CapSense.c **** 	*  None
 837:.\Generated_Source\PSoC4/CapSense.c **** 	*
 838:.\Generated_Source\PSoC4/CapSense.c **** 	* Global Variables:
 839:.\Generated_Source\PSoC4/CapSense.c **** 	*  CapSense_widgetResolution[] - used to store scan resolution of each widget.
 840:.\Generated_Source\PSoC4/CapSense.c **** 	*
 841:.\Generated_Source\PSoC4/CapSense.c **** 	* Side Effects: 
 842:.\Generated_Source\PSoC4/CapSense.c **** 	*  None
 843:.\Generated_Source\PSoC4/CapSense.c **** 	*
 844:.\Generated_Source\PSoC4/CapSense.c **** 	*******************************************************************************/
 845:.\Generated_Source\PSoC4/CapSense.c **** 	void CapSense_SetScanResolution(uint32 widget, uint32 resolution)
 846:.\Generated_Source\PSoC4/CapSense.c **** 	{ 
 314              		.loc 1 846 0
 315              		.cfi_startproc
 316              	.LVL27:
 847:.\Generated_Source\PSoC4/CapSense.c ****         CapSense_widgetResolution[widget] = resolution;
 317              		.loc 1 847 0
 318 0000 8000     		lsl	r0, r0, #2
 319              	.LVL28:
 320 0002 014B     		ldr	r3, .L20
 321 0004 C150     		str	r1, [r0, r3]
 848:.\Generated_Source\PSoC4/CapSense.c **** 	}
 322              		.loc 1 848 0
 323              		@ sp needed
 324 0006 7047     		bx	lr
 325              	.L21:
 326              		.align	2
 327              	.L20:
 328 0008 00000000 		.word	.LANCHOR1
 329              		.cfi_endproc
 330              	.LFE45:
 331              		.size	CapSense_SetScanResolution, .-CapSense_SetScanResolution
 332              		.section	.text.CapSense_GetScanResolution,"ax",%progbits
 333              		.align	2
 334              		.global	CapSense_GetScanResolution
 335              		.code	16
 336              		.thumb_func
 337              		.type	CapSense_GetScanResolution, %function
 338              	CapSense_GetScanResolution:
 339              	.LFB46:
 849:.\Generated_Source\PSoC4/CapSense.c **** #endif /* (CapSense_TUNING_METHOD != CapSense__TUNING_NONE) */
 850:.\Generated_Source\PSoC4/CapSense.c **** 
 851:.\Generated_Source\PSoC4/CapSense.c **** 
 852:.\Generated_Source\PSoC4/CapSense.c **** /*******************************************************************************
 853:.\Generated_Source\PSoC4/CapSense.c **** * Function Name: CapSense_GetScanResolution
 854:.\Generated_Source\PSoC4/CapSense.c **** ********************************************************************************
 855:.\Generated_Source\PSoC4/CapSense.c **** *
 856:.\Generated_Source\PSoC4/CapSense.c **** * Summary:
 857:.\Generated_Source\PSoC4/CapSense.c **** *  Returns the resolution value for the appropriate sensor.
 858:.\Generated_Source\PSoC4/CapSense.c **** *  This function is not available for tuning mode "None".
ARM GAS  C:\Users\kbuchi\AppData\Local\Temp\ccOUPaAd.s 			page 22


 859:.\Generated_Source\PSoC4/CapSense.c **** *
 860:.\Generated_Source\PSoC4/CapSense.c **** * Parameters:
 861:.\Generated_Source\PSoC4/CapSense.c **** *  widget:     Widget index.
 862:.\Generated_Source\PSoC4/CapSense.c **** *
 863:.\Generated_Source\PSoC4/CapSense.c **** * Return:
 864:.\Generated_Source\PSoC4/CapSense.c **** *  resolution: Returns the resolution value for the appropriate sensor. 
 865:.\Generated_Source\PSoC4/CapSense.c **** *              The resolution values are defined in the CapSense.h file 
 866:.\Generated_Source\PSoC4/CapSense.c **** *              The defines are encountered below:
 867:.\Generated_Source\PSoC4/CapSense.c **** *			   CapSense_RESOLUTION_6_BITS
 868:.\Generated_Source\PSoC4/CapSense.c **** *			   CapSense_RESOLUTION_7_BITS
 869:.\Generated_Source\PSoC4/CapSense.c **** *			   CapSense_RESOLUTION_8_BITS
 870:.\Generated_Source\PSoC4/CapSense.c **** *			   CapSense_RESOLUTION_9_BITS
 871:.\Generated_Source\PSoC4/CapSense.c **** *			   CapSense_RESOLUTION_10_BITS
 872:.\Generated_Source\PSoC4/CapSense.c **** *			   CapSense_RESOLUTION_11_BITS
 873:.\Generated_Source\PSoC4/CapSense.c **** *			   CapSense_RESOLUTION_12_BITS
 874:.\Generated_Source\PSoC4/CapSense.c **** *			   CapSense_RESOLUTION_13_BITS
 875:.\Generated_Source\PSoC4/CapSense.c **** *			   CapSense_RESOLUTION_14_BITS
 876:.\Generated_Source\PSoC4/CapSense.c **** *			   CapSense_RESOLUTION_15_BITS
 877:.\Generated_Source\PSoC4/CapSense.c **** *			   CapSense_RESOLUTION_16_BITS
 878:.\Generated_Source\PSoC4/CapSense.c **** *
 879:.\Generated_Source\PSoC4/CapSense.c **** * Global Variables:
 880:.\Generated_Source\PSoC4/CapSense.c **** *  CapSense_widgetResolution[] - used to store scan resolution of every widget.
 881:.\Generated_Source\PSoC4/CapSense.c **** *
 882:.\Generated_Source\PSoC4/CapSense.c **** * Side Effects: 
 883:.\Generated_Source\PSoC4/CapSense.c **** *  None
 884:.\Generated_Source\PSoC4/CapSense.c **** *
 885:.\Generated_Source\PSoC4/CapSense.c **** *******************************************************************************/
 886:.\Generated_Source\PSoC4/CapSense.c **** uint32 CapSense_GetScanResolution(uint32 widget)
 887:.\Generated_Source\PSoC4/CapSense.c **** {
 340              		.loc 1 887 0
 341              		.cfi_startproc
 342              	.LVL29:
 888:.\Generated_Source\PSoC4/CapSense.c **** 	return(CapSense_widgetResolution[widget]);
 343              		.loc 1 888 0
 344 0000 8000     		lsl	r0, r0, #2
 345              	.LVL30:
 346 0002 014B     		ldr	r3, .L23
 347 0004 C058     		ldr	r0, [r0, r3]
 889:.\Generated_Source\PSoC4/CapSense.c **** }
 348              		.loc 1 889 0
 349              		@ sp needed
 350 0006 7047     		bx	lr
 351              	.L24:
 352              		.align	2
 353              	.L23:
 354 0008 00000000 		.word	.LANCHOR1
 355              		.cfi_endproc
 356              	.LFE46:
 357              		.size	CapSense_GetScanResolution, .-CapSense_GetScanResolution
 358              		.section	.text.CapSense_EnableSensor,"ax",%progbits
 359              		.align	2
 360              		.global	CapSense_EnableSensor
 361              		.code	16
 362              		.thumb_func
 363              		.type	CapSense_EnableSensor, %function
 364              	CapSense_EnableSensor:
 365              	.LFB48:
ARM GAS  C:\Users\kbuchi\AppData\Local\Temp\ccOUPaAd.s 			page 23


 890:.\Generated_Source\PSoC4/CapSense.c **** 
 891:.\Generated_Source\PSoC4/CapSense.c **** 
 892:.\Generated_Source\PSoC4/CapSense.c **** /*******************************************************************************
 893:.\Generated_Source\PSoC4/CapSense.c **** * Function Name: CapSense_ClearSensors
 894:.\Generated_Source\PSoC4/CapSense.c **** ********************************************************************************
 895:.\Generated_Source\PSoC4/CapSense.c **** *
 896:.\Generated_Source\PSoC4/CapSense.c **** * Summary:
 897:.\Generated_Source\PSoC4/CapSense.c **** *  Resets all the sensors to the non-sampling state by sequentially disconnecting
 898:.\Generated_Source\PSoC4/CapSense.c **** *  all the sensors from Analog MUX Bus and putting them to an inactive state.
 899:.\Generated_Source\PSoC4/CapSense.c **** *
 900:.\Generated_Source\PSoC4/CapSense.c **** * Parameters:
 901:.\Generated_Source\PSoC4/CapSense.c **** *  None
 902:.\Generated_Source\PSoC4/CapSense.c **** *
 903:.\Generated_Source\PSoC4/CapSense.c **** * Return:
 904:.\Generated_Source\PSoC4/CapSense.c **** *  None
 905:.\Generated_Source\PSoC4/CapSense.c **** *
 906:.\Generated_Source\PSoC4/CapSense.c **** * Global Variables:
 907:.\Generated_Source\PSoC4/CapSense.c **** *  None
 908:.\Generated_Source\PSoC4/CapSense.c **** *
 909:.\Generated_Source\PSoC4/CapSense.c **** * Side Effects: 
 910:.\Generated_Source\PSoC4/CapSense.c **** *  None
 911:.\Generated_Source\PSoC4/CapSense.c **** *
 912:.\Generated_Source\PSoC4/CapSense.c **** *******************************************************************************/
 913:.\Generated_Source\PSoC4/CapSense.c **** void CapSense_ClearSensors(void)
 914:.\Generated_Source\PSoC4/CapSense.c **** {
 915:.\Generated_Source\PSoC4/CapSense.c **** 	uint32 snsIndex;
 916:.\Generated_Source\PSoC4/CapSense.c **** 	
 917:.\Generated_Source\PSoC4/CapSense.c ****     for (snsIndex = 0u; snsIndex < CapSense_TOTAL_SENSOR_COUNT; snsIndex++)
 918:.\Generated_Source\PSoC4/CapSense.c ****     {
 919:.\Generated_Source\PSoC4/CapSense.c ****         CapSense_DisableScanSlot(snsIndex);
 920:.\Generated_Source\PSoC4/CapSense.c ****     }
 921:.\Generated_Source\PSoC4/CapSense.c **** }
 922:.\Generated_Source\PSoC4/CapSense.c **** 
 923:.\Generated_Source\PSoC4/CapSense.c **** 
 924:.\Generated_Source\PSoC4/CapSense.c **** #if (CapSense_IS_COMPLEX_SCANSLOTS)
 925:.\Generated_Source\PSoC4/CapSense.c ****     /*******************************************************************************
 926:.\Generated_Source\PSoC4/CapSense.c ****     * Function Name: CapSense_EnableScanSlot
 927:.\Generated_Source\PSoC4/CapSense.c ****     ********************************************************************************
 928:.\Generated_Source\PSoC4/CapSense.c ****     *
 929:.\Generated_Source\PSoC4/CapSense.c ****     * Summary:
 930:.\Generated_Source\PSoC4/CapSense.c ****     *  Configures the selected slot to measure during the next measurement 
 931:.\Generated_Source\PSoC4/CapSense.c ****     *  cycle. The corresponding pin/pins are set to Analog High-Z mode and 
 932:.\Generated_Source\PSoC4/CapSense.c ****     *  connected to the Analog Mux Bus. This also enables the comparator function.
 933:.\Generated_Source\PSoC4/CapSense.c ****     *
 934:.\Generated_Source\PSoC4/CapSense.c ****     * Parameters:
 935:.\Generated_Source\PSoC4/CapSense.c ****     *  slot:  Slot number.
 936:.\Generated_Source\PSoC4/CapSense.c ****     *
 937:.\Generated_Source\PSoC4/CapSense.c ****     * Return:
 938:.\Generated_Source\PSoC4/CapSense.c ****     *  None
 939:.\Generated_Source\PSoC4/CapSense.c ****     *
 940:.\Generated_Source\PSoC4/CapSense.c ****     * Global Constants:
 941:.\Generated_Source\PSoC4/CapSense.c ****     *  CapSense_portTable[]  - used to store the port number that pin 
 942:.\Generated_Source\PSoC4/CapSense.c ****     *  belongs to for each sensor.
 943:.\Generated_Source\PSoC4/CapSense.c ****     *  CapSense_maskTable[]  - used to store the pin within the port for 
 944:.\Generated_Source\PSoC4/CapSense.c ****     *  each sensor.
 945:.\Generated_Source\PSoC4/CapSense.c ****     *  CapSense_indexTable[] - used to store indexes of complex sensors.
 946:.\Generated_Source\PSoC4/CapSense.c ****     *  The offset and position in this array are stored in a port and mask table for 
ARM GAS  C:\Users\kbuchi\AppData\Local\Temp\ccOUPaAd.s 			page 24


 947:.\Generated_Source\PSoC4/CapSense.c ****     *  complex sensors.
 948:.\Generated_Source\PSoC4/CapSense.c ****     *  Bit 7 (msb) is used to define the sensor type: single or complex.
 949:.\Generated_Source\PSoC4/CapSense.c ****     *
 950:.\Generated_Source\PSoC4/CapSense.c **** 	* Side Effects: 
 951:.\Generated_Source\PSoC4/CapSense.c **** 	*  None
 952:.\Generated_Source\PSoC4/CapSense.c **** 	*
 953:.\Generated_Source\PSoC4/CapSense.c ****     *******************************************************************************/
 954:.\Generated_Source\PSoC4/CapSense.c ****     void CapSense_EnableScanSlot(uint32 slot)
 955:.\Generated_Source\PSoC4/CapSense.c ****     {
 956:.\Generated_Source\PSoC4/CapSense.c ****         uint8 j;
 957:.\Generated_Source\PSoC4/CapSense.c ****         uint8 snsNumber;
 958:.\Generated_Source\PSoC4/CapSense.c ****         const uint8 *index;
 959:.\Generated_Source\PSoC4/CapSense.c ****         /* Read sensor type: single or complex */
 960:.\Generated_Source\PSoC4/CapSense.c ****         uint8 snsType = CapSense_portTable[slot];
 961:.\Generated_Source\PSoC4/CapSense.c **** 
 962:.\Generated_Source\PSoC4/CapSense.c ****         /* Check if sensor is complex */
 963:.\Generated_Source\PSoC4/CapSense.c ****         if ((snsType & CapSense_COMPLEX_SS_FLAG) == 0u)
 964:.\Generated_Source\PSoC4/CapSense.c ****         {
 965:.\Generated_Source\PSoC4/CapSense.c ****             /* Enable sensor (single) */
 966:.\Generated_Source\PSoC4/CapSense.c ****             CapSense_EnableSensor(slot);
 967:.\Generated_Source\PSoC4/CapSense.c ****         }
 968:.\Generated_Source\PSoC4/CapSense.c ****         else
 969:.\Generated_Source\PSoC4/CapSense.c ****         {
 970:.\Generated_Source\PSoC4/CapSense.c ****             /* Enable complex sensor */
 971:.\Generated_Source\PSoC4/CapSense.c ****             snsType &= ~CapSense_COMPLEX_SS_FLAG;
 972:.\Generated_Source\PSoC4/CapSense.c ****             index = &CapSense_indexTable[snsType];
 973:.\Generated_Source\PSoC4/CapSense.c ****             snsNumber = CapSense_maskTable[slot];
 974:.\Generated_Source\PSoC4/CapSense.c ****                         
 975:.\Generated_Source\PSoC4/CapSense.c ****             for (j = 0u; j < snsNumber; j++)
 976:.\Generated_Source\PSoC4/CapSense.c ****             {
 977:.\Generated_Source\PSoC4/CapSense.c ****                 CapSense_EnableSensor(index[j]);
 978:.\Generated_Source\PSoC4/CapSense.c ****             }
 979:.\Generated_Source\PSoC4/CapSense.c ****         }
 980:.\Generated_Source\PSoC4/CapSense.c ****     }
 981:.\Generated_Source\PSoC4/CapSense.c ****     
 982:.\Generated_Source\PSoC4/CapSense.c ****     
 983:.\Generated_Source\PSoC4/CapSense.c ****     /*******************************************************************************
 984:.\Generated_Source\PSoC4/CapSense.c ****     * Function Name: CapSense_DisableScanSlot
 985:.\Generated_Source\PSoC4/CapSense.c ****     ********************************************************************************
 986:.\Generated_Source\PSoC4/CapSense.c ****     *
 987:.\Generated_Source\PSoC4/CapSense.c ****     * Summary:
 988:.\Generated_Source\PSoC4/CapSense.c ****     *  Disables the selected slot. The corresponding pin/pins is/are disconnected 
 989:.\Generated_Source\PSoC4/CapSense.c ****     *  from the Analog Mux Bus and connected to GND, High_Z or Shield electrode.
 990:.\Generated_Source\PSoC4/CapSense.c ****     *
 991:.\Generated_Source\PSoC4/CapSense.c ****     * Parameters:
 992:.\Generated_Source\PSoC4/CapSense.c ****     *  slot:  Slot number.
 993:.\Generated_Source\PSoC4/CapSense.c ****     *
 994:.\Generated_Source\PSoC4/CapSense.c ****     * Return:
 995:.\Generated_Source\PSoC4/CapSense.c ****     *  None
 996:.\Generated_Source\PSoC4/CapSense.c ****     *
 997:.\Generated_Source\PSoC4/CapSense.c ****     * Global Variables:
 998:.\Generated_Source\PSoC4/CapSense.c ****     *  CapSense_portTable[]  - used to store the port number that pin 
 999:.\Generated_Source\PSoC4/CapSense.c ****     *  belongs to for each sensor.
1000:.\Generated_Source\PSoC4/CapSense.c ****     *  CapSense_maskTable[]  - used to store the pin within the port for 
1001:.\Generated_Source\PSoC4/CapSense.c ****     *  each sensor.
1002:.\Generated_Source\PSoC4/CapSense.c ****     *  CapSense_indexTable[] - used to store indexes of complex sensors.
1003:.\Generated_Source\PSoC4/CapSense.c ****     *  The offset and position in this array are stored in a port and mask table for 
ARM GAS  C:\Users\kbuchi\AppData\Local\Temp\ccOUPaAd.s 			page 25


1004:.\Generated_Source\PSoC4/CapSense.c ****     *  complex sensors.
1005:.\Generated_Source\PSoC4/CapSense.c ****     *  7bit(msb) is used to define the sensor type: single or complex.
1006:.\Generated_Source\PSoC4/CapSense.c ****     *
1007:.\Generated_Source\PSoC4/CapSense.c **** 	* Side Effects: 
1008:.\Generated_Source\PSoC4/CapSense.c **** 	*  None
1009:.\Generated_Source\PSoC4/CapSense.c **** 	*
1010:.\Generated_Source\PSoC4/CapSense.c ****     *******************************************************************************/
1011:.\Generated_Source\PSoC4/CapSense.c ****     void CapSense_DisableScanSlot(uint32 slot)
1012:.\Generated_Source\PSoC4/CapSense.c ****     {
1013:.\Generated_Source\PSoC4/CapSense.c ****         uint8 j;
1014:.\Generated_Source\PSoC4/CapSense.c ****         uint8 snsNumber;
1015:.\Generated_Source\PSoC4/CapSense.c ****         const uint8 *index;
1016:.\Generated_Source\PSoC4/CapSense.c **** 
1017:.\Generated_Source\PSoC4/CapSense.c ****         /* Read sensor type: single or complex */
1018:.\Generated_Source\PSoC4/CapSense.c ****         uint8 snsType = CapSense_portTable[slot];
1019:.\Generated_Source\PSoC4/CapSense.c ****         
1020:.\Generated_Source\PSoC4/CapSense.c ****         /* Check if sensor is complex */
1021:.\Generated_Source\PSoC4/CapSense.c ****         if ((snsType & CapSense_COMPLEX_SS_FLAG) == 0u)
1022:.\Generated_Source\PSoC4/CapSense.c ****         {
1023:.\Generated_Source\PSoC4/CapSense.c ****             /* Disable sensor (single) */
1024:.\Generated_Source\PSoC4/CapSense.c ****             CapSense_DisableSensor(slot);
1025:.\Generated_Source\PSoC4/CapSense.c ****         }
1026:.\Generated_Source\PSoC4/CapSense.c ****         else
1027:.\Generated_Source\PSoC4/CapSense.c ****         {
1028:.\Generated_Source\PSoC4/CapSense.c ****             /* Disable complex sensor */
1029:.\Generated_Source\PSoC4/CapSense.c ****             snsType &= ~CapSense_COMPLEX_SS_FLAG;
1030:.\Generated_Source\PSoC4/CapSense.c ****             index = &CapSense_indexTable[snsType];
1031:.\Generated_Source\PSoC4/CapSense.c ****             snsNumber = CapSense_maskTable[slot];
1032:.\Generated_Source\PSoC4/CapSense.c ****                         
1033:.\Generated_Source\PSoC4/CapSense.c ****             for (j=0; j < snsNumber; j++)
1034:.\Generated_Source\PSoC4/CapSense.c ****             {
1035:.\Generated_Source\PSoC4/CapSense.c ****                 CapSense_DisableSensor(index[j]);
1036:.\Generated_Source\PSoC4/CapSense.c ****             }
1037:.\Generated_Source\PSoC4/CapSense.c ****         } 
1038:.\Generated_Source\PSoC4/CapSense.c ****     }
1039:.\Generated_Source\PSoC4/CapSense.c **** #endif  /* CapSense_IS_COMPLEX_SCANSLOTS */
1040:.\Generated_Source\PSoC4/CapSense.c **** 
1041:.\Generated_Source\PSoC4/CapSense.c **** 
1042:.\Generated_Source\PSoC4/CapSense.c **** /*******************************************************************************
1043:.\Generated_Source\PSoC4/CapSense.c **** * Function Name: CapSense_EnableSensor
1044:.\Generated_Source\PSoC4/CapSense.c **** ********************************************************************************
1045:.\Generated_Source\PSoC4/CapSense.c **** *
1046:.\Generated_Source\PSoC4/CapSense.c **** * Summary:
1047:.\Generated_Source\PSoC4/CapSense.c **** *  Configures the selected sensor to measure during the next measurement cycle.
1048:.\Generated_Source\PSoC4/CapSense.c **** *  The corresponding pins are set to Analog High-Z mode and connected to the
1049:.\Generated_Source\PSoC4/CapSense.c **** *  Analog Mux Bus. This also enables the comparator function.
1050:.\Generated_Source\PSoC4/CapSense.c **** *
1051:.\Generated_Source\PSoC4/CapSense.c **** * Parameters:
1052:.\Generated_Source\PSoC4/CapSense.c **** *  sensor:  Sensor number.
1053:.\Generated_Source\PSoC4/CapSense.c **** *
1054:.\Generated_Source\PSoC4/CapSense.c **** * Return:
1055:.\Generated_Source\PSoC4/CapSense.c **** *  None
1056:.\Generated_Source\PSoC4/CapSense.c **** *
1057:.\Generated_Source\PSoC4/CapSense.c **** * Global Variables:
1058:.\Generated_Source\PSoC4/CapSense.c **** *  CapSense_portTable[] - used to store the port number that pin 
1059:.\Generated_Source\PSoC4/CapSense.c **** *  belongs to for each sensor.
1060:.\Generated_Source\PSoC4/CapSense.c **** *  CapSense_pinShiftTbl[] - used to store position of pin that 
ARM GAS  C:\Users\kbuchi\AppData\Local\Temp\ccOUPaAd.s 			page 26


1061:.\Generated_Source\PSoC4/CapSense.c **** *  configured as sensor in port. 
1062:.\Generated_Source\PSoC4/CapSense.c **** *  CapSense_prtSelTbl[] - Contains pointers to the HSIOM 
1063:.\Generated_Source\PSoC4/CapSense.c **** *  registers for each port. 
1064:.\Generated_Source\PSoC4/CapSense.c **** *  CapSense_PrtCfgTb[] - Contains pointers to the port config 
1065:.\Generated_Source\PSoC4/CapSense.c **** *  registers for each port.
1066:.\Generated_Source\PSoC4/CapSense.c **** *
1067:.\Generated_Source\PSoC4/CapSense.c **** * Side Effects: 
1068:.\Generated_Source\PSoC4/CapSense.c **** *  None
1069:.\Generated_Source\PSoC4/CapSense.c **** *
1070:.\Generated_Source\PSoC4/CapSense.c **** *******************************************************************************/
1071:.\Generated_Source\PSoC4/CapSense.c **** void CapSense_EnableSensor(uint32 sensor)
1072:.\Generated_Source\PSoC4/CapSense.c **** {
 366              		.loc 1 1072 0
 367              		.cfi_startproc
 368              	.LVL31:
 369 0000 F8B5     		push	{r3, r4, r5, r6, r7, lr}
 370              		.cfi_def_cfa_offset 24
 371              		.cfi_offset 3, -24
 372              		.cfi_offset 4, -20
 373              		.cfi_offset 5, -16
 374              		.cfi_offset 6, -12
 375              		.cfi_offset 7, -8
 376              		.cfi_offset 14, -4
1073:.\Generated_Source\PSoC4/CapSense.c **** 	uint8  pinModeShift;
1074:.\Generated_Source\PSoC4/CapSense.c ****     uint8  pinHSIOMShift;
1075:.\Generated_Source\PSoC4/CapSense.c **** 	uint8 interruptState;
1076:.\Generated_Source\PSoC4/CapSense.c **** 	uint32 newRegisterValue;
1077:.\Generated_Source\PSoC4/CapSense.c ****     uint32 port;
1078:.\Generated_Source\PSoC4/CapSense.c **** 	
1079:.\Generated_Source\PSoC4/CapSense.c **** 	port = (uint32) CapSense_portTable[sensor];
 377              		.loc 1 1079 0
 378 0002 104C     		ldr	r4, .L26
 379 0004 275C     		ldrb	r7, [r4, r0]
 380              	.LVL32:
1080:.\Generated_Source\PSoC4/CapSense.c ****     pinModeShift = CapSense_pinShiftTbl[sensor]  * CapSense_PC_PIN_CFG_SIZE;
 381              		.loc 1 1080 0
 382 0006 2018     		add	r0, r4, r0
 383              	.LVL33:
 384 0008 037A     		ldrb	r3, [r0, #8]
 385 000a 5E00     		lsl	r6, r3, #1
 386 000c 9E19     		add	r6, r3, r6
 387 000e F6B2     		uxtb	r6, r6
 388              	.LVL34:
1081:.\Generated_Source\PSoC4/CapSense.c ****     pinHSIOMShift = CapSense_pinShiftTbl[sensor] * CapSense_HSIOM_PIN_CFG_SIZE;
 389              		.loc 1 1081 0
 390 0010 9B00     		lsl	r3, r3, #2
 391 0012 DDB2     		uxtb	r5, r3
 392              	.LVL35:
1082:.\Generated_Source\PSoC4/CapSense.c **** 
1083:.\Generated_Source\PSoC4/CapSense.c **** 	interruptState = CyEnterCriticalSection();
 393              		.loc 1 1083 0
 394 0014 FFF7FEFF 		bl	CyEnterCriticalSection
 395              	.LVL36:
1084:.\Generated_Source\PSoC4/CapSense.c **** 	
1085:.\Generated_Source\PSoC4/CapSense.c **** 	newRegisterValue = *CapSense_prtSelTbl[port];
 396              		.loc 1 1085 0
 397 0018 BF00     		lsl	r7, r7, #2
ARM GAS  C:\Users\kbuchi\AppData\Local\Temp\ccOUPaAd.s 			page 27


 398              	.LVL37:
 399 001a E419     		add	r4, r4, r7
 400              	.LVL38:
 401 001c 2269     		ldr	r2, [r4, #16]
 402 001e 1168     		ldr	r1, [r2]
 403              	.LVL39:
1086:.\Generated_Source\PSoC4/CapSense.c **** 	newRegisterValue &= ~(CapSense_CSD_HSIOM_MASK << pinHSIOMShift);
 404              		.loc 1 1086 0
 405 0020 0F23     		mov	r3, #15
 406 0022 AB40     		lsl	r3, r3, r5
 407 0024 9943     		bic	r1, r3
 408              	.LVL40:
1087:.\Generated_Source\PSoC4/CapSense.c **** 	newRegisterValue |= (uint32)((uint32)CapSense_CSD_SENSE_PORT_MODE << pinHSIOMShift);
 409              		.loc 1 1087 0
 410 0026 0423     		mov	r3, #4
 411 0028 AB40     		lsl	r3, r3, r5
 412 002a 1D1C     		mov	r5, r3
 413              	.LVL41:
 414 002c 0D43     		orr	r5, r1
 415              	.LVL42:
1088:.\Generated_Source\PSoC4/CapSense.c ****    
1089:.\Generated_Source\PSoC4/CapSense.c ****     *CapSense_prtCfgTbl[port] &= (uint32)~((uint32)CapSense_CSD_PIN_MODE_MASK << pinModeShift);
 416              		.loc 1 1089 0
 417 002e 616A     		ldr	r1, [r4, #36]
 418 0030 0B68     		ldr	r3, [r1]
 419 0032 0724     		mov	r4, #7
 420 0034 B440     		lsl	r4, r4, r6
 421 0036 A343     		bic	r3, r4
 422 0038 0B60     		str	r3, [r1]
1090:.\Generated_Source\PSoC4/CapSense.c ****     *CapSense_prtSelTbl[port] = newRegisterValue;
 423              		.loc 1 1090 0
 424 003a 1560     		str	r5, [r2]
1091:.\Generated_Source\PSoC4/CapSense.c **** 	
1092:.\Generated_Source\PSoC4/CapSense.c **** 	CyExitCriticalSection(interruptState);
 425              		.loc 1 1092 0
 426 003c FFF7FEFF 		bl	CyExitCriticalSection
 427              	.LVL43:
1093:.\Generated_Source\PSoC4/CapSense.c **** }
 428              		.loc 1 1093 0
 429              		@ sp needed
 430              	.LVL44:
 431              	.LVL45:
 432 0040 F8BD     		pop	{r3, r4, r5, r6, r7, pc}
 433              	.L27:
 434 0042 C046     		.align	2
 435              	.L26:
 436 0044 00000000 		.word	.LANCHOR2
 437              		.cfi_endproc
 438              	.LFE48:
 439              		.size	CapSense_EnableSensor, .-CapSense_EnableSensor
 440              		.section	.text.CapSense_DisableSensor,"ax",%progbits
 441              		.align	2
 442              		.global	CapSense_DisableSensor
 443              		.code	16
 444              		.thumb_func
 445              		.type	CapSense_DisableSensor, %function
 446              	CapSense_DisableSensor:
ARM GAS  C:\Users\kbuchi\AppData\Local\Temp\ccOUPaAd.s 			page 28


 447              	.LFB49:
1094:.\Generated_Source\PSoC4/CapSense.c **** 
1095:.\Generated_Source\PSoC4/CapSense.c **** 
1096:.\Generated_Source\PSoC4/CapSense.c **** /*******************************************************************************
1097:.\Generated_Source\PSoC4/CapSense.c **** * Function Name: CapSense_DisableSensor
1098:.\Generated_Source\PSoC4/CapSense.c **** ********************************************************************************
1099:.\Generated_Source\PSoC4/CapSense.c **** *
1100:.\Generated_Source\PSoC4/CapSense.c **** * Summary:
1101:.\Generated_Source\PSoC4/CapSense.c **** *  Disables the selected sensor. The corresponding pin is disconnected from the
1102:.\Generated_Source\PSoC4/CapSense.c **** *  Analog Mux Bus and connected to GND, High_Z or Shield electrode.
1103:.\Generated_Source\PSoC4/CapSense.c **** *
1104:.\Generated_Source\PSoC4/CapSense.c **** * Parameters:
1105:.\Generated_Source\PSoC4/CapSense.c **** *  sensor:  Sensor number
1106:.\Generated_Source\PSoC4/CapSense.c **** *
1107:.\Generated_Source\PSoC4/CapSense.c **** * Return:
1108:.\Generated_Source\PSoC4/CapSense.c **** *  None
1109:.\Generated_Source\PSoC4/CapSense.c **** *
1110:.\Generated_Source\PSoC4/CapSense.c **** * Global Variables:
1111:.\Generated_Source\PSoC4/CapSense.c **** *  CapSense_portTable[] - used to store the port number that pin 
1112:.\Generated_Source\PSoC4/CapSense.c **** *  belongs to for each sensor.
1113:.\Generated_Source\PSoC4/CapSense.c **** *  CapSense_pinShiftTbl[] - used to store position of pin that 
1114:.\Generated_Source\PSoC4/CapSense.c **** *  configured as a sensor in the port. 
1115:.\Generated_Source\PSoC4/CapSense.c **** *  CapSense_prtSelTbl[] - Contains pointers to the HSIOM 
1116:.\Generated_Source\PSoC4/CapSense.c **** *  registers for each port. 
1117:.\Generated_Source\PSoC4/CapSense.c **** *  CapSense_PrtCfgTb[] - Contains pointers to the port config 
1118:.\Generated_Source\PSoC4/CapSense.c **** *  registers for each port.
1119:.\Generated_Source\PSoC4/CapSense.c **** *
1120:.\Generated_Source\PSoC4/CapSense.c **** * Side Effects: 
1121:.\Generated_Source\PSoC4/CapSense.c **** *  None
1122:.\Generated_Source\PSoC4/CapSense.c **** *
1123:.\Generated_Source\PSoC4/CapSense.c **** *******************************************************************************/
1124:.\Generated_Source\PSoC4/CapSense.c **** void CapSense_DisableSensor(uint32 sensor)
1125:.\Generated_Source\PSoC4/CapSense.c **** {
 448              		.loc 1 1125 0
 449              		.cfi_startproc
 450              	.LVL46:
 451 0000 F8B5     		push	{r3, r4, r5, r6, r7, lr}
 452              		.cfi_def_cfa_offset 24
 453              		.cfi_offset 3, -24
 454              		.cfi_offset 4, -20
 455              		.cfi_offset 5, -16
 456              		.cfi_offset 6, -12
 457              		.cfi_offset 7, -8
 458              		.cfi_offset 14, -4
1126:.\Generated_Source\PSoC4/CapSense.c ****     uint8 interruptState;
1127:.\Generated_Source\PSoC4/CapSense.c **** 	uint32 newRegisterValue;
1128:.\Generated_Source\PSoC4/CapSense.c **** 	
1129:.\Generated_Source\PSoC4/CapSense.c ****     uint32 port = (uint32) CapSense_portTable[sensor];
 459              		.loc 1 1129 0
 460 0002 194B     		ldr	r3, .L33
 461 0004 1D5C     		ldrb	r5, [r3, r0]
 462              	.LVL47:
1130:.\Generated_Source\PSoC4/CapSense.c ****     uint8  pinHSIOMShift = CapSense_pinShiftTbl[sensor] * CapSense_HSIOM_PIN_CFG_SIZE;
 463              		.loc 1 1130 0
 464 0006 1A18     		add	r2, r3, r0
 465 0008 147A     		ldrb	r4, [r2, #8]
 466 000a A700     		lsl	r7, r4, #2
ARM GAS  C:\Users\kbuchi\AppData\Local\Temp\ccOUPaAd.s 			page 29


 467 000c FFB2     		uxtb	r7, r7
 468              	.LVL48:
1131:.\Generated_Source\PSoC4/CapSense.c ****     uint8  pinModeShift = CapSense_pinShiftTbl[sensor]  * CapSense_PC_PIN_CFG_SIZE;
 469              		.loc 1 1131 0
 470 000e 6600     		lsl	r6, r4, #1
 471 0010 A619     		add	r6, r4, r6
 472 0012 F6B2     		uxtb	r6, r6
 473              	.LVL49:
1132:.\Generated_Source\PSoC4/CapSense.c **** 
1133:.\Generated_Source\PSoC4/CapSense.c **** 	uint32 inactiveConnect = CapSense_SNS_HIZANALOG_CONNECT;
1134:.\Generated_Source\PSoC4/CapSense.c **** 	uint32 sensorState = CapSense_unscannedSnsDriveMode[sensor];
 474              		.loc 1 1134 0
 475 0014 154A     		ldr	r2, .L33+4
 476 0016 125C     		ldrb	r2, [r2, r0]
 477              	.LVL50:
1135:.\Generated_Source\PSoC4/CapSense.c **** 
1136:.\Generated_Source\PSoC4/CapSense.c ****     *CapSense_prtSelTbl[port] &= ~(CapSense_CSD_HSIOM_MASK << pinHSIOMShift);
 478              		.loc 1 1136 0
 479 0018 A900     		lsl	r1, r5, #2
 480 001a 5B18     		add	r3, r3, r1
 481 001c 1B69     		ldr	r3, [r3, #16]
 482 001e 1968     		ldr	r1, [r3]
 483 0020 0F20     		mov	r0, #15
 484              	.LVL51:
 485 0022 B840     		lsl	r0, r0, r7
 486 0024 8143     		bic	r1, r0
 487 0026 1960     		str	r1, [r3]
1137:.\Generated_Source\PSoC4/CapSense.c **** 
1138:.\Generated_Source\PSoC4/CapSense.c **** 	#if(CapSense_IS_SHIELD_ENABLE != 0)
1139:.\Generated_Source\PSoC4/CapSense.c **** 	if(sensorState != (uint32)CapSense__SHIELD)
1140:.\Generated_Source\PSoC4/CapSense.c **** 	{
1141:.\Generated_Source\PSoC4/CapSense.c **** 	#else
1142:.\Generated_Source\PSoC4/CapSense.c **** 	    /* Connected to Ground if shield is disabled */
1143:.\Generated_Source\PSoC4/CapSense.c **** 	    if(sensorState == (uint32)CapSense__SHIELD)
 488              		.loc 1 1143 0
 489 0028 022A     		cmp	r2, #2
 490 002a 00D1     		bne	.L29
1144:.\Generated_Source\PSoC4/CapSense.c **** 		{
1145:.\Generated_Source\PSoC4/CapSense.c **** 			sensorState = (uint32)CapSense__GROUND;
 491              		.loc 1 1145 0
 492 002c 0022     		mov	r2, #0
 493              	.LVL52:
 494              	.L29:
1146:.\Generated_Source\PSoC4/CapSense.c **** 		}
1147:.\Generated_Source\PSoC4/CapSense.c **** 	#endif /* (CapSense_IS_SHIELD_ENABLE) */
1148:.\Generated_Source\PSoC4/CapSense.c **** 	    if(sensorState != (uint32)CapSense__HIZ_ANALOG)
 495              		.loc 1 1148 0
 496 002e 012A     		cmp	r2, #1
 497 0030 01D1     		bne	.L32
1133:.\Generated_Source\PSoC4/CapSense.c **** 	uint32 inactiveConnect = CapSense_SNS_HIZANALOG_CONNECT;
 498              		.loc 1 1133 0
 499 0032 0027     		mov	r7, #0
 500              	.LVL53:
 501 0034 00E0     		b	.L30
 502              	.L32:
1149:.\Generated_Source\PSoC4/CapSense.c **** 		{   
1150:.\Generated_Source\PSoC4/CapSense.c **** 		    /* Connected to Ground */
ARM GAS  C:\Users\kbuchi\AppData\Local\Temp\ccOUPaAd.s 			page 30


1151:.\Generated_Source\PSoC4/CapSense.c **** 		    inactiveConnect = (uint32)CapSense_SNS_GROUND_CONNECT;
 503              		.loc 1 1151 0
 504 0036 0627     		mov	r7, #6
 505              	.L30:
 506              	.LVL54:
1152:.\Generated_Source\PSoC4/CapSense.c **** 		}
1153:.\Generated_Source\PSoC4/CapSense.c **** 		
1154:.\Generated_Source\PSoC4/CapSense.c ****         interruptState = CyEnterCriticalSection();
 507              		.loc 1 1154 0
 508 0038 FFF7FEFF 		bl	CyEnterCriticalSection
 509              	.LVL55:
1155:.\Generated_Source\PSoC4/CapSense.c **** 
1156:.\Generated_Source\PSoC4/CapSense.c ****         /* Set drive mode */
1157:.\Generated_Source\PSoC4/CapSense.c ****     	newRegisterValue = *CapSense_prtCfgTbl[port];
 510              		.loc 1 1157 0
 511 003c AD00     		lsl	r5, r5, #2
 512              	.LVL56:
 513 003e 0A4B     		ldr	r3, .L33
 514              	.LVL57:
 515 0040 5D19     		add	r5, r3, r5
 516 0042 6B6A     		ldr	r3, [r5, #36]
 517              	.LVL58:
 518 0044 1A68     		ldr	r2, [r3]
 519              	.LVL59:
1158:.\Generated_Source\PSoC4/CapSense.c ****     	newRegisterValue &= ~(CapSense_CSD_PIN_MODE_MASK << pinModeShift);
 520              		.loc 1 1158 0
 521 0046 0721     		mov	r1, #7
 522 0048 B140     		lsl	r1, r1, r6
 523 004a 8A43     		bic	r2, r1
 524              	.LVL60:
1159:.\Generated_Source\PSoC4/CapSense.c ****     	newRegisterValue |=  (uint32)(inactiveConnect << pinModeShift);
 525              		.loc 1 1159 0
 526 004c B740     		lsl	r7, r7, r6
 527              	.LVL61:
 528 004e 3E1C     		mov	r6, r7
 529              	.LVL62:
 530 0050 1643     		orr	r6, r2
 531              	.LVL63:
1160:.\Generated_Source\PSoC4/CapSense.c ****         *CapSense_prtCfgTbl[port] =  newRegisterValue;
 532              		.loc 1 1160 0
 533 0052 1E60     		str	r6, [r3]
1161:.\Generated_Source\PSoC4/CapSense.c ****         
1162:.\Generated_Source\PSoC4/CapSense.c ****         CyExitCriticalSection(interruptState);
 534              		.loc 1 1162 0
 535 0054 FFF7FEFF 		bl	CyExitCriticalSection
 536              	.LVL64:
1163:.\Generated_Source\PSoC4/CapSense.c **** 
1164:.\Generated_Source\PSoC4/CapSense.c ****     	*CapSense_prtDRTbl[port]  &=  (uint32)~(uint32)((uint32)1u << CapSense_pinShiftTbl[sensor]); 
 537              		.loc 1 1164 0
 538 0058 AB6B     		ldr	r3, [r5, #56]
 539 005a 1A68     		ldr	r2, [r3]
 540 005c 0121     		mov	r1, #1
 541 005e A140     		lsl	r1, r1, r4
 542 0060 8A43     		bic	r2, r1
 543 0062 1A60     		str	r2, [r3]
1165:.\Generated_Source\PSoC4/CapSense.c **** 	#if(CapSense_IS_SHIELD_ENABLE != 0)
1166:.\Generated_Source\PSoC4/CapSense.c **** 	}
ARM GAS  C:\Users\kbuchi\AppData\Local\Temp\ccOUPaAd.s 			page 31


1167:.\Generated_Source\PSoC4/CapSense.c **** 	else
1168:.\Generated_Source\PSoC4/CapSense.c **** 	{
1169:.\Generated_Source\PSoC4/CapSense.c **** 		/* Connect to Shield */
1170:.\Generated_Source\PSoC4/CapSense.c **** 		*CapSense_prtSelTbl[port] |= (CapSense_CSD_SHIELD_PORT_MODE << pinHSIOMShift);
1171:.\Generated_Source\PSoC4/CapSense.c **** 	}
1172:.\Generated_Source\PSoC4/CapSense.c **** 	#endif /* (CapSense_IS_SHIELD_ENABLE) */
1173:.\Generated_Source\PSoC4/CapSense.c **** }
 544              		.loc 1 1173 0
 545              		@ sp needed
 546              	.LVL65:
 547              	.LVL66:
 548 0064 F8BD     		pop	{r3, r4, r5, r6, r7, pc}
 549              	.L34:
 550 0066 C046     		.align	2
 551              	.L33:
 552 0068 00000000 		.word	.LANCHOR2
 553 006c 00000000 		.word	CapSense_unscannedSnsDriveMode
 554              		.cfi_endproc
 555              	.LFE49:
 556              		.size	CapSense_DisableSensor, .-CapSense_DisableSensor
 557              		.section	.text.CapSense_ClearSensors,"ax",%progbits
 558              		.align	2
 559              		.global	CapSense_ClearSensors
 560              		.code	16
 561              		.thumb_func
 562              		.type	CapSense_ClearSensors, %function
 563              	CapSense_ClearSensors:
 564              	.LFB47:
 914:.\Generated_Source\PSoC4/CapSense.c **** {
 565              		.loc 1 914 0
 566              		.cfi_startproc
 567 0000 10B5     		push	{r4, lr}
 568              		.cfi_def_cfa_offset 8
 569              		.cfi_offset 4, -8
 570              		.cfi_offset 14, -4
 571              	.LVL67:
 917:.\Generated_Source\PSoC4/CapSense.c ****     for (snsIndex = 0u; snsIndex < CapSense_TOTAL_SENSOR_COUNT; snsIndex++)
 572              		.loc 1 917 0
 573 0002 0024     		mov	r4, #0
 574 0004 03E0     		b	.L36
 575              	.LVL68:
 576              	.L37:
 919:.\Generated_Source\PSoC4/CapSense.c ****         CapSense_DisableScanSlot(snsIndex);
 577              		.loc 1 919 0 discriminator 2
 578 0006 201C     		mov	r0, r4
 579 0008 FFF7FEFF 		bl	CapSense_DisableSensor
 580              	.LVL69:
 917:.\Generated_Source\PSoC4/CapSense.c ****     for (snsIndex = 0u; snsIndex < CapSense_TOTAL_SENSOR_COUNT; snsIndex++)
 581              		.loc 1 917 0 discriminator 2
 582 000c 0134     		add	r4, r4, #1
 583              	.LVL70:
 584              	.L36:
 917:.\Generated_Source\PSoC4/CapSense.c ****     for (snsIndex = 0u; snsIndex < CapSense_TOTAL_SENSOR_COUNT; snsIndex++)
 585              		.loc 1 917 0 is_stmt 0 discriminator 1
 586 000e 042C     		cmp	r4, #4
 587 0010 F9D9     		bls	.L37
 921:.\Generated_Source\PSoC4/CapSense.c **** }
ARM GAS  C:\Users\kbuchi\AppData\Local\Temp\ccOUPaAd.s 			page 32


 588              		.loc 1 921 0 is_stmt 1
 589              		@ sp needed
 590              	.LVL71:
 591 0012 10BD     		pop	{r4, pc}
 592              		.cfi_endproc
 593              	.LFE47:
 594              		.size	CapSense_ClearSensors, .-CapSense_ClearSensors
 595              		.section	.text.CapSense_SetPinDriveMode,"ax",%progbits
 596              		.align	2
 597              		.global	CapSense_SetPinDriveMode
 598              		.code	16
 599              		.thumb_func
 600              		.type	CapSense_SetPinDriveMode, %function
 601              	CapSense_SetPinDriveMode:
 602              	.LFB52:
1174:.\Generated_Source\PSoC4/CapSense.c **** 
1175:.\Generated_Source\PSoC4/CapSense.c **** 
1176:.\Generated_Source\PSoC4/CapSense.c **** /*******************************************************************************
1177:.\Generated_Source\PSoC4/CapSense.c **** * Function Name: CapSense_SetDriveModeAllPins
1178:.\Generated_Source\PSoC4/CapSense.c **** ********************************************************************************
1179:.\Generated_Source\PSoC4/CapSense.c **** *
1180:.\Generated_Source\PSoC4/CapSense.c **** * Summary:
1181:.\Generated_Source\PSoC4/CapSense.c **** * This API sets the drive mode of port pins used by the CapSense
1182:.\Generated_Source\PSoC4/CapSense.c **** * component (sensors, guard, shield, shield tank and Cmod) to drive the 
1183:.\Generated_Source\PSoC4/CapSense.c **** * mode specified by the argument.
1184:.\Generated_Source\PSoC4/CapSense.c **** *
1185:.\Generated_Source\PSoC4/CapSense.c **** * Parameters:
1186:.\Generated_Source\PSoC4/CapSense.c **** *  driveMode:  Drive mode definition.
1187:.\Generated_Source\PSoC4/CapSense.c **** *
1188:.\Generated_Source\PSoC4/CapSense.c **** * Return:
1189:.\Generated_Source\PSoC4/CapSense.c **** *  None
1190:.\Generated_Source\PSoC4/CapSense.c **** *
1191:.\Generated_Source\PSoC4/CapSense.c **** * Global Variables:
1192:.\Generated_Source\PSoC4/CapSense.c **** *  CapSense_portTable[] - used to store the port number that pin 
1193:.\Generated_Source\PSoC4/CapSense.c **** *  belongs to for each sensor.
1194:.\Generated_Source\PSoC4/CapSense.c **** *  CapSense_pinShiftTbl[] - used to store position of pin that 
1195:.\Generated_Source\PSoC4/CapSense.c **** *  configured as a sensor in the port. 
1196:.\Generated_Source\PSoC4/CapSense.c **** *
1197:.\Generated_Source\PSoC4/CapSense.c **** * Side Effects: 
1198:.\Generated_Source\PSoC4/CapSense.c **** *  This API shall be called only after CapSense component is stopped.
1199:.\Generated_Source\PSoC4/CapSense.c **** *
1200:.\Generated_Source\PSoC4/CapSense.c **** *******************************************************************************/
1201:.\Generated_Source\PSoC4/CapSense.c **** void CapSense_SetDriveModeAllPins(uint32 driveMode)
1202:.\Generated_Source\PSoC4/CapSense.c **** {
1203:.\Generated_Source\PSoC4/CapSense.c **** 	uint8 curSensor;
1204:.\Generated_Source\PSoC4/CapSense.c **** 	#if (CapSense_IS_COMPLEX_SCANSLOTS)
1205:.\Generated_Source\PSoC4/CapSense.c **** 		uint8 snsNumber;
1206:.\Generated_Source\PSoC4/CapSense.c **** 		uint8 snsType;
1207:.\Generated_Source\PSoC4/CapSense.c **** 	#endif  /* CapSense_IS_COMPLEX_SCANSLOTS */
1208:.\Generated_Source\PSoC4/CapSense.c **** 	uint32 prtNumberTmp;
1209:.\Generated_Source\PSoC4/CapSense.c **** 	uint32 pinNumberTmp;
1210:.\Generated_Source\PSoC4/CapSense.c **** 
1211:.\Generated_Source\PSoC4/CapSense.c **** 	for(curSensor = 0u; curSensor < CapSense_TOTAL_SENSOR_COUNT; curSensor++)
1212:.\Generated_Source\PSoC4/CapSense.c **** 	{	
1213:.\Generated_Source\PSoC4/CapSense.c **** 		#if (CapSense_IS_COMPLEX_SCANSLOTS)
1214:.\Generated_Source\PSoC4/CapSense.c **** 			/* Read sensor type: single or complex */
1215:.\Generated_Source\PSoC4/CapSense.c **** 			snsType = CapSense_portTable[curSensor];
ARM GAS  C:\Users\kbuchi\AppData\Local\Temp\ccOUPaAd.s 			page 33


1216:.\Generated_Source\PSoC4/CapSense.c **** 		
1217:.\Generated_Source\PSoC4/CapSense.c **** 			/* Check if sensor is complex */
1218:.\Generated_Source\PSoC4/CapSense.c **** 			if ((snsType & CapSense_COMPLEX_SS_FLAG) == 0u)
1219:.\Generated_Source\PSoC4/CapSense.c **** 			{
1220:.\Generated_Source\PSoC4/CapSense.c **** 				/* The sensor is not complex */
1221:.\Generated_Source\PSoC4/CapSense.c **** 				snsNumber = curSensor;
1222:.\Generated_Source\PSoC4/CapSense.c **** 			}
1223:.\Generated_Source\PSoC4/CapSense.c **** 			else
1224:.\Generated_Source\PSoC4/CapSense.c **** 			{
1225:.\Generated_Source\PSoC4/CapSense.c **** 				/* Get dedicated sensor ID of the complex sensor */
1226:.\Generated_Source\PSoC4/CapSense.c **** 				snsType &= ~CapSense_COMPLEX_SS_FLAG;
1227:.\Generated_Source\PSoC4/CapSense.c **** 				snsNumber = CapSense_indexTable[snsType];
1228:.\Generated_Source\PSoC4/CapSense.c **** 			}
1229:.\Generated_Source\PSoC4/CapSense.c **** 
1230:.\Generated_Source\PSoC4/CapSense.c **** 			prtNumberTmp = CapSense_portTable[snsNumber];
1231:.\Generated_Source\PSoC4/CapSense.c **** 			pinNumberTmp = CapSense_pinShiftTbl[snsNumber];
1232:.\Generated_Source\PSoC4/CapSense.c **** 		#else
1233:.\Generated_Source\PSoC4/CapSense.c **** 			prtNumberTmp = CapSense_portTable[curSensor];
1234:.\Generated_Source\PSoC4/CapSense.c **** 			pinNumberTmp = CapSense_pinShiftTbl[curSensor];
1235:.\Generated_Source\PSoC4/CapSense.c **** 		#endif  /* CapSense_IS_COMPLEX_SCANSLOTS */
1236:.\Generated_Source\PSoC4/CapSense.c **** 	
1237:.\Generated_Source\PSoC4/CapSense.c **** 		CapSense_SetPinDriveMode(driveMode, pinNumberTmp, prtNumberTmp);
1238:.\Generated_Source\PSoC4/CapSense.c **** 	}
1239:.\Generated_Source\PSoC4/CapSense.c **** 	
1240:.\Generated_Source\PSoC4/CapSense.c **** 	CapSense_SetPinDriveMode(driveMode, (uint32)CapSense_CMOD_PIN_NUMBER, (uint32)CapSense_CMOD_PRT_NU
1241:.\Generated_Source\PSoC4/CapSense.c **** 	
1242:.\Generated_Source\PSoC4/CapSense.c **** 	#if(0u != CapSense_CSH_TANK_ENABLE)
1243:.\Generated_Source\PSoC4/CapSense.c **** 		CapSense_SetPinDriveMode(driveMode, (uint32)CapSense_CTANK_PIN_NUMBER, (uint32)CapSense_CTANK_PRT
1244:.\Generated_Source\PSoC4/CapSense.c **** 	#endif /* (0u != CapSense_CSH_TANK_ENABLE) */	
1245:.\Generated_Source\PSoC4/CapSense.c **** 	
1246:.\Generated_Source\PSoC4/CapSense.c **** 	#if(0u != CapSense_IS_SHIELD_ENABLE)
1247:.\Generated_Source\PSoC4/CapSense.c **** 		CapSense_SetPinDriveMode(driveMode, (uint32)CapSense_SHIELD_PIN_NUMBER, (uint32)CapSense_SHIELD_P
1248:.\Generated_Source\PSoC4/CapSense.c **** 	#endif /* (0u != CapSense_IS_SHIELD_ENABLE) */	
1249:.\Generated_Source\PSoC4/CapSense.c **** }
1250:.\Generated_Source\PSoC4/CapSense.c **** 
1251:.\Generated_Source\PSoC4/CapSense.c **** 
1252:.\Generated_Source\PSoC4/CapSense.c **** /*******************************************************************************
1253:.\Generated_Source\PSoC4/CapSense.c **** * Function Name: CapSense_RestoreDriveModeAllPins
1254:.\Generated_Source\PSoC4/CapSense.c **** ********************************************************************************
1255:.\Generated_Source\PSoC4/CapSense.c **** *
1256:.\Generated_Source\PSoC4/CapSense.c **** * Summary:
1257:.\Generated_Source\PSoC4/CapSense.c **** *  This API restores the drive for all the CapSense port pins to the original
1258:.\Generated_Source\PSoC4/CapSense.c **** *  state.
1259:.\Generated_Source\PSoC4/CapSense.c **** *
1260:.\Generated_Source\PSoC4/CapSense.c **** * Parameters:
1261:.\Generated_Source\PSoC4/CapSense.c **** *  None
1262:.\Generated_Source\PSoC4/CapSense.c **** *
1263:.\Generated_Source\PSoC4/CapSense.c **** * Return:
1264:.\Generated_Source\PSoC4/CapSense.c **** *  None
1265:.\Generated_Source\PSoC4/CapSense.c **** *
1266:.\Generated_Source\PSoC4/CapSense.c **** * Global Variables:
1267:.\Generated_Source\PSoC4/CapSense.c **** *  CapSense_prtSelTbl[] - Contains pointers to the HSIOM 
1268:.\Generated_Source\PSoC4/CapSense.c **** *  registers for each port. 
1269:.\Generated_Source\PSoC4/CapSense.c **** *
1270:.\Generated_Source\PSoC4/CapSense.c **** * Side Effects: 
1271:.\Generated_Source\PSoC4/CapSense.c **** *  This API is called only after the CapSense component is stopped.
1272:.\Generated_Source\PSoC4/CapSense.c **** *
ARM GAS  C:\Users\kbuchi\AppData\Local\Temp\ccOUPaAd.s 			page 34


1273:.\Generated_Source\PSoC4/CapSense.c **** *******************************************************************************/
1274:.\Generated_Source\PSoC4/CapSense.c **** void CapSense_RestoreDriveModeAllPins(void)
1275:.\Generated_Source\PSoC4/CapSense.c **** {
1276:.\Generated_Source\PSoC4/CapSense.c **** 	uint32 newRegisterValue;
1277:.\Generated_Source\PSoC4/CapSense.c **** 	
1278:.\Generated_Source\PSoC4/CapSense.c **** 	CapSense_SetDriveModeAllPins(CY_SYS_PINS_DM_ALG_HIZ);
1279:.\Generated_Source\PSoC4/CapSense.c **** 	
1280:.\Generated_Source\PSoC4/CapSense.c **** 	newRegisterValue = CapSense_CMOD_CONNECTION_REG; 
1281:.\Generated_Source\PSoC4/CapSense.c ****     newRegisterValue &= ~(CapSense_CSD_CMOD_CONNECTION_MASK);
1282:.\Generated_Source\PSoC4/CapSense.c ****     newRegisterValue |= CapSense_CSD_CMOD_TO_AMUXBUS_A;
1283:.\Generated_Source\PSoC4/CapSense.c ****     CapSense_CMOD_CONNECTION_REG = newRegisterValue;
1284:.\Generated_Source\PSoC4/CapSense.c **** 	
1285:.\Generated_Source\PSoC4/CapSense.c **** 	#if(0u != CapSense_CSH_TANK_ENABLE)
1286:.\Generated_Source\PSoC4/CapSense.c **** 		newRegisterValue = CapSense_CTANK_CONNECTION_REG;
1287:.\Generated_Source\PSoC4/CapSense.c ****         newRegisterValue &= ~(CapSense_CSD_CTANK_CONNECTION_MASK);
1288:.\Generated_Source\PSoC4/CapSense.c **** 		newRegisterValue |= CapSense_CSD_CTANK_TO_AMUXBUS_B;
1289:.\Generated_Source\PSoC4/CapSense.c ****         CapSense_CTANK_CONNECTION_REG = newRegisterValue;
1290:.\Generated_Source\PSoC4/CapSense.c **** 	#endif/* (0u != CapSense_CSH_TANK_ENABLE) */
1291:.\Generated_Source\PSoC4/CapSense.c **** 	
1292:.\Generated_Source\PSoC4/CapSense.c **** 	#if(0u != CapSense_IS_SHIELD_ENABLE)
1293:.\Generated_Source\PSoC4/CapSense.c **** 		newRegisterValue = *CapSense_prtSelTbl[CapSense_SHIELD_PORT_NUMBER];
1294:.\Generated_Source\PSoC4/CapSense.c ****         newRegisterValue &= ~(CapSense_CSD_HSIOM_MASK << ((uint32)CapSense_SHIELD_PIN_NUMBER * CapS
1295:.\Generated_Source\PSoC4/CapSense.c ****         newRegisterValue |= (CapSense_CSD_SHIELD_PORT_MODE << ((uint32)CapSense_SHIELD_PIN_NUMBER *
1296:.\Generated_Source\PSoC4/CapSense.c ****         *CapSense_prtSelTbl[CapSense_SHIELD_PORT_NUMBER] = newRegisterValue;
1297:.\Generated_Source\PSoC4/CapSense.c **** 	#endif /* (0u != CapSense_IS_SHIELD_ENABLE) */	
1298:.\Generated_Source\PSoC4/CapSense.c **** }
1299:.\Generated_Source\PSoC4/CapSense.c **** 
1300:.\Generated_Source\PSoC4/CapSense.c **** 
1301:.\Generated_Source\PSoC4/CapSense.c **** /*******************************************************************************
1302:.\Generated_Source\PSoC4/CapSense.c **** * Function Name: CapSense_SetPinDriveMode
1303:.\Generated_Source\PSoC4/CapSense.c **** ********************************************************************************
1304:.\Generated_Source\PSoC4/CapSense.c **** *
1305:.\Generated_Source\PSoC4/CapSense.c **** * Summary:
1306:.\Generated_Source\PSoC4/CapSense.c **** * This API sets the drive mode for the appropriate port/pin.
1307:.\Generated_Source\PSoC4/CapSense.c **** *
1308:.\Generated_Source\PSoC4/CapSense.c **** * Parameters:
1309:.\Generated_Source\PSoC4/CapSense.c **** *  driveMode:  Drive mode definition.
1310:.\Generated_Source\PSoC4/CapSense.c **** *  portNumber: contains port number (0, 1, 2).
1311:.\Generated_Source\PSoC4/CapSense.c **** *  pinNumber: contains pin number (0, 1, 2, ... , 7).
1312:.\Generated_Source\PSoC4/CapSense.c **** *
1313:.\Generated_Source\PSoC4/CapSense.c **** * Return:
1314:.\Generated_Source\PSoC4/CapSense.c **** *  None
1315:.\Generated_Source\PSoC4/CapSense.c **** *
1316:.\Generated_Source\PSoC4/CapSense.c **** * Global Variables:
1317:.\Generated_Source\PSoC4/CapSense.c **** *  CapSense_prtSelTbl[] - Contains pointers to the HSIOM 
1318:.\Generated_Source\PSoC4/CapSense.c **** *  registers for each port. 
1319:.\Generated_Source\PSoC4/CapSense.c **** *  CapSense_prtCfgTb[] - Contains pointers to the port config 
1320:.\Generated_Source\PSoC4/CapSense.c **** *  registers for each port.
1321:.\Generated_Source\PSoC4/CapSense.c **** *
1322:.\Generated_Source\PSoC4/CapSense.c **** * Side Effects: 
1323:.\Generated_Source\PSoC4/CapSense.c **** *  This API is called only after CapSense component is stopped.
1324:.\Generated_Source\PSoC4/CapSense.c **** *
1325:.\Generated_Source\PSoC4/CapSense.c **** *******************************************************************************/
1326:.\Generated_Source\PSoC4/CapSense.c **** void CapSense_SetPinDriveMode(uint32 driveMode, uint32 pinNumber, uint32 portNumber)
1327:.\Generated_Source\PSoC4/CapSense.c **** {	
 603              		.loc 1 1327 0
 604              		.cfi_startproc
ARM GAS  C:\Users\kbuchi\AppData\Local\Temp\ccOUPaAd.s 			page 35


 605              	.LVL72:
 606 0000 10B5     		push	{r4, lr}
 607              		.cfi_def_cfa_offset 8
 608              		.cfi_offset 4, -8
 609              		.cfi_offset 14, -4
1328:.\Generated_Source\PSoC4/CapSense.c **** 	uint32  pinModeShift;
1329:.\Generated_Source\PSoC4/CapSense.c **** 	uint32 newRegisterValue;
1330:.\Generated_Source\PSoC4/CapSense.c **** 	
1331:.\Generated_Source\PSoC4/CapSense.c **** 	pinModeShift  = pinNumber * CapSense_PC_PIN_CFG_SIZE;
 610              		.loc 1 1331 0
 611 0002 4B00     		lsl	r3, r1, #1
 612 0004 5918     		add	r1, r3, r1
 613              	.LVL73:
1332:.\Generated_Source\PSoC4/CapSense.c **** 	
1333:.\Generated_Source\PSoC4/CapSense.c **** 	newRegisterValue = *CapSense_prtCfgTbl[portNumber];
 614              		.loc 1 1333 0
 615 0006 9200     		lsl	r2, r2, #2
 616              	.LVL74:
 617 0008 054B     		ldr	r3, .L39
 618 000a 9A18     		add	r2, r3, r2
 619 000c 536A     		ldr	r3, [r2, #36]
 620 000e 1A68     		ldr	r2, [r3]
 621              	.LVL75:
1334:.\Generated_Source\PSoC4/CapSense.c **** 	newRegisterValue &= ~(CapSense_CSD_PIN_MODE_MASK << pinModeShift);
 622              		.loc 1 1334 0
 623 0010 0724     		mov	r4, #7
 624 0012 8C40     		lsl	r4, r4, r1
 625 0014 A243     		bic	r2, r4
 626              	.LVL76:
1335:.\Generated_Source\PSoC4/CapSense.c **** 	newRegisterValue |=  (uint32)((uint32)driveMode << pinModeShift);
 627              		.loc 1 1335 0
 628 0016 8840     		lsl	r0, r0, r1
 629              	.LVL77:
 630 0018 011C     		mov	r1, r0
 631              	.LVL78:
 632 001a 1143     		orr	r1, r2
 633              	.LVL79:
1336:.\Generated_Source\PSoC4/CapSense.c ****     *CapSense_prtCfgTbl[portNumber] =  newRegisterValue;
 634              		.loc 1 1336 0
 635 001c 1960     		str	r1, [r3]
1337:.\Generated_Source\PSoC4/CapSense.c **** }
 636              		.loc 1 1337 0
 637              		@ sp needed
 638 001e 10BD     		pop	{r4, pc}
 639              	.L40:
 640              		.align	2
 641              	.L39:
 642 0020 00000000 		.word	.LANCHOR2
 643              		.cfi_endproc
 644              	.LFE52:
 645              		.size	CapSense_SetPinDriveMode, .-CapSense_SetPinDriveMode
 646              		.section	.text.CapSense_SetDriveModeAllPins,"ax",%progbits
 647              		.align	2
 648              		.global	CapSense_SetDriveModeAllPins
 649              		.code	16
 650              		.thumb_func
 651              		.type	CapSense_SetDriveModeAllPins, %function
ARM GAS  C:\Users\kbuchi\AppData\Local\Temp\ccOUPaAd.s 			page 36


 652              	CapSense_SetDriveModeAllPins:
 653              	.LFB50:
1202:.\Generated_Source\PSoC4/CapSense.c **** {
 654              		.loc 1 1202 0
 655              		.cfi_startproc
 656              	.LVL80:
 657 0000 70B5     		push	{r4, r5, r6, lr}
 658              		.cfi_def_cfa_offset 16
 659              		.cfi_offset 4, -16
 660              		.cfi_offset 5, -12
 661              		.cfi_offset 6, -8
 662              		.cfi_offset 14, -4
 663 0002 061C     		mov	r6, r0
 664              	.LVL81:
1211:.\Generated_Source\PSoC4/CapSense.c **** 	for(curSensor = 0u; curSensor < CapSense_TOTAL_SENSOR_COUNT; curSensor++)
 665              		.loc 1 1211 0
 666 0004 0024     		mov	r4, #0
1233:.\Generated_Source\PSoC4/CapSense.c **** 			prtNumberTmp = CapSense_portTable[curSensor];
 667              		.loc 1 1233 0
 668 0006 094D     		ldr	r5, .L44
1211:.\Generated_Source\PSoC4/CapSense.c **** 	for(curSensor = 0u; curSensor < CapSense_TOTAL_SENSOR_COUNT; curSensor++)
 669              		.loc 1 1211 0
 670 0008 07E0     		b	.L42
 671              	.LVL82:
 672              	.L43:
1233:.\Generated_Source\PSoC4/CapSense.c **** 			prtNumberTmp = CapSense_portTable[curSensor];
 673              		.loc 1 1233 0 discriminator 2
 674 000a 2A5D     		ldrb	r2, [r5, r4]
 675              	.LVL83:
1234:.\Generated_Source\PSoC4/CapSense.c **** 			pinNumberTmp = CapSense_pinShiftTbl[curSensor];
 676              		.loc 1 1234 0 discriminator 2
 677 000c 2B19     		add	r3, r5, r4
 678 000e 197A     		ldrb	r1, [r3, #8]
 679              	.LVL84:
1237:.\Generated_Source\PSoC4/CapSense.c **** 		CapSense_SetPinDriveMode(driveMode, pinNumberTmp, prtNumberTmp);
 680              		.loc 1 1237 0 discriminator 2
 681 0010 301C     		mov	r0, r6
 682 0012 FFF7FEFF 		bl	CapSense_SetPinDriveMode
 683              	.LVL85:
1211:.\Generated_Source\PSoC4/CapSense.c **** 	for(curSensor = 0u; curSensor < CapSense_TOTAL_SENSOR_COUNT; curSensor++)
 684              		.loc 1 1211 0 discriminator 2
 685 0016 0134     		add	r4, r4, #1
 686              	.LVL86:
 687 0018 E4B2     		uxtb	r4, r4
 688              	.LVL87:
 689              	.L42:
1211:.\Generated_Source\PSoC4/CapSense.c **** 	for(curSensor = 0u; curSensor < CapSense_TOTAL_SENSOR_COUNT; curSensor++)
 690              		.loc 1 1211 0 is_stmt 0 discriminator 1
 691 001a 042C     		cmp	r4, #4
 692 001c F5D9     		bls	.L43
1240:.\Generated_Source\PSoC4/CapSense.c **** 	CapSense_SetPinDriveMode(driveMode, (uint32)CapSense_CMOD_PIN_NUMBER, (uint32)CapSense_CMOD_PRT_NU
 693              		.loc 1 1240 0 is_stmt 1
 694 001e 301C     		mov	r0, r6
 695 0020 0221     		mov	r1, #2
 696 0022 0422     		mov	r2, #4
 697 0024 FFF7FEFF 		bl	CapSense_SetPinDriveMode
 698              	.LVL88:
ARM GAS  C:\Users\kbuchi\AppData\Local\Temp\ccOUPaAd.s 			page 37


1249:.\Generated_Source\PSoC4/CapSense.c **** }
 699              		.loc 1 1249 0
 700              		@ sp needed
 701              	.LVL89:
 702              	.LVL90:
 703 0028 70BD     		pop	{r4, r5, r6, pc}
 704              	.L45:
 705 002a C046     		.align	2
 706              	.L44:
 707 002c 00000000 		.word	.LANCHOR2
 708              		.cfi_endproc
 709              	.LFE50:
 710              		.size	CapSense_SetDriveModeAllPins, .-CapSense_SetDriveModeAllPins
 711              		.section	.text.CapSense_RestoreDriveModeAllPins,"ax",%progbits
 712              		.align	2
 713              		.global	CapSense_RestoreDriveModeAllPins
 714              		.code	16
 715              		.thumb_func
 716              		.type	CapSense_RestoreDriveModeAllPins, %function
 717              	CapSense_RestoreDriveModeAllPins:
 718              	.LFB51:
1275:.\Generated_Source\PSoC4/CapSense.c **** {
 719              		.loc 1 1275 0
 720              		.cfi_startproc
 721 0000 08B5     		push	{r3, lr}
 722              		.cfi_def_cfa_offset 8
 723              		.cfi_offset 3, -8
 724              		.cfi_offset 14, -4
1278:.\Generated_Source\PSoC4/CapSense.c **** 	CapSense_SetDriveModeAllPins(CY_SYS_PINS_DM_ALG_HIZ);
 725              		.loc 1 1278 0
 726 0002 0020     		mov	r0, #0
 727 0004 FFF7FEFF 		bl	CapSense_SetDriveModeAllPins
 728              	.LVL91:
1280:.\Generated_Source\PSoC4/CapSense.c **** 	newRegisterValue = CapSense_CMOD_CONNECTION_REG; 
 729              		.loc 1 1280 0
 730 0008 044B     		ldr	r3, .L47
 731 000a 1968     		ldr	r1, [r3]
 732              	.LVL92:
1281:.\Generated_Source\PSoC4/CapSense.c ****     newRegisterValue &= ~(CapSense_CSD_CMOD_CONNECTION_MASK);
 733              		.loc 1 1281 0
 734 000c 044A     		ldr	r2, .L47+4
 735 000e 0A40     		and	r2, r1
 736              	.LVL93:
1282:.\Generated_Source\PSoC4/CapSense.c ****     newRegisterValue |= CapSense_CSD_CMOD_TO_AMUXBUS_A;
 737              		.loc 1 1282 0
 738 0010 C021     		mov	r1, #192
 739 0012 C900     		lsl	r1, r1, #3
 740 0014 0A43     		orr	r2, r1
 741              	.LVL94:
1283:.\Generated_Source\PSoC4/CapSense.c ****     CapSense_CMOD_CONNECTION_REG = newRegisterValue;
 742              		.loc 1 1283 0
 743 0016 1A60     		str	r2, [r3]
1298:.\Generated_Source\PSoC4/CapSense.c **** }
 744              		.loc 1 1298 0
 745              		@ sp needed
 746 0018 08BD     		pop	{r3, pc}
 747              	.L48:
ARM GAS  C:\Users\kbuchi\AppData\Local\Temp\ccOUPaAd.s 			page 38


 748 001a C046     		.align	2
 749              	.L47:
 750 001c 10000140 		.word	1073807376
 751 0020 FFF0FFFF 		.word	-3841
 752              		.cfi_endproc
 753              	.LFE51:
 754              		.size	CapSense_RestoreDriveModeAllPins, .-CapSense_RestoreDriveModeAllPins
 755              		.section	.text.CapSense_EnableShieldElectrode,"ax",%progbits
 756              		.align	2
 757              		.global	CapSense_EnableShieldElectrode
 758              		.code	16
 759              		.thumb_func
 760              		.type	CapSense_EnableShieldElectrode, %function
 761              	CapSense_EnableShieldElectrode:
 762              	.LFB55:
1338:.\Generated_Source\PSoC4/CapSense.c **** 
1339:.\Generated_Source\PSoC4/CapSense.c **** 
1340:.\Generated_Source\PSoC4/CapSense.c **** /*******************************************************************************
1341:.\Generated_Source\PSoC4/CapSense.c **** * Function Name: CapSense_PreScan
1342:.\Generated_Source\PSoC4/CapSense.c **** ********************************************************************************
1343:.\Generated_Source\PSoC4/CapSense.c **** *
1344:.\Generated_Source\PSoC4/CapSense.c **** * Summary:
1345:.\Generated_Source\PSoC4/CapSense.c **** *  Sets required settings, enables a sensor, removes Vref from AMUX and starts the 
1346:.\Generated_Source\PSoC4/CapSense.c **** *  scanning process of the sensor.
1347:.\Generated_Source\PSoC4/CapSense.c **** *
1348:.\Generated_Source\PSoC4/CapSense.c **** * Parameters:
1349:.\Generated_Source\PSoC4/CapSense.c **** *  sensor:  Sensor number.
1350:.\Generated_Source\PSoC4/CapSense.c **** *
1351:.\Generated_Source\PSoC4/CapSense.c **** * Return:
1352:.\Generated_Source\PSoC4/CapSense.c **** *  None
1353:.\Generated_Source\PSoC4/CapSense.c **** *
1354:.\Generated_Source\PSoC4/CapSense.c **** * Global Variables:
1355:.\Generated_Source\PSoC4/CapSense.c **** * CapSense_widgetNumber[] - This array contains numbers of widgets for each sensor.
1356:.\Generated_Source\PSoC4/CapSense.c **** * CapSense_widgetResolution[] - Contains the widget resolution.
1357:.\Generated_Source\PSoC4/CapSense.c **** *
1358:.\Generated_Source\PSoC4/CapSense.c **** * Side Effects: 
1359:.\Generated_Source\PSoC4/CapSense.c **** *  None
1360:.\Generated_Source\PSoC4/CapSense.c **** *
1361:.\Generated_Source\PSoC4/CapSense.c **** *******************************************************************************/
1362:.\Generated_Source\PSoC4/CapSense.c **** void CapSense_PreScan(uint32 sensor)
1363:.\Generated_Source\PSoC4/CapSense.c **** {
1364:.\Generated_Source\PSoC4/CapSense.c ****     uint8 widget;
1365:.\Generated_Source\PSoC4/CapSense.c ****     uint8 interruptState;
1366:.\Generated_Source\PSoC4/CapSense.c **** 	uint32 newRegValue;
1367:.\Generated_Source\PSoC4/CapSense.c **** 	uint32 counterResolution;
1368:.\Generated_Source\PSoC4/CapSense.c **** 	
1369:.\Generated_Source\PSoC4/CapSense.c **** 	#if(CapSense_PRS_OPTIONS == CapSense__PRS_AUTO)
1370:.\Generated_Source\PSoC4/CapSense.c **** 		uint8 senseClkDivMath;
1371:.\Generated_Source\PSoC4/CapSense.c **** 		uint8 sampleClkDivMath;
1372:.\Generated_Source\PSoC4/CapSense.c **** 	#endif /* (CapSense_PRS_OPTIONS == CapSense__PRS_AUTO) */	
1373:.\Generated_Source\PSoC4/CapSense.c **** 	
1374:.\Generated_Source\PSoC4/CapSense.c **** 	#if ((CapSense_TUNING_METHOD == CapSense__TUNING_AUTO) &&\
1375:.\Generated_Source\PSoC4/CapSense.c **** 		 (0 != CapSense_IS_OVERSAMPLING_EN))
1376:.\Generated_Source\PSoC4/CapSense.c **** 		uint32 oversamplingFactor;
1377:.\Generated_Source\PSoC4/CapSense.c **** 	#endif /* ((CapSense_TUNING_METHOD == CapSense__TUNING_AUTO) &&\
1378:.\Generated_Source\PSoC4/CapSense.c **** 	           (0 != CapSense_IS_OVERSAMPLING_EN)) */
1379:.\Generated_Source\PSoC4/CapSense.c **** 
ARM GAS  C:\Users\kbuchi\AppData\Local\Temp\ccOUPaAd.s 			page 39


1380:.\Generated_Source\PSoC4/CapSense.c ****     /* Define widget sensor belongs to */
1381:.\Generated_Source\PSoC4/CapSense.c ****     widget = CapSense_widgetNumber[sensor];
1382:.\Generated_Source\PSoC4/CapSense.c **** 
1383:.\Generated_Source\PSoC4/CapSense.c **** 	/* Recalculate Counter Resolution to MSB 16 bits */
1384:.\Generated_Source\PSoC4/CapSense.c **** 	counterResolution = CapSense_widgetResolution[widget];
1385:.\Generated_Source\PSoC4/CapSense.c **** 	
1386:.\Generated_Source\PSoC4/CapSense.c **** 	#if ((CapSense_TUNING_METHOD == CapSense__TUNING_AUTO) &&\
1387:.\Generated_Source\PSoC4/CapSense.c **** 		 (0 != CapSense_IS_OVERSAMPLING_EN))
1388:.\Generated_Source\PSoC4/CapSense.c **** 	    oversamplingFactor = CapSense_GetBitValue(scanSpeedTbl, sensor);
1389:.\Generated_Source\PSoC4/CapSense.c **** 
1390:.\Generated_Source\PSoC4/CapSense.c **** 		if(counterResolution < CapSense_RESOLUTION_16_BITS)
1391:.\Generated_Source\PSoC4/CapSense.c **** 		{
1392:.\Generated_Source\PSoC4/CapSense.c **** 			counterResolution <<= oversamplingFactor;
1393:.\Generated_Source\PSoC4/CapSense.c **** 			counterResolution |= (uint32)(CapSense_RESOLUTION_8_BITS);
1394:.\Generated_Source\PSoC4/CapSense.c **** 		}
1395:.\Generated_Source\PSoC4/CapSense.c **** 	#endif /* ((CapSense_TUNING_METHOD == CapSense__TUNING_AUTO) &&\
1396:.\Generated_Source\PSoC4/CapSense.c **** 	           (0 != CapSense_IS_OVERSAMPLING_EN)) */
1397:.\Generated_Source\PSoC4/CapSense.c **** 	
1398:.\Generated_Source\PSoC4/CapSense.c **** 	#if (0u != CapSense_IS_M0S8PERI_BLOCK)
1399:.\Generated_Source\PSoC4/CapSense.c **** 		CapSense_SenseClk_Stop();
1400:.\Generated_Source\PSoC4/CapSense.c **** 		CapSense_SampleClk_Stop();
1401:.\Generated_Source\PSoC4/CapSense.c **** 	#endif /* (0u != CapSense_IS_M0S8PERI_BLOCK) */
1402:.\Generated_Source\PSoC4/CapSense.c **** 
1403:.\Generated_Source\PSoC4/CapSense.c **** 	#if (0u != CapSense_MULTIPLE_FREQUENCY_SET)
1404:.\Generated_Source\PSoC4/CapSense.c **** 		CapSense_SampleClk_SetDividerValue((uint16)CapSense_sampleClkDividerVal[sensor]);
1405:.\Generated_Source\PSoC4/CapSense.c **** 		CapSense_SenseClk_SetDividerValue((uint16)CapSense_senseClkDividerVal[sensor]);
1406:.\Generated_Source\PSoC4/CapSense.c **** 	#else
1407:.\Generated_Source\PSoC4/CapSense.c **** 		CapSense_SampleClk_SetDividerValue((uint16)CapSense_sampleClkDividerVal);
1408:.\Generated_Source\PSoC4/CapSense.c **** 		CapSense_SenseClk_SetDividerValue((uint16)CapSense_senseClkDividerVal);
1409:.\Generated_Source\PSoC4/CapSense.c **** 	#endif /* (0u != CapSense_MULTIPLE_FREQUENCY_SET) */
1410:.\Generated_Source\PSoC4/CapSense.c **** 
1411:.\Generated_Source\PSoC4/CapSense.c **** 	#if (0u != CapSense_IS_M0S8PERI_BLOCK)
1412:.\Generated_Source\PSoC4/CapSense.c **** 		CapSense_SampleClk_Start();
1413:.\Generated_Source\PSoC4/CapSense.c **** 		CapSense_SenseClk_StartEx(CapSense_SampleClk__DIV_ID);
1414:.\Generated_Source\PSoC4/CapSense.c **** 		
1415:.\Generated_Source\PSoC4/CapSense.c **** 		#if(CapSense_PRS_OPTIONS == CapSense__PRS_NONE)
1416:.\Generated_Source\PSoC4/CapSense.c **** 			CyIntDisable(CapSense_ISR_NUMBER);
1417:.\Generated_Source\PSoC4/CapSense.c **** 			CapSense_CSD_CNT_REG = CapSense_ONE_CYCLE;
1418:.\Generated_Source\PSoC4/CapSense.c **** 			while(0u != (CapSense_CSD_CNT_REG & CapSense_RESOLUTION_16_BITS))
1419:.\Generated_Source\PSoC4/CapSense.c **** 			{
1420:.\Generated_Source\PSoC4/CapSense.c **** 			/* Wait until scanning is complete */ 
1421:.\Generated_Source\PSoC4/CapSense.c **** 			}
1422:.\Generated_Source\PSoC4/CapSense.c **** 			CapSense_CSD_INTR_REG = 1u;
1423:.\Generated_Source\PSoC4/CapSense.c **** 			CyIntClearPending(CapSense_ISR_NUMBER);
1424:.\Generated_Source\PSoC4/CapSense.c **** 			CyIntEnable(CapSense_ISR_NUMBER); 
1425:.\Generated_Source\PSoC4/CapSense.c **** 		#endif /* CapSense_PRS_OPTIONS == CapSense__PRS_NONE */
1426:.\Generated_Source\PSoC4/CapSense.c **** 	#endif /* (0u != CapSense_IS_M0S8PERI_BLOCK) */
1427:.\Generated_Source\PSoC4/CapSense.c **** 
1428:.\Generated_Source\PSoC4/CapSense.c **** #if(CapSense_PRS_OPTIONS != CapSense__PRS_NONE)
1429:.\Generated_Source\PSoC4/CapSense.c **** 
1430:.\Generated_Source\PSoC4/CapSense.c **** 	#if(CapSense_TUNING_METHOD == CapSense__TUNING_AUTO)
1431:.\Generated_Source\PSoC4/CapSense.c **** 		if(CapSense_prescalersTuningDone != 0u)
1432:.\Generated_Source\PSoC4/CapSense.c **** 		{
1433:.\Generated_Source\PSoC4/CapSense.c **** 	#endif /* (CapSense_TUNING_METHOD == CapSense__TUNING_AUTO) */
1434:.\Generated_Source\PSoC4/CapSense.c **** 			
1435:.\Generated_Source\PSoC4/CapSense.c **** 			CyIntDisable(CapSense_ISR_NUMBER);
1436:.\Generated_Source\PSoC4/CapSense.c **** 			
ARM GAS  C:\Users\kbuchi\AppData\Local\Temp\ccOUPaAd.s 			page 40


1437:.\Generated_Source\PSoC4/CapSense.c **** 			newRegValue = CapSense_CSD_CFG_REG;
1438:.\Generated_Source\PSoC4/CapSense.c **** 			newRegValue |= CapSense_CSD_CFG_PRS_SELECT;
1439:.\Generated_Source\PSoC4/CapSense.c **** 			
1440:.\Generated_Source\PSoC4/CapSense.c **** 			#if(CapSense_PRS_OPTIONS == CapSense__PRS_AUTO)
1441:.\Generated_Source\PSoC4/CapSense.c **** 				
1442:.\Generated_Source\PSoC4/CapSense.c **** 				newRegValue &= ~(CapSense_PRS_MODE_MASK);
1443:.\Generated_Source\PSoC4/CapSense.c **** 				
1444:.\Generated_Source\PSoC4/CapSense.c **** 				#if (0u != CapSense_MULTIPLE_FREQUENCY_SET)
1445:.\Generated_Source\PSoC4/CapSense.c **** 					senseClkDivMath = CapSense_senseClkDividerVal[sensor];
1446:.\Generated_Source\PSoC4/CapSense.c **** 					sampleClkDivMath = CapSense_sampleClkDividerVal[sensor];
1447:.\Generated_Source\PSoC4/CapSense.c **** 				#else
1448:.\Generated_Source\PSoC4/CapSense.c **** 					senseClkDivMath = CapSense_senseClkDividerVal;
1449:.\Generated_Source\PSoC4/CapSense.c **** 					sampleClkDivMath = CapSense_sampleClkDividerVal;
1450:.\Generated_Source\PSoC4/CapSense.c **** 				#endif /* ( CapSense_MULTIPLE_FREQUENCY_SET) */
1451:.\Generated_Source\PSoC4/CapSense.c **** 				
1452:.\Generated_Source\PSoC4/CapSense.c **** 				#if(0u == CapSense_IS_M0S8PERI_BLOCK)
1453:.\Generated_Source\PSoC4/CapSense.c **** 					senseClkDivMath *= sampleClkDivMath;
1454:.\Generated_Source\PSoC4/CapSense.c **** 				#endif /* (0u == CapSense_IS_M0S8PERI_BLOCK) */	
1455:.\Generated_Source\PSoC4/CapSense.c **** 				
1456:.\Generated_Source\PSoC4/CapSense.c **** 				if((senseClkDivMath * CapSense_RESOLUTION_12_BITS) <
1457:.\Generated_Source\PSoC4/CapSense.c **** 				   (sampleClkDivMath * CapSense_widgetResolution[widget]))
1458:.\Generated_Source\PSoC4/CapSense.c **** 				{
1459:.\Generated_Source\PSoC4/CapSense.c **** 					newRegValue |= CapSense_CSD_PRS_12_BIT;
1460:.\Generated_Source\PSoC4/CapSense.c **** 				}
1461:.\Generated_Source\PSoC4/CapSense.c **** 			#endif /* (CapSense_PRS_OPTIONS == CapSense__PRS_AUTO) */
1462:.\Generated_Source\PSoC4/CapSense.c **** 			
1463:.\Generated_Source\PSoC4/CapSense.c **** 			CapSense_CSD_CFG_REG = newRegValue;
1464:.\Generated_Source\PSoC4/CapSense.c **** 			
1465:.\Generated_Source\PSoC4/CapSense.c **** 			CyIntEnable(CapSense_ISR_NUMBER);
1466:.\Generated_Source\PSoC4/CapSense.c **** 			
1467:.\Generated_Source\PSoC4/CapSense.c **** 	#if(CapSense_TUNING_METHOD == CapSense__TUNING_AUTO)	
1468:.\Generated_Source\PSoC4/CapSense.c **** 		}
1469:.\Generated_Source\PSoC4/CapSense.c **** 	#endif /* (CapSense_PRS_OPTIONS != CapSense__PRS_NONE) */
1470:.\Generated_Source\PSoC4/CapSense.c **** 
1471:.\Generated_Source\PSoC4/CapSense.c **** #endif /* (CapSense_PRS_OPTIONS == CapSense__PRS_NONE) */
1472:.\Generated_Source\PSoC4/CapSense.c **** 	
1473:.\Generated_Source\PSoC4/CapSense.c **** 	/* Set Idac Value */
1474:.\Generated_Source\PSoC4/CapSense.c **** 	CyIntDisable(CapSense_ISR_NUMBER);
1475:.\Generated_Source\PSoC4/CapSense.c ****     newRegValue = CapSense_CSD_IDAC_REG;
1476:.\Generated_Source\PSoC4/CapSense.c ****  
1477:.\Generated_Source\PSoC4/CapSense.c **** #if (CapSense_IDAC_CNT == 1u)    
1478:.\Generated_Source\PSoC4/CapSense.c **** 	newRegValue &= ~(CapSense_CSD_IDAC1_DATA_MASK);
1479:.\Generated_Source\PSoC4/CapSense.c **** 	newRegValue |= CapSense_modulationIDAC[sensor];
1480:.\Generated_Source\PSoC4/CapSense.c **** #else
1481:.\Generated_Source\PSoC4/CapSense.c **** 	newRegValue &= ~(CapSense_CSD_IDAC1_DATA_MASK | CapSense_CSD_IDAC2_DATA_MASK);
1482:.\Generated_Source\PSoC4/CapSense.c **** 	newRegValue |= (CapSense_modulationIDAC[sensor] | 
1483:.\Generated_Source\PSoC4/CapSense.c **** 							(uint32)((uint32)CapSense_compensationIDAC[sensor] <<
1484:.\Generated_Source\PSoC4/CapSense.c **** 							CapSense_CSD_IDAC2_DATA_OFFSET));                               
1485:.\Generated_Source\PSoC4/CapSense.c **** #endif /* (CapSense_IDAC_CNT == 1u) */
1486:.\Generated_Source\PSoC4/CapSense.c **** 	
1487:.\Generated_Source\PSoC4/CapSense.c **** 	CapSense_CSD_IDAC_REG = newRegValue;
1488:.\Generated_Source\PSoC4/CapSense.c **** 
1489:.\Generated_Source\PSoC4/CapSense.c **** #if(CapSense_CMOD_PREGARGE_OPTION == CapSense__CAPPRIOBUF)
1490:.\Generated_Source\PSoC4/CapSense.c **** 	newRegValue = CapSense_CMOD_CONNECTION_REG;
1491:.\Generated_Source\PSoC4/CapSense.c **** 	newRegValue &= ~(CapSense_CSD_CMOD_CONNECTION_MASK);
1492:.\Generated_Source\PSoC4/CapSense.c **** 	newRegValue |= CapSense_CSD_CMOD_TO_AMUXBUS_A;
1493:.\Generated_Source\PSoC4/CapSense.c **** 	CapSense_CMOD_CONNECTION_REG = newRegValue;
ARM GAS  C:\Users\kbuchi\AppData\Local\Temp\ccOUPaAd.s 			page 41


1494:.\Generated_Source\PSoC4/CapSense.c **** 	
1495:.\Generated_Source\PSoC4/CapSense.c **** 	newRegValue = CapSense_CMOD_PORT_PC_REG;
1496:.\Generated_Source\PSoC4/CapSense.c **** 	newRegValue &= ~(CapSense_CSD_CMOD_PC_MASK);
1497:.\Generated_Source\PSoC4/CapSense.c **** 	newRegValue |= CapSense_CMOD_PC_HIGH_Z_MODE;
1498:.\Generated_Source\PSoC4/CapSense.c **** 	CapSense_CMOD_PORT_PC_REG = newRegValue;
1499:.\Generated_Source\PSoC4/CapSense.c **** #endif /* (CapSense_CMOD_PREGARGE_OPTION == CapSense__CAPPRIOBUF) */
1500:.\Generated_Source\PSoC4/CapSense.c **** 
1501:.\Generated_Source\PSoC4/CapSense.c ****     /* Disconnect Vref Buffer from AMUX */
1502:.\Generated_Source\PSoC4/CapSense.c **** 	newRegValue = CapSense_CSD_CFG_REG;
1503:.\Generated_Source\PSoC4/CapSense.c **** 	newRegValue &= ~(CapSense_PRECHARGE_CONFIG_MASK);
1504:.\Generated_Source\PSoC4/CapSense.c **** 	newRegValue |= CapSense_CTANK_PRECHARGE_CONFIG;
1505:.\Generated_Source\PSoC4/CapSense.c **** 	
1506:.\Generated_Source\PSoC4/CapSense.c **** 	CyIntEnable(CapSense_ISR_NUMBER);
1507:.\Generated_Source\PSoC4/CapSense.c **** 	
1508:.\Generated_Source\PSoC4/CapSense.c ****     /* Enable Sensor */
1509:.\Generated_Source\PSoC4/CapSense.c ****     CapSense_EnableScanSlot(sensor);
1510:.\Generated_Source\PSoC4/CapSense.c ****     
1511:.\Generated_Source\PSoC4/CapSense.c **** 	interruptState = CyEnterCriticalSection();
1512:.\Generated_Source\PSoC4/CapSense.c **** 	CapSense_CSD_CFG_REG = newRegValue;
1513:.\Generated_Source\PSoC4/CapSense.c **** 	
1514:.\Generated_Source\PSoC4/CapSense.c **** 	/* `#START CapSense_PreSettlingDelay_Debug` */
1515:.\Generated_Source\PSoC4/CapSense.c **** 
1516:.\Generated_Source\PSoC4/CapSense.c **** 	/* `#END` */
1517:.\Generated_Source\PSoC4/CapSense.c **** 	
1518:.\Generated_Source\PSoC4/CapSense.c **** 	CyDelayCycles(CapSense_GLITCH_ELIMINATION_CYCLES);
1519:.\Generated_Source\PSoC4/CapSense.c **** 	
1520:.\Generated_Source\PSoC4/CapSense.c **** 	/* `#START CapSense_PreScan_Debug` */
1521:.\Generated_Source\PSoC4/CapSense.c **** 
1522:.\Generated_Source\PSoC4/CapSense.c **** 	/* `#END` */
1523:.\Generated_Source\PSoC4/CapSense.c **** 	
1524:.\Generated_Source\PSoC4/CapSense.c ****     CapSense_CSD_CNT_REG = counterResolution;
1525:.\Generated_Source\PSoC4/CapSense.c ****     CyExitCriticalSection(interruptState);
1526:.\Generated_Source\PSoC4/CapSense.c **** }
1527:.\Generated_Source\PSoC4/CapSense.c **** 
1528:.\Generated_Source\PSoC4/CapSense.c **** 
1529:.\Generated_Source\PSoC4/CapSense.c **** /*******************************************************************************
1530:.\Generated_Source\PSoC4/CapSense.c **** * Function Name: CapSense_PostScan
1531:.\Generated_Source\PSoC4/CapSense.c **** ********************************************************************************
1532:.\Generated_Source\PSoC4/CapSense.c **** *
1533:.\Generated_Source\PSoC4/CapSense.c **** * Summary:
1534:.\Generated_Source\PSoC4/CapSense.c **** *  Stores the results of measurement in the CapSense_sensorRaw[] array,
1535:.\Generated_Source\PSoC4/CapSense.c **** *  sets the scanning sensor in the non-sampling state, turns off Idac(Current Source IDAC),
1536:.\Generated_Source\PSoC4/CapSense.c **** *  disconnects the IDAC(Sink mode), and applies Vref on AMUX.
1537:.\Generated_Source\PSoC4/CapSense.c **** *
1538:.\Generated_Source\PSoC4/CapSense.c **** * Parameters:
1539:.\Generated_Source\PSoC4/CapSense.c **** *  sensor:  Sensor number.
1540:.\Generated_Source\PSoC4/CapSense.c **** *
1541:.\Generated_Source\PSoC4/CapSense.c **** * Return:
1542:.\Generated_Source\PSoC4/CapSense.c **** *  None
1543:.\Generated_Source\PSoC4/CapSense.c **** *
1544:.\Generated_Source\PSoC4/CapSense.c **** * Global Variables:
1545:.\Generated_Source\PSoC4/CapSense.c **** *  CapSense_sensorRaw[] - used to store sensors raw data.
1546:.\Generated_Source\PSoC4/CapSense.c **** *
1547:.\Generated_Source\PSoC4/CapSense.c **** * Side Effects: 
1548:.\Generated_Source\PSoC4/CapSense.c **** *  None
1549:.\Generated_Source\PSoC4/CapSense.c **** *
1550:.\Generated_Source\PSoC4/CapSense.c **** *******************************************************************************/
ARM GAS  C:\Users\kbuchi\AppData\Local\Temp\ccOUPaAd.s 			page 42


1551:.\Generated_Source\PSoC4/CapSense.c **** void CapSense_PostScan(uint32 sensor)
1552:.\Generated_Source\PSoC4/CapSense.c **** {	
1553:.\Generated_Source\PSoC4/CapSense.c **** 	uint32 newRegValue;
1554:.\Generated_Source\PSoC4/CapSense.c **** #if ((CapSense_TUNING_METHOD == CapSense__TUNING_AUTO) &&\
1555:.\Generated_Source\PSoC4/CapSense.c **** 	 (0 != CapSense_IS_OVERSAMPLING_EN))
1556:.\Generated_Source\PSoC4/CapSense.c ****     uint32 oversamplingFactor;
1557:.\Generated_Source\PSoC4/CapSense.c ****     uint32 widget;
1558:.\Generated_Source\PSoC4/CapSense.c **** #endif /* ((CapSense_TUNING_METHOD == CapSense__TUNING_AUTO) &&\
1559:.\Generated_Source\PSoC4/CapSense.c **** 		   (0 != CapSense_IS_OVERSAMPLING_EN)) */	
1560:.\Generated_Source\PSoC4/CapSense.c **** 
1561:.\Generated_Source\PSoC4/CapSense.c **** 	/* `#START CapSense_PostScan_Debug` */
1562:.\Generated_Source\PSoC4/CapSense.c **** 
1563:.\Generated_Source\PSoC4/CapSense.c **** 	/* `#END` */
1564:.\Generated_Source\PSoC4/CapSense.c **** 
1565:.\Generated_Source\PSoC4/CapSense.c **** 
1566:.\Generated_Source\PSoC4/CapSense.c ****     /* Read SlotResult from Raw Counter */
1567:.\Generated_Source\PSoC4/CapSense.c ****     CapSense_sensorRaw[sensor]  = (uint16)CapSense_CSD_CNT_REG;
1568:.\Generated_Source\PSoC4/CapSense.c **** 	
1569:.\Generated_Source\PSoC4/CapSense.c **** #if ((CapSense_TUNING_METHOD == CapSense__TUNING_AUTO) &&\
1570:.\Generated_Source\PSoC4/CapSense.c **** 	 (0 != CapSense_IS_OVERSAMPLING_EN))
1571:.\Generated_Source\PSoC4/CapSense.c **** 	widget = CapSense_widgetNumber[sensor];
1572:.\Generated_Source\PSoC4/CapSense.c **** 	if(CapSense_widgetResolution[widget] < CapSense_RESOLUTION_16_BITS)
1573:.\Generated_Source\PSoC4/CapSense.c **** 	{
1574:.\Generated_Source\PSoC4/CapSense.c **** 		oversamplingFactor = CapSense_GetBitValue(scanSpeedTbl, sensor);
1575:.\Generated_Source\PSoC4/CapSense.c **** 		CapSense_sensorRaw[sensor] >>= oversamplingFactor;
1576:.\Generated_Source\PSoC4/CapSense.c **** 	}
1577:.\Generated_Source\PSoC4/CapSense.c **** #endif /* ((CapSense_TUNING_METHOD == CapSense__TUNING_AUTO) &&\
1578:.\Generated_Source\PSoC4/CapSense.c **** 		   (0 != CapSense_IS_OVERSAMPLING_EN)) */
1579:.\Generated_Source\PSoC4/CapSense.c **** 
1580:.\Generated_Source\PSoC4/CapSense.c ****     /* Disable Sensor */
1581:.\Generated_Source\PSoC4/CapSense.c ****     CapSense_DisableScanSlot(sensor);
1582:.\Generated_Source\PSoC4/CapSense.c **** 
1583:.\Generated_Source\PSoC4/CapSense.c **** 	CyIntDisable(CapSense_ISR_NUMBER);
1584:.\Generated_Source\PSoC4/CapSense.c **** 	
1585:.\Generated_Source\PSoC4/CapSense.c **** #if(CapSense_CMOD_PREGARGE_OPTION == CapSense__CAPPRIOBUF)
1586:.\Generated_Source\PSoC4/CapSense.c **** 	newRegValue = CapSense_CMOD_CONNECTION_REG;
1587:.\Generated_Source\PSoC4/CapSense.c **** 	newRegValue &= ~(CapSense_CSD_CMOD_CONNECTION_MASK);
1588:.\Generated_Source\PSoC4/CapSense.c **** 	newRegValue |= CapSense_CSD_CMOD_TO_AMUXBUS_B;
1589:.\Generated_Source\PSoC4/CapSense.c **** 	CapSense_CMOD_CONNECTION_REG = newRegValue;
1590:.\Generated_Source\PSoC4/CapSense.c **** 	
1591:.\Generated_Source\PSoC4/CapSense.c **** 	newRegValue = CapSense_CMOD_PORT_PC_REG;
1592:.\Generated_Source\PSoC4/CapSense.c **** 	newRegValue &= ~(CapSense_CSD_CMOD_PC_MASK);
1593:.\Generated_Source\PSoC4/CapSense.c **** 	newRegValue |= CapSense_CMOD_PC_STRONG_MODE;
1594:.\Generated_Source\PSoC4/CapSense.c **** 	CapSense_CMOD_PORT_PC_REG = newRegValue;
1595:.\Generated_Source\PSoC4/CapSense.c **** 		
1596:.\Generated_Source\PSoC4/CapSense.c **** 	newRegValue = CapSense_CMOD_PORT_DR_REG;
1597:.\Generated_Source\PSoC4/CapSense.c ****     newRegValue &= ~(CapSense_CMOD_DR_MASK);
1598:.\Generated_Source\PSoC4/CapSense.c **** 	newRegValue |= CapSense_CMOD_DR_CONFIG;
1599:.\Generated_Source\PSoC4/CapSense.c ****     CapSense_CMOD_PORT_DR_REG = newRegValue;    
1600:.\Generated_Source\PSoC4/CapSense.c **** #endif /* (CapSense_CMOD_PREGARGE_OPTION == CapSense__CAPPRIOBUF) */
1601:.\Generated_Source\PSoC4/CapSense.c **** 	
1602:.\Generated_Source\PSoC4/CapSense.c **** 	/* Connect Vref Buffer to AMUX bus  */
1603:.\Generated_Source\PSoC4/CapSense.c **** 	newRegValue = CapSense_CSD_CFG_REG;
1604:.\Generated_Source\PSoC4/CapSense.c **** 	newRegValue &= ~(CapSense_PRECHARGE_CONFIG_MASK);
1605:.\Generated_Source\PSoC4/CapSense.c **** 	newRegValue |= CapSense_CMOD_PRECHARGE_CONFIG;
1606:.\Generated_Source\PSoC4/CapSense.c **** 	CapSense_CSD_CFG_REG = newRegValue;
1607:.\Generated_Source\PSoC4/CapSense.c **** 
ARM GAS  C:\Users\kbuchi\AppData\Local\Temp\ccOUPaAd.s 			page 43


1608:.\Generated_Source\PSoC4/CapSense.c **** 	/* Set Idac Value = 0 */
1609:.\Generated_Source\PSoC4/CapSense.c **** #if (CapSense_IDAC_CNT == 1u)   
1610:.\Generated_Source\PSoC4/CapSense.c **** 	CapSense_CSD_IDAC_REG &= ~(CapSense_CSD_IDAC1_DATA_MASK);
1611:.\Generated_Source\PSoC4/CapSense.c **** #else
1612:.\Generated_Source\PSoC4/CapSense.c **** 	CapSense_CSD_IDAC_REG &= ~(CapSense_CSD_IDAC1_DATA_MASK | CapSense_CSD_IDAC2_DATA_MASK);          
1613:.\Generated_Source\PSoC4/CapSense.c **** #endif /* (CapSense_IDAC_CNT == 1u) */
1614:.\Generated_Source\PSoC4/CapSense.c **** 
1615:.\Generated_Source\PSoC4/CapSense.c **** 	CyIntEnable(CapSense_ISR_NUMBER);
1616:.\Generated_Source\PSoC4/CapSense.c **** }
1617:.\Generated_Source\PSoC4/CapSense.c **** 
1618:.\Generated_Source\PSoC4/CapSense.c **** 
1619:.\Generated_Source\PSoC4/CapSense.c **** /*******************************************************************************
1620:.\Generated_Source\PSoC4/CapSense.c **** * Function Name: CapSense_EnableShieldElectrode
1621:.\Generated_Source\PSoC4/CapSense.c **** ********************************************************************************
1622:.\Generated_Source\PSoC4/CapSense.c **** *
1623:.\Generated_Source\PSoC4/CapSense.c **** * Summary:
1624:.\Generated_Source\PSoC4/CapSense.c **** *  This API enables or disables the shield electrode on a specified port pin.
1625:.\Generated_Source\PSoC4/CapSense.c **** *
1626:.\Generated_Source\PSoC4/CapSense.c **** * Parameters:
1627:.\Generated_Source\PSoC4/CapSense.c **** *  portNumber: contains the shield electrode port number (0, 1, 2).
1628:.\Generated_Source\PSoC4/CapSense.c **** *  pinNumber: contains the shield electrode pin number (0, 1, 2, ... , 7).
1629:.\Generated_Source\PSoC4/CapSense.c **** *
1630:.\Generated_Source\PSoC4/CapSense.c **** * Return:
1631:.\Generated_Source\PSoC4/CapSense.c **** *  None
1632:.\Generated_Source\PSoC4/CapSense.c **** *
1633:.\Generated_Source\PSoC4/CapSense.c **** * Global Variables:
1634:.\Generated_Source\PSoC4/CapSense.c **** *  CapSense_prtCfgTbl[] - Contains pointers to the port config registers for each port.
1635:.\Generated_Source\PSoC4/CapSense.c **** *  CapSense_prtSelTbl[] - Contains pointers to the HSIOM registers for each port.
1636:.\Generated_Source\PSoC4/CapSense.c **** *
1637:.\Generated_Source\PSoC4/CapSense.c **** * Side Effects: 
1638:.\Generated_Source\PSoC4/CapSense.c **** *  None
1639:.\Generated_Source\PSoC4/CapSense.c **** *
1640:.\Generated_Source\PSoC4/CapSense.c **** *******************************************************************************/
1641:.\Generated_Source\PSoC4/CapSense.c **** void CapSense_EnableShieldElectrode(uint32 pinNumber, uint32 portNumber)
1642:.\Generated_Source\PSoC4/CapSense.c **** {
 763              		.loc 1 1642 0
 764              		.cfi_startproc
 765              	.LVL95:
 766 0000 30B5     		push	{r4, r5, lr}
 767              		.cfi_def_cfa_offset 12
 768              		.cfi_offset 4, -12
 769              		.cfi_offset 5, -8
 770              		.cfi_offset 14, -4
1643:.\Generated_Source\PSoC4/CapSense.c **** 	uint32 newRegValue;
1644:.\Generated_Source\PSoC4/CapSense.c **** 	
1645:.\Generated_Source\PSoC4/CapSense.c **** 	*CapSense_prtCfgTbl[portNumber] &= ~(CapSense_CSD_PIN_MODE_MASK << (pinNumber * CapSense_PC_PIN_CF
 771              		.loc 1 1645 0
 772 0002 8900     		lsl	r1, r1, #2
 773              	.LVL96:
 774 0004 0A4B     		ldr	r3, .L50
 775 0006 5918     		add	r1, r3, r1
 776 0008 4B6A     		ldr	r3, [r1, #36]
 777 000a 1A68     		ldr	r2, [r3]
 778 000c 4400     		lsl	r4, r0, #1
 779 000e 2418     		add	r4, r4, r0
 780 0010 0725     		mov	r5, #7
 781 0012 A540     		lsl	r5, r5, r4
ARM GAS  C:\Users\kbuchi\AppData\Local\Temp\ccOUPaAd.s 			page 44


 782 0014 AA43     		bic	r2, r5
 783 0016 1A60     		str	r2, [r3]
1646:.\Generated_Source\PSoC4/CapSense.c **** 	newRegValue = *CapSense_prtSelTbl[portNumber];
 784              		.loc 1 1646 0
 785 0018 0B69     		ldr	r3, [r1, #16]
 786 001a 1A68     		ldr	r2, [r3]
 787              	.LVL97:
1647:.\Generated_Source\PSoC4/CapSense.c ****     newRegValue &= ~(CapSense_CSD_HSIOM_MASK << (pinNumber * CapSense_HSIOM_PIN_CFG_SIZE));
 788              		.loc 1 1647 0
 789 001c 8000     		lsl	r0, r0, #2
 790              	.LVL98:
 791 001e 0F21     		mov	r1, #15
 792 0020 8140     		lsl	r1, r1, r0
 793 0022 8A43     		bic	r2, r1
 794              	.LVL99:
1648:.\Generated_Source\PSoC4/CapSense.c ****     newRegValue |= (CapSense_CSD_SHIELD_PORT_MODE << (pinNumber * CapSense_HSIOM_PIN_CFG_SIZE));
 795              		.loc 1 1648 0
 796 0024 0521     		mov	r1, #5
 797 0026 8140     		lsl	r1, r1, r0
 798 0028 081C     		mov	r0, r1
 799 002a 1043     		orr	r0, r2
 800              	.LVL100:
1649:.\Generated_Source\PSoC4/CapSense.c ****     *CapSense_prtSelTbl[portNumber] = newRegValue;
 801              		.loc 1 1649 0
 802 002c 1860     		str	r0, [r3]
1650:.\Generated_Source\PSoC4/CapSense.c **** }
 803              		.loc 1 1650 0
 804              		@ sp needed
 805 002e 30BD     		pop	{r4, r5, pc}
 806              	.L51:
 807              		.align	2
 808              	.L50:
 809 0030 00000000 		.word	.LANCHOR2
 810              		.cfi_endproc
 811              	.LFE55:
 812              		.size	CapSense_EnableShieldElectrode, .-CapSense_EnableShieldElectrode
 813              		.section	.text.CapSense_SetShieldDelay,"ax",%progbits
 814              		.align	2
 815              		.global	CapSense_SetShieldDelay
 816              		.code	16
 817              		.thumb_func
 818              		.type	CapSense_SetShieldDelay, %function
 819              	CapSense_SetShieldDelay:
 820              	.LFB56:
1651:.\Generated_Source\PSoC4/CapSense.c **** 
1652:.\Generated_Source\PSoC4/CapSense.c **** 
1653:.\Generated_Source\PSoC4/CapSense.c **** /*******************************************************************************
1654:.\Generated_Source\PSoC4/CapSense.c **** * Function Name: CapSense_SetShieldDelay
1655:.\Generated_Source\PSoC4/CapSense.c **** ********************************************************************************
1656:.\Generated_Source\PSoC4/CapSense.c **** *
1657:.\Generated_Source\PSoC4/CapSense.c **** * Summary:
1658:.\Generated_Source\PSoC4/CapSense.c **** *  This API sets a shield delay.
1659:.\Generated_Source\PSoC4/CapSense.c **** *
1660:.\Generated_Source\PSoC4/CapSense.c **** * Parameters:
1661:.\Generated_Source\PSoC4/CapSense.c **** *  delay:  shield delay value:
1662:.\Generated_Source\PSoC4/CapSense.c **** *                               0 - no delay
1663:.\Generated_Source\PSoC4/CapSense.c **** *                               1 - 1 cycle delay
ARM GAS  C:\Users\kbuchi\AppData\Local\Temp\ccOUPaAd.s 			page 45


1664:.\Generated_Source\PSoC4/CapSense.c **** *                               2 - 2 cycles delay
1665:.\Generated_Source\PSoC4/CapSense.c **** *
1666:.\Generated_Source\PSoC4/CapSense.c **** * Return:
1667:.\Generated_Source\PSoC4/CapSense.c **** *  None
1668:.\Generated_Source\PSoC4/CapSense.c **** *
1669:.\Generated_Source\PSoC4/CapSense.c **** * Global Variables:
1670:.\Generated_Source\PSoC4/CapSense.c **** *  None
1671:.\Generated_Source\PSoC4/CapSense.c **** *
1672:.\Generated_Source\PSoC4/CapSense.c **** * Side Effects: 
1673:.\Generated_Source\PSoC4/CapSense.c **** *  None
1674:.\Generated_Source\PSoC4/CapSense.c **** *
1675:.\Generated_Source\PSoC4/CapSense.c **** *******************************************************************************/
1676:.\Generated_Source\PSoC4/CapSense.c **** void CapSense_SetShieldDelay(uint32 delay)
1677:.\Generated_Source\PSoC4/CapSense.c **** {
 821              		.loc 1 1677 0
 822              		.cfi_startproc
 823              	.LVL101:
1678:.\Generated_Source\PSoC4/CapSense.c ****     uint32 newRegValue;
1679:.\Generated_Source\PSoC4/CapSense.c ****     
1680:.\Generated_Source\PSoC4/CapSense.c ****     delay &= 0x03u;
 824              		.loc 1 1680 0
 825 0000 0323     		mov	r3, #3
 826 0002 1840     		and	r0, r3
 827              	.LVL102:
1681:.\Generated_Source\PSoC4/CapSense.c ****     
1682:.\Generated_Source\PSoC4/CapSense.c ****     newRegValue = CapSense_CSD_CFG_REG;
 828              		.loc 1 1682 0
 829 0004 024B     		ldr	r3, .L53
 830 0006 1A68     		ldr	r2, [r3]
 831              	.LVL103:
1683:.\Generated_Source\PSoC4/CapSense.c ****     newRegValue &= (uint32)(~(uint32)CapSense_SHIELD_DELAY);    
1684:.\Generated_Source\PSoC4/CapSense.c ****     newRegValue |= (delay << CapSense_CSD_CFG_SHIELD_DELAY_POS);    
 832              		.loc 1 1684 0
 833 0008 4002     		lsl	r0, r0, #9
 834              	.LVL104:
 835 000a 1043     		orr	r0, r2
 836              	.LVL105:
1685:.\Generated_Source\PSoC4/CapSense.c ****     CapSense_CSD_CFG_REG = newRegValue;
 837              		.loc 1 1685 0
 838 000c 1860     		str	r0, [r3]
1686:.\Generated_Source\PSoC4/CapSense.c **** }
 839              		.loc 1 1686 0
 840              		@ sp needed
 841 000e 7047     		bx	lr
 842              	.L54:
 843              		.align	2
 844              	.L53:
 845 0010 04000840 		.word	1074266116
 846              		.cfi_endproc
 847              	.LFE56:
 848              		.size	CapSense_SetShieldDelay, .-CapSense_SetShieldDelay
 849              		.section	.text.CapSense_Init,"ax",%progbits
 850              		.align	2
 851              		.global	CapSense_Init
 852              		.code	16
 853              		.thumb_func
 854              		.type	CapSense_Init, %function
ARM GAS  C:\Users\kbuchi\AppData\Local\Temp\ccOUPaAd.s 			page 46


 855              	CapSense_Init:
 856              	.LFB33:
 195:.\Generated_Source\PSoC4/CapSense.c **** {   
 857              		.loc 1 195 0
 858              		.cfi_startproc
 859 0000 08B5     		push	{r3, lr}
 860              		.cfi_def_cfa_offset 8
 861              		.cfi_offset 3, -8
 862              		.cfi_offset 14, -4
 863              	.LVL106:
 226:.\Generated_Source\PSoC4/CapSense.c **** 	for(curSensor = 0u; curSensor < CapSense_TOTAL_SENSOR_COUNT; curSensor++)
 864              		.loc 1 226 0
 865 0002 0023     		mov	r3, #0
 228:.\Generated_Source\PSoC4/CapSense.c **** 		CapSense_unscannedSnsDriveMode[curSensor] = CapSense_CONNECT_INACTIVE_SNS;
 866              		.loc 1 228 0
 867 0004 0749     		ldr	r1, .L58
 868 0006 0022     		mov	r2, #0
 226:.\Generated_Source\PSoC4/CapSense.c **** 	for(curSensor = 0u; curSensor < CapSense_TOTAL_SENSOR_COUNT; curSensor++)
 869              		.loc 1 226 0
 870 0008 01E0     		b	.L56
 871              	.LVL107:
 872              	.L57:
 228:.\Generated_Source\PSoC4/CapSense.c **** 		CapSense_unscannedSnsDriveMode[curSensor] = CapSense_CONNECT_INACTIVE_SNS;
 873              		.loc 1 228 0 discriminator 2
 874 000a CA54     		strb	r2, [r1, r3]
 226:.\Generated_Source\PSoC4/CapSense.c **** 	for(curSensor = 0u; curSensor < CapSense_TOTAL_SENSOR_COUNT; curSensor++)
 875              		.loc 1 226 0 discriminator 2
 876 000c 0133     		add	r3, r3, #1
 877              	.LVL108:
 878              	.L56:
 226:.\Generated_Source\PSoC4/CapSense.c **** 	for(curSensor = 0u; curSensor < CapSense_TOTAL_SENSOR_COUNT; curSensor++)
 879              		.loc 1 226 0 is_stmt 0 discriminator 1
 880 000e 042B     		cmp	r3, #4
 881 0010 FBD9     		bls	.L57
 231:.\Generated_Source\PSoC4/CapSense.c **** 	CapSense_CsdHwBlockInit();
 882              		.loc 1 231 0 is_stmt 1
 883 0012 FFF7FEFF 		bl	CapSense_CsdHwBlockInit
 884              	.LVL109:
 232:.\Generated_Source\PSoC4/CapSense.c ****     CapSense_SetShieldDelay(CapSense_SHIELD_DELAY );
 885              		.loc 1 232 0
 886 0016 0020     		mov	r0, #0
 887 0018 FFF7FEFF 		bl	CapSense_SetShieldDelay
 888              	.LVL110:
 235:.\Generated_Source\PSoC4/CapSense.c ****     CapSense_ClearSensors();
 889              		.loc 1 235 0
 890 001c FFF7FEFF 		bl	CapSense_ClearSensors
 891              	.LVL111:
 236:.\Generated_Source\PSoC4/CapSense.c **** }
 892              		.loc 1 236 0
 893              		@ sp needed
 894 0020 08BD     		pop	{r3, pc}
 895              	.L59:
 896 0022 C046     		.align	2
 897              	.L58:
 898 0024 00000000 		.word	CapSense_unscannedSnsDriveMode
 899              		.cfi_endproc
 900              	.LFE33:
ARM GAS  C:\Users\kbuchi\AppData\Local\Temp\ccOUPaAd.s 			page 47


 901              		.size	CapSense_Init, .-CapSense_Init
 902              		.section	.text.CapSense_Start,"ax",%progbits
 903              		.align	2
 904              		.global	CapSense_Start
 905              		.code	16
 906              		.thumb_func
 907              		.type	CapSense_Start, %function
 908              	CapSense_Start:
 909              	.LFB36:
 404:.\Generated_Source\PSoC4/CapSense.c **** {
 910              		.loc 1 404 0
 911              		.cfi_startproc
 912 0000 08B5     		push	{r3, lr}
 913              		.cfi_def_cfa_offset 8
 914              		.cfi_offset 3, -8
 915              		.cfi_offset 14, -4
 414:.\Generated_Source\PSoC4/CapSense.c ****     if (CapSense_initVar == 0u)
 916              		.loc 1 414 0
 917 0002 0B4B     		ldr	r3, .L62
 918 0004 9B7B     		ldrb	r3, [r3, #14]
 919 0006 002B     		cmp	r3, #0
 920 0008 04D1     		bne	.L61
 416:.\Generated_Source\PSoC4/CapSense.c ****         CapSense_Init();
 921              		.loc 1 416 0
 922 000a FFF7FEFF 		bl	CapSense_Init
 923              	.LVL112:
 417:.\Generated_Source\PSoC4/CapSense.c ****         CapSense_initVar = 1u;
 924              		.loc 1 417 0
 925 000e 0122     		mov	r2, #1
 926 0010 074B     		ldr	r3, .L62
 927 0012 9A73     		strb	r2, [r3, #14]
 928              	.L61:
 419:.\Generated_Source\PSoC4/CapSense.c ****     CapSense_Enable();
 929              		.loc 1 419 0
 930 0014 FFF7FEFF 		bl	CapSense_Enable
 931              	.LVL113:
 424:.\Generated_Source\PSoC4/CapSense.c **** 	        CapSense_AutoTune();
 932              		.loc 1 424 0
 933 0018 FFF7FEFF 		bl	CapSense_AutoTune
 934              	.LVL114:
 425:.\Generated_Source\PSoC4/CapSense.c **** 	        CapSense_lowLevelTuningDone = 1u;
 935              		.loc 1 425 0
 936 001c 0122     		mov	r2, #1
 937 001e 044B     		ldr	r3, .L62
 938 0020 DA73     		strb	r2, [r3, #15]
 468:.\Generated_Source\PSoC4/CapSense.c **** 	CapSense_CSD_CFG_REG |= CapSense_CSD_CFG_SENSE_INSEL;
 939              		.loc 1 468 0
 940 0022 044B     		ldr	r3, .L62+4
 941 0024 1968     		ldr	r1, [r3]
 942 0026 8022     		mov	r2, #128
 943 0028 D203     		lsl	r2, r2, #15
 944 002a 0A43     		orr	r2, r1
 945 002c 1A60     		str	r2, [r3]
 469:.\Generated_Source\PSoC4/CapSense.c **** }
 946              		.loc 1 469 0
 947              		@ sp needed
 948 002e 08BD     		pop	{r3, pc}
ARM GAS  C:\Users\kbuchi\AppData\Local\Temp\ccOUPaAd.s 			page 48


 949              	.L63:
 950              		.align	2
 951              	.L62:
 952 0030 00000000 		.word	.LANCHOR0
 953 0034 04000840 		.word	1074266116
 954              		.cfi_endproc
 955              	.LFE36:
 956              		.size	CapSense_Start, .-CapSense_Start
 957              		.section	.text.CapSense_ReadCurrentScanningSensor,"ax",%progbits
 958              		.align	2
 959              		.global	CapSense_ReadCurrentScanningSensor
 960              		.code	16
 961              		.thumb_func
 962              		.type	CapSense_ReadCurrentScanningSensor, %function
 963              	CapSense_ReadCurrentScanningSensor:
 964              	.LFB57:
1687:.\Generated_Source\PSoC4/CapSense.c **** 
1688:.\Generated_Source\PSoC4/CapSense.c **** 
1689:.\Generated_Source\PSoC4/CapSense.c **** /*******************************************************************************
1690:.\Generated_Source\PSoC4/CapSense.c **** * Function Name: CapSense_ReadCurrentScanningSensor
1691:.\Generated_Source\PSoC4/CapSense.c **** ********************************************************************************
1692:.\Generated_Source\PSoC4/CapSense.c **** *
1693:.\Generated_Source\PSoC4/CapSense.c **** * Summary:
1694:.\Generated_Source\PSoC4/CapSense.c **** *  This API returns scanning sensor number when sensor scan is in progress. 
1695:.\Generated_Source\PSoC4/CapSense.c **** *  When sensor scan is completed the API returns 
1696:.\Generated_Source\PSoC4/CapSense.c **** *  $INSTANCE_NAME`_NOT_SENSOR (0xFFFFFFFF) (when no sensor is scanned).
1697:.\Generated_Source\PSoC4/CapSense.c **** *
1698:.\Generated_Source\PSoC4/CapSense.c **** * Parameters:
1699:.\Generated_Source\PSoC4/CapSense.c **** *	None.
1700:.\Generated_Source\PSoC4/CapSense.c **** *
1701:.\Generated_Source\PSoC4/CapSense.c **** * Return:
1702:.\Generated_Source\PSoC4/CapSense.c **** *  Returns Sensor number if sensor is being scanned and 
1703:.\Generated_Source\PSoC4/CapSense.c **** *  $INSTANCE_NAME`_NOT_SENSOR (0xFFFFFFFF) if scanning is complete.
1704:.\Generated_Source\PSoC4/CapSense.c **** *
1705:.\Generated_Source\PSoC4/CapSense.c **** * Global Variables:
1706:.\Generated_Source\PSoC4/CapSense.c **** *  CapSense_sensorIndex - the sensor number is being scanned.
1707:.\Generated_Source\PSoC4/CapSense.c **** *
1708:.\Generated_Source\PSoC4/CapSense.c **** * Side Effects: 
1709:.\Generated_Source\PSoC4/CapSense.c **** *  None
1710:.\Generated_Source\PSoC4/CapSense.c **** *
1711:.\Generated_Source\PSoC4/CapSense.c **** *******************************************************************************/
1712:.\Generated_Source\PSoC4/CapSense.c **** uint32 CapSense_ReadCurrentScanningSensor(void)
1713:.\Generated_Source\PSoC4/CapSense.c **** {
 965              		.loc 1 1713 0
 966              		.cfi_startproc
1714:.\Generated_Source\PSoC4/CapSense.c ****     return ((uint32)(( 0u != (CapSense_csdStatusVar & CapSense_SW_STS_BUSY)) ? 
 967              		.loc 1 1714 0
 968 0000 054B     		ldr	r3, .L67
 969 0002 1B78     		ldrb	r3, [r3]
 970 0004 DA07     		lsl	r2, r3, #31
 971 0006 03D5     		bpl	.L66
 972              		.loc 1 1714 0 is_stmt 0 discriminator 1
 973 0008 034B     		ldr	r3, .L67
 974 000a 187C     		ldrb	r0, [r3, #16]
 975 000c C0B2     		uxtb	r0, r0
 976 000e 01E0     		b	.L65
 977              	.L66:
ARM GAS  C:\Users\kbuchi\AppData\Local\Temp\ccOUPaAd.s 			page 49


 978              		.loc 1 1714 0
 979 0010 0120     		mov	r0, #1
 980 0012 4042     		neg	r0, r0
 981              	.L65:
1715:.\Generated_Source\PSoC4/CapSense.c ****                      CapSense_sensorIndex : CapSense_NOT_SENSOR));
1716:.\Generated_Source\PSoC4/CapSense.c **** }
 982              		.loc 1 1716 0 is_stmt 1 discriminator 3
 983              		@ sp needed
 984 0014 7047     		bx	lr
 985              	.L68:
 986 0016 C046     		.align	2
 987              	.L67:
 988 0018 00000000 		.word	.LANCHOR0
 989              		.cfi_endproc
 990              	.LFE57:
 991              		.size	CapSense_ReadCurrentScanningSensor, .-CapSense_ReadCurrentScanningSensor
 992              		.section	.text.CapSense_GetBitValue,"ax",%progbits
 993              		.align	2
 994              		.global	CapSense_GetBitValue
 995              		.code	16
 996              		.thumb_func
 997              		.type	CapSense_GetBitValue, %function
 998              	CapSense_GetBitValue:
 999              	.LFB58:
1717:.\Generated_Source\PSoC4/CapSense.c **** 
1718:.\Generated_Source\PSoC4/CapSense.c **** 
1719:.\Generated_Source\PSoC4/CapSense.c **** /*******************************************************************************
1720:.\Generated_Source\PSoC4/CapSense.c **** * Function Name: CapSense_GetBitValue
1721:.\Generated_Source\PSoC4/CapSense.c **** ********************************************************************************
1722:.\Generated_Source\PSoC4/CapSense.c **** *
1723:.\Generated_Source\PSoC4/CapSense.c **** * Summary:
1724:.\Generated_Source\PSoC4/CapSense.c **** *  The API returns a bit status of the bit in the table array which contains the masks.
1725:.\Generated_Source\PSoC4/CapSense.c **** * 
1726:.\Generated_Source\PSoC4/CapSense.c **** * Parameters:
1727:.\Generated_Source\PSoC4/CapSense.c **** *  table[] - array with bit masks.
1728:.\Generated_Source\PSoC4/CapSense.c **** *  position - position of bit in the table[] array.
1729:.\Generated_Source\PSoC4/CapSense.c **** *
1730:.\Generated_Source\PSoC4/CapSense.c **** * Return:
1731:.\Generated_Source\PSoC4/CapSense.c **** *  0 - bit is not set; 1 - bit is set.
1732:.\Generated_Source\PSoC4/CapSense.c **** *
1733:.\Generated_Source\PSoC4/CapSense.c **** * Global Variables:
1734:.\Generated_Source\PSoC4/CapSense.c **** *  None
1735:.\Generated_Source\PSoC4/CapSense.c **** *
1736:.\Generated_Source\PSoC4/CapSense.c **** * Side Effects:
1737:.\Generated_Source\PSoC4/CapSense.c **** *  None
1738:.\Generated_Source\PSoC4/CapSense.c **** *
1739:.\Generated_Source\PSoC4/CapSense.c **** *******************************************************************************/
1740:.\Generated_Source\PSoC4/CapSense.c **** uint32 CapSense_GetBitValue(const uint8 table[], uint32 position)
1741:.\Generated_Source\PSoC4/CapSense.c **** {
 1000              		.loc 1 1741 0
 1001              		.cfi_startproc
 1002              	.LVL115:
1742:.\Generated_Source\PSoC4/CapSense.c ****     uint32 offset;
1743:.\Generated_Source\PSoC4/CapSense.c **** 	uint8 enMask;
1744:.\Generated_Source\PSoC4/CapSense.c **** 	
1745:.\Generated_Source\PSoC4/CapSense.c **** 	/* position is divided by 8 to calculate the element of the 
1746:.\Generated_Source\PSoC4/CapSense.c **** 	   table[] array that contains the enable bit 
ARM GAS  C:\Users\kbuchi\AppData\Local\Temp\ccOUPaAd.s 			page 50


1747:.\Generated_Source\PSoC4/CapSense.c **** 	   for an appropriate sensor.
1748:.\Generated_Source\PSoC4/CapSense.c **** 	*/
1749:.\Generated_Source\PSoC4/CapSense.c **** 	offset = (position >> 3u);
 1003              		.loc 1 1749 0
 1004 0000 CB08     		lsr	r3, r1, #3
 1005              	.LVL116:
1750:.\Generated_Source\PSoC4/CapSense.c **** 	
1751:.\Generated_Source\PSoC4/CapSense.c **** 	/* The enMask calculation for the appropriate sensor. Operation (position & 0x07u) 
1752:.\Generated_Source\PSoC4/CapSense.c **** 	   intends to calculate the enable bit offset for the 8-bit element of the 
1753:.\Generated_Source\PSoC4/CapSense.c **** 	   table[] array.
1754:.\Generated_Source\PSoC4/CapSense.c **** 	*/
1755:.\Generated_Source\PSoC4/CapSense.c **** 	enMask = 0x01u << (position & 0x07u);
 1006              		.loc 1 1755 0
 1007 0002 0722     		mov	r2, #7
 1008 0004 1140     		and	r1, r2
 1009              	.LVL117:
 1010 0006 0122     		mov	r2, #1
 1011 0008 8A40     		lsl	r2, r2, r1
 1012              	.LVL118:
1756:.\Generated_Source\PSoC4/CapSense.c ****     
1757:.\Generated_Source\PSoC4/CapSense.c ****     return ((0u !=(table[offset] & enMask)) ? 1Lu : 0Lu);
 1013              		.loc 1 1757 0
 1014 000a C35C     		ldrb	r3, [r0, r3]
 1015              	.LVL119:
 1016 000c 1A42     		tst	r2, r3
 1017 000e 01D0     		beq	.L71
 1018 0010 0120     		mov	r0, #1
 1019              	.LVL120:
 1020 0012 00E0     		b	.L70
 1021              	.LVL121:
 1022              	.L71:
 1023 0014 0020     		mov	r0, #0
 1024              	.LVL122:
 1025              	.L70:
1758:.\Generated_Source\PSoC4/CapSense.c **** }
 1026              		.loc 1 1758 0 discriminator 3
 1027              		@ sp needed
 1028 0016 7047     		bx	lr
 1029              		.cfi_endproc
 1030              	.LFE58:
 1031              		.size	CapSense_GetBitValue, .-CapSense_GetBitValue
 1032              		.section	.text.CapSense_FindNextSensor,"ax",%progbits
 1033              		.align	2
 1034              		.global	CapSense_FindNextSensor
 1035              		.code	16
 1036              		.thumb_func
 1037              		.type	CapSense_FindNextSensor, %function
 1038              	CapSense_FindNextSensor:
 1039              	.LFB38:
 534:.\Generated_Source\PSoC4/CapSense.c **** {
 1040              		.loc 1 534 0
 1041              		.cfi_startproc
 1042              	.LVL123:
 1043 0000 38B5     		push	{r3, r4, r5, lr}
 1044              		.cfi_def_cfa_offset 16
 1045              		.cfi_offset 3, -16
 1046              		.cfi_offset 4, -12
ARM GAS  C:\Users\kbuchi\AppData\Local\Temp\ccOUPaAd.s 			page 51


 1047              		.cfi_offset 5, -8
 1048              		.cfi_offset 14, -4
 1049 0002 041C     		mov	r4, r0
 546:.\Generated_Source\PSoC4/CapSense.c ****         enableFlag = CapSense_GetBitValue(CapSense_sensorEnableMask, (uint32)snsIndex);
 1050              		.loc 1 546 0
 1051 0004 064D     		ldr	r5, .L76
 1052 0006 0435     		add	r5, r5, #4
 1053              	.LVL124:
 1054              	.L74:
 541:.\Generated_Source\PSoC4/CapSense.c ****         snsIndex++;
 1055              		.loc 1 541 0
 1056 0008 0134     		add	r4, r4, #1
 1057              	.LVL125:
 1058 000a E4B2     		uxtb	r4, r4
 1059              	.LVL126:
 542:.\Generated_Source\PSoC4/CapSense.c ****         if(snsIndex == CapSense_TOTAL_SENSOR_COUNT)
 1060              		.loc 1 542 0
 1061 000c 052C     		cmp	r4, #5
 1062 000e 05D0     		beq	.L73
 546:.\Generated_Source\PSoC4/CapSense.c ****         enableFlag = CapSense_GetBitValue(CapSense_sensorEnableMask, (uint32)snsIndex);
 1063              		.loc 1 546 0
 1064 0010 281C     		mov	r0, r5
 1065 0012 211C     		mov	r1, r4
 1066 0014 FFF7FEFF 		bl	CapSense_GetBitValue
 1067              	.LVL127:
 548:.\Generated_Source\PSoC4/CapSense.c ****     while(enableFlag == 0u);
 1068              		.loc 1 548 0
 1069 0018 0028     		cmp	r0, #0
 1070 001a F5D0     		beq	.L74
 1071              	.LVL128:
 1072              	.L73:
 551:.\Generated_Source\PSoC4/CapSense.c **** }
 1073              		.loc 1 551 0
 1074 001c 201C     		mov	r0, r4
 1075              		@ sp needed
 1076              	.LVL129:
 1077 001e 38BD     		pop	{r3, r4, r5, pc}
 1078              	.L77:
 1079              		.align	2
 1080              	.L76:
 1081 0020 00000000 		.word	.LANCHOR1
 1082              		.cfi_endproc
 1083              	.LFE38:
 1084              		.size	CapSense_FindNextSensor, .-CapSense_FindNextSensor
 1085              		.section	.text.CapSense_PreScan,"ax",%progbits
 1086              		.align	2
 1087              		.global	CapSense_PreScan
 1088              		.code	16
 1089              		.thumb_func
 1090              		.type	CapSense_PreScan, %function
 1091              	CapSense_PreScan:
 1092              	.LFB53:
1363:.\Generated_Source\PSoC4/CapSense.c **** {
 1093              		.loc 1 1363 0
 1094              		.cfi_startproc
 1095              	.LVL130:
 1096 0000 F8B5     		push	{r3, r4, r5, r6, r7, lr}
ARM GAS  C:\Users\kbuchi\AppData\Local\Temp\ccOUPaAd.s 			page 52


 1097              		.cfi_def_cfa_offset 24
 1098              		.cfi_offset 3, -24
 1099              		.cfi_offset 4, -20
 1100              		.cfi_offset 5, -16
 1101              		.cfi_offset 6, -12
 1102              		.cfi_offset 7, -8
 1103              		.cfi_offset 14, -4
 1104 0002 041C     		mov	r4, r0
1381:.\Generated_Source\PSoC4/CapSense.c ****     widget = CapSense_widgetNumber[sensor];
 1105              		.loc 1 1381 0
 1106 0004 234B     		ldr	r3, .L80
 1107 0006 4C33     		add	r3, r3, #76
 1108 0008 1A5C     		ldrb	r2, [r3, r0]
 1109              	.LVL131:
1384:.\Generated_Source\PSoC4/CapSense.c **** 	counterResolution = CapSense_widgetResolution[widget];
 1110              		.loc 1 1384 0
 1111 000a 9200     		lsl	r2, r2, #2
 1112 000c 224B     		ldr	r3, .L80+4
 1113              	.LVL132:
 1114 000e D558     		ldr	r5, [r2, r3]
 1115              	.LVL133:
1388:.\Generated_Source\PSoC4/CapSense.c **** 	    oversamplingFactor = CapSense_GetBitValue(scanSpeedTbl, sensor);
 1116              		.loc 1 1388 0
 1117 0010 2248     		ldr	r0, .L80+8
 1118              	.LVL134:
 1119 0012 211C     		mov	r1, r4
 1120 0014 FFF7FEFF 		bl	CapSense_GetBitValue
 1121              	.LVL135:
1390:.\Generated_Source\PSoC4/CapSense.c **** 		if(counterResolution < CapSense_RESOLUTION_16_BITS)
 1122              		.loc 1 1390 0
 1123 0018 214B     		ldr	r3, .L80+12
 1124 001a 9D42     		cmp	r5, r3
 1125 001c 04D8     		bhi	.L79
1392:.\Generated_Source\PSoC4/CapSense.c **** 			counterResolution <<= oversamplingFactor;
 1126              		.loc 1 1392 0
 1127 001e 8540     		lsl	r5, r5, r0
 1128              	.LVL136:
 1129 0020 281C     		mov	r0, r5
 1130              	.LVL137:
1393:.\Generated_Source\PSoC4/CapSense.c **** 			counterResolution |= (uint32)(CapSense_RESOLUTION_8_BITS);
 1131              		.loc 1 1393 0
 1132 0022 FF25     		mov	r5, #255
 1133 0024 2D04     		lsl	r5, r5, #16
 1134 0026 0543     		orr	r5, r0
 1135              	.LVL138:
 1136              	.L79:
1404:.\Generated_Source\PSoC4/CapSense.c **** 		CapSense_SampleClk_SetDividerValue((uint16)CapSense_sampleClkDividerVal[sensor]);
 1137              		.loc 1 1404 0
 1138 0028 1E4B     		ldr	r3, .L80+16
 1139 002a 185D     		ldrb	r0, [r3, r4]
 1140 002c 0138     		sub	r0, r0, #1
 1141 002e 80B2     		uxth	r0, r0
 1142 0030 0021     		mov	r1, #0
 1143 0032 FFF7FEFF 		bl	CapSense_SampleClk_SetFractionalDividerRegister
 1144              	.LVL139:
1405:.\Generated_Source\PSoC4/CapSense.c **** 		CapSense_SenseClk_SetDividerValue((uint16)CapSense_senseClkDividerVal[sensor]);
 1145              		.loc 1 1405 0
ARM GAS  C:\Users\kbuchi\AppData\Local\Temp\ccOUPaAd.s 			page 53


 1146 0036 1C4B     		ldr	r3, .L80+20
 1147 0038 185D     		ldrb	r0, [r3, r4]
 1148 003a 0138     		sub	r0, r0, #1
 1149 003c 80B2     		uxth	r0, r0
 1150 003e 0021     		mov	r1, #0
 1151 0040 FFF7FEFF 		bl	CapSense_SenseClk_SetFractionalDividerRegister
 1152              	.LVL140:
1474:.\Generated_Source\PSoC4/CapSense.c **** 	CyIntDisable(CapSense_ISR_NUMBER);
 1153              		.loc 1 1474 0
 1154 0044 0F20     		mov	r0, #15
 1155 0046 FFF7FEFF 		bl	CyIntDisable
 1156              	.LVL141:
1475:.\Generated_Source\PSoC4/CapSense.c ****     newRegValue = CapSense_CSD_IDAC_REG;
 1157              		.loc 1 1475 0
 1158 004a 184B     		ldr	r3, .L80+24
 1159 004c 1968     		ldr	r1, [r3]
 1160              	.LVL142:
1481:.\Generated_Source\PSoC4/CapSense.c **** 	newRegValue &= ~(CapSense_CSD_IDAC1_DATA_MASK | CapSense_CSD_IDAC2_DATA_MASK);
 1161              		.loc 1 1481 0
 1162 004e 184A     		ldr	r2, .L80+28
 1163 0050 1140     		and	r1, r2
 1164              	.LVL143:
1482:.\Generated_Source\PSoC4/CapSense.c **** 	newRegValue |= (CapSense_modulationIDAC[sensor] | 
 1165              		.loc 1 1482 0
 1166 0052 184A     		ldr	r2, .L80+32
 1167 0054 105D     		ldrb	r0, [r2, r4]
1483:.\Generated_Source\PSoC4/CapSense.c **** 							(uint32)((uint32)CapSense_compensationIDAC[sensor] <<
 1168              		.loc 1 1483 0
 1169 0056 184A     		ldr	r2, .L80+36
 1170 0058 125D     		ldrb	r2, [r2, r4]
 1171 005a 1204     		lsl	r2, r2, #16
1482:.\Generated_Source\PSoC4/CapSense.c **** 	newRegValue |= (CapSense_modulationIDAC[sensor] | 
 1172              		.loc 1 1482 0
 1173 005c 0243     		orr	r2, r0
 1174 005e 0A43     		orr	r2, r1
 1175              	.LVL144:
1487:.\Generated_Source\PSoC4/CapSense.c **** 	CapSense_CSD_IDAC_REG = newRegValue;
 1176              		.loc 1 1487 0
 1177 0060 1A60     		str	r2, [r3]
1502:.\Generated_Source\PSoC4/CapSense.c **** 	newRegValue = CapSense_CSD_CFG_REG;
 1178              		.loc 1 1502 0
 1179 0062 164E     		ldr	r6, .L80+40
 1180 0064 3768     		ldr	r7, [r6]
 1181              	.LVL145:
1503:.\Generated_Source\PSoC4/CapSense.c **** 	newRegValue &= ~(CapSense_PRECHARGE_CONFIG_MASK);
 1182              		.loc 1 1503 0
 1183 0066 164B     		ldr	r3, .L80+44
 1184 0068 1F40     		and	r7, r3
 1185              	.LVL146:
1504:.\Generated_Source\PSoC4/CapSense.c **** 	newRegValue |= CapSense_CTANK_PRECHARGE_CONFIG;
 1186              		.loc 1 1504 0
 1187 006a 164B     		ldr	r3, .L80+48
 1188 006c 1F43     		orr	r7, r3
 1189              	.LVL147:
1506:.\Generated_Source\PSoC4/CapSense.c **** 	CyIntEnable(CapSense_ISR_NUMBER);
 1190              		.loc 1 1506 0
 1191 006e 0F20     		mov	r0, #15
ARM GAS  C:\Users\kbuchi\AppData\Local\Temp\ccOUPaAd.s 			page 54


 1192 0070 FFF7FEFF 		bl	CyIntEnable
 1193              	.LVL148:
1509:.\Generated_Source\PSoC4/CapSense.c ****     CapSense_EnableScanSlot(sensor);
 1194              		.loc 1 1509 0
 1195 0074 201C     		mov	r0, r4
 1196 0076 FFF7FEFF 		bl	CapSense_EnableSensor
 1197              	.LVL149:
1511:.\Generated_Source\PSoC4/CapSense.c **** 	interruptState = CyEnterCriticalSection();
 1198              		.loc 1 1511 0
 1199 007a FFF7FEFF 		bl	CyEnterCriticalSection
 1200              	.LVL150:
 1201 007e 041C     		mov	r4, r0
 1202              	.LVL151:
1512:.\Generated_Source\PSoC4/CapSense.c **** 	CapSense_CSD_CFG_REG = newRegValue;
 1203              		.loc 1 1512 0
 1204 0080 3760     		str	r7, [r6]
1518:.\Generated_Source\PSoC4/CapSense.c **** 	CyDelayCycles(CapSense_GLITCH_ELIMINATION_CYCLES);
 1205              		.loc 1 1518 0
 1206 0082 0020     		mov	r0, #0
 1207              	.LVL152:
 1208 0084 FFF7FEFF 		bl	CyDelayCycles
 1209              	.LVL153:
1524:.\Generated_Source\PSoC4/CapSense.c ****     CapSense_CSD_CNT_REG = counterResolution;
 1210              		.loc 1 1524 0
 1211 0088 0F4B     		ldr	r3, .L80+52
 1212 008a 1D60     		str	r5, [r3]
1525:.\Generated_Source\PSoC4/CapSense.c ****     CyExitCriticalSection(interruptState);
 1213              		.loc 1 1525 0
 1214 008c 201C     		mov	r0, r4
 1215 008e FFF7FEFF 		bl	CyExitCriticalSection
 1216              	.LVL154:
1526:.\Generated_Source\PSoC4/CapSense.c **** }
 1217              		.loc 1 1526 0
 1218              		@ sp needed
 1219              	.LVL155:
 1220              	.LVL156:
 1221              	.LVL157:
 1222 0092 F8BD     		pop	{r3, r4, r5, r6, r7, pc}
 1223              	.L81:
 1224              		.align	2
 1225              	.L80:
 1226 0094 00000000 		.word	.LANCHOR2
 1227 0098 00000000 		.word	.LANCHOR1
 1228 009c 00000000 		.word	scanSpeedTbl
 1229 00a0 FFFFFEFF 		.word	-65537
 1230 00a4 00000000 		.word	CapSense_sampleClkDividerVal
 1231 00a8 00000000 		.word	CapSense_senseClkDividerVal
 1232 00ac 08000840 		.word	1074266120
 1233 00b0 00FF80FF 		.word	-8323328
 1234 00b4 00000000 		.word	CapSense_modulationIDAC
 1235 00b8 00000000 		.word	CapSense_compensationIDAC
 1236 00bc 04000840 		.word	1074266116
 1237 00c0 FF1FDFFF 		.word	-2154497
 1238 00c4 20E02000 		.word	2154528
 1239 00c8 0C000840 		.word	1074266124
 1240              		.cfi_endproc
 1241              	.LFE53:
ARM GAS  C:\Users\kbuchi\AppData\Local\Temp\ccOUPaAd.s 			page 55


 1242              		.size	CapSense_PreScan, .-CapSense_PreScan
 1243              		.section	.text.CapSense_ScanSensor,"ax",%progbits
 1244              		.align	2
 1245              		.global	CapSense_ScanSensor
 1246              		.code	16
 1247              		.thumb_func
 1248              		.type	CapSense_ScanSensor, %function
 1249              	CapSense_ScanSensor:
 1250              	.LFB39:
 582:.\Generated_Source\PSoC4/CapSense.c **** {
 1251              		.loc 1 582 0
 1252              		.cfi_startproc
 1253              	.LVL158:
 1254 0000 08B5     		push	{r3, lr}
 1255              		.cfi_def_cfa_offset 8
 1256              		.cfi_offset 3, -8
 1257              		.cfi_offset 14, -4
 584:.\Generated_Source\PSoC4/CapSense.c ****     CapSense_csdStatusVar = 0u;
 1258              		.loc 1 584 0
 1259 0002 054B     		ldr	r3, .L83
 1260 0004 0022     		mov	r2, #0
 1261 0006 1A70     		strb	r2, [r3]
 585:.\Generated_Source\PSoC4/CapSense.c ****     CapSense_sensorIndex = (uint8)sensor;
 1262              		.loc 1 585 0
 1263 0008 C2B2     		uxtb	r2, r0
 1264 000a 1A74     		strb	r2, [r3, #16]
 588:.\Generated_Source\PSoC4/CapSense.c ****     CapSense_csdStatusVar = (CapSense_SW_STS_BUSY | CapSense_SW_CTRL_SINGLE_SCAN);
 1265              		.loc 1 588 0
 1266 000c 8122     		mov	r2, #129
 1267 000e 1A70     		strb	r2, [r3]
 589:.\Generated_Source\PSoC4/CapSense.c ****     CapSense_PreScan(sensor);
 1268              		.loc 1 589 0
 1269 0010 FFF7FEFF 		bl	CapSense_PreScan
 1270              	.LVL159:
 590:.\Generated_Source\PSoC4/CapSense.c **** }
 1271              		.loc 1 590 0
 1272              		@ sp needed
 1273 0014 08BD     		pop	{r3, pc}
 1274              	.L84:
 1275 0016 C046     		.align	2
 1276              	.L83:
 1277 0018 00000000 		.word	.LANCHOR0
 1278              		.cfi_endproc
 1279              	.LFE39:
 1280              		.size	CapSense_ScanSensor, .-CapSense_ScanSensor
 1281              		.section	.text.CapSense_ScanEnabledWidgets,"ax",%progbits
 1282              		.align	2
 1283              		.global	CapSense_ScanEnabledWidgets
 1284              		.code	16
 1285              		.thumb_func
 1286              		.type	CapSense_ScanEnabledWidgets, %function
 1287              	CapSense_ScanEnabledWidgets:
 1288              	.LFB41:
 706:.\Generated_Source\PSoC4/CapSense.c **** {
 1289              		.loc 1 706 0
 1290              		.cfi_startproc
 1291 0000 10B5     		push	{r4, lr}
ARM GAS  C:\Users\kbuchi\AppData\Local\Temp\ccOUPaAd.s 			page 56


 1292              		.cfi_def_cfa_offset 8
 1293              		.cfi_offset 4, -8
 1294              		.cfi_offset 14, -4
 708:.\Generated_Source\PSoC4/CapSense.c ****     CapSense_csdStatusVar = 0u;
 1295              		.loc 1 708 0
 1296 0002 0B4C     		ldr	r4, .L87
 1297 0004 0023     		mov	r3, #0
 1298 0006 2370     		strb	r3, [r4]
 709:.\Generated_Source\PSoC4/CapSense.c ****     CapSense_sensorIndex = 0xFFu;
 1299              		.loc 1 709 0
 1300 0008 FF23     		mov	r3, #255
 1301 000a 2374     		strb	r3, [r4, #16]
 712:.\Generated_Source\PSoC4/CapSense.c ****     CapSense_sensorIndex = (uint8)CapSense_FindNextSensor(CapSense_sensorIndex);
 1302              		.loc 1 712 0
 1303 000c 207C     		ldrb	r0, [r4, #16]
 1304 000e C0B2     		uxtb	r0, r0
 1305 0010 FFF7FEFF 		bl	CapSense_FindNextSensor
 1306              	.LVL160:
 1307 0014 2074     		strb	r0, [r4, #16]
 715:.\Generated_Source\PSoC4/CapSense.c ****     if(CapSense_sensorIndex < CapSense_TOTAL_SENSOR_COUNT)
 1308              		.loc 1 715 0
 1309 0016 237C     		ldrb	r3, [r4, #16]
 1310 0018 DBB2     		uxtb	r3, r3
 1311 001a 042B     		cmp	r3, #4
 1312 001c 07D8     		bhi	.L85
 717:.\Generated_Source\PSoC4/CapSense.c ****         CapSense_csdStatusVar |= CapSense_SW_STS_BUSY;
 1313              		.loc 1 717 0
 1314 001e 2178     		ldrb	r1, [r4]
 1315 0020 0122     		mov	r2, #1
 1316 0022 0A43     		orr	r2, r1
 1317 0024 2270     		strb	r2, [r4]
 718:.\Generated_Source\PSoC4/CapSense.c ****         CapSense_PreScan((uint32)CapSense_sensorIndex);
 1318              		.loc 1 718 0
 1319 0026 207C     		ldrb	r0, [r4, #16]
 1320 0028 C0B2     		uxtb	r0, r0
 1321 002a FFF7FEFF 		bl	CapSense_PreScan
 1322              	.LVL161:
 1323              	.L85:
 720:.\Generated_Source\PSoC4/CapSense.c **** }
 1324              		.loc 1 720 0
 1325              		@ sp needed
 1326 002e 10BD     		pop	{r4, pc}
 1327              	.L88:
 1328              		.align	2
 1329              	.L87:
 1330 0030 00000000 		.word	.LANCHOR0
 1331              		.cfi_endproc
 1332              	.LFE41:
 1333              		.size	CapSense_ScanEnabledWidgets, .-CapSense_ScanEnabledWidgets
 1334              		.section	.text.CapSense_PostScan,"ax",%progbits
 1335              		.align	2
 1336              		.global	CapSense_PostScan
 1337              		.code	16
 1338              		.thumb_func
 1339              		.type	CapSense_PostScan, %function
 1340              	CapSense_PostScan:
 1341              	.LFB54:
ARM GAS  C:\Users\kbuchi\AppData\Local\Temp\ccOUPaAd.s 			page 57


1552:.\Generated_Source\PSoC4/CapSense.c **** {	
 1342              		.loc 1 1552 0
 1343              		.cfi_startproc
 1344              	.LVL162:
 1345 0000 38B5     		push	{r3, r4, r5, lr}
 1346              		.cfi_def_cfa_offset 16
 1347              		.cfi_offset 3, -16
 1348              		.cfi_offset 4, -12
 1349              		.cfi_offset 5, -8
 1350              		.cfi_offset 14, -4
 1351 0002 041C     		mov	r4, r0
1567:.\Generated_Source\PSoC4/CapSense.c ****     CapSense_sensorRaw[sensor]  = (uint16)CapSense_CSD_CNT_REG;
 1352              		.loc 1 1567 0
 1353 0004 174B     		ldr	r3, .L91
 1354 0006 1D68     		ldr	r5, [r3]
 1355 0008 ADB2     		uxth	r5, r5
 1356 000a 4300     		lsl	r3, r0, #1
 1357 000c 164A     		ldr	r2, .L91+4
 1358 000e D318     		add	r3, r2, r3
 1359 0010 9D80     		strh	r5, [r3, #4]
1571:.\Generated_Source\PSoC4/CapSense.c **** 	widget = CapSense_widgetNumber[sensor];
 1360              		.loc 1 1571 0
 1361 0012 164B     		ldr	r3, .L91+8
 1362 0014 4C33     		add	r3, r3, #76
 1363 0016 1A5C     		ldrb	r2, [r3, r0]
 1364              	.LVL163:
1572:.\Generated_Source\PSoC4/CapSense.c **** 	if(CapSense_widgetResolution[widget] < CapSense_RESOLUTION_16_BITS)
 1365              		.loc 1 1572 0
 1366 0018 9200     		lsl	r2, r2, #2
 1367              	.LVL164:
 1368 001a 154B     		ldr	r3, .L91+12
 1369              	.LVL165:
 1370 001c D258     		ldr	r2, [r2, r3]
 1371 001e 154B     		ldr	r3, .L91+16
 1372 0020 9A42     		cmp	r2, r3
 1373 0022 08D8     		bhi	.L90
1574:.\Generated_Source\PSoC4/CapSense.c **** 		oversamplingFactor = CapSense_GetBitValue(scanSpeedTbl, sensor);
 1374              		.loc 1 1574 0
 1375 0024 1448     		ldr	r0, .L91+20
 1376              	.LVL166:
 1377 0026 211C     		mov	r1, r4
 1378 0028 FFF7FEFF 		bl	CapSense_GetBitValue
 1379              	.LVL167:
1575:.\Generated_Source\PSoC4/CapSense.c **** 		CapSense_sensorRaw[sensor] >>= oversamplingFactor;
 1380              		.loc 1 1575 0
 1381 002c 6300     		lsl	r3, r4, #1
 1382 002e 0E4A     		ldr	r2, .L91+4
 1383 0030 D318     		add	r3, r2, r3
 1384 0032 0541     		asr	r5, r5, r0
 1385 0034 9D80     		strh	r5, [r3, #4]
 1386              	.LVL168:
 1387              	.L90:
1581:.\Generated_Source\PSoC4/CapSense.c ****     CapSense_DisableScanSlot(sensor);
 1388              		.loc 1 1581 0
 1389 0036 201C     		mov	r0, r4
 1390 0038 FFF7FEFF 		bl	CapSense_DisableSensor
 1391              	.LVL169:
ARM GAS  C:\Users\kbuchi\AppData\Local\Temp\ccOUPaAd.s 			page 58


1583:.\Generated_Source\PSoC4/CapSense.c **** 	CyIntDisable(CapSense_ISR_NUMBER);
 1392              		.loc 1 1583 0
 1393 003c 0F20     		mov	r0, #15
 1394 003e FFF7FEFF 		bl	CyIntDisable
 1395              	.LVL170:
1603:.\Generated_Source\PSoC4/CapSense.c **** 	newRegValue = CapSense_CSD_CFG_REG;
 1396              		.loc 1 1603 0
 1397 0042 0E4B     		ldr	r3, .L91+24
 1398 0044 1968     		ldr	r1, [r3]
 1399              	.LVL171:
1604:.\Generated_Source\PSoC4/CapSense.c **** 	newRegValue &= ~(CapSense_PRECHARGE_CONFIG_MASK);
 1400              		.loc 1 1604 0
 1401 0046 0E4A     		ldr	r2, .L91+28
 1402 0048 0A40     		and	r2, r1
 1403              	.LVL172:
1605:.\Generated_Source\PSoC4/CapSense.c **** 	newRegValue |= CapSense_CMOD_PRECHARGE_CONFIG;
 1404              		.loc 1 1605 0
 1405 004a A021     		mov	r1, #160
 1406 004c 0902     		lsl	r1, r1, #8
 1407 004e 0A43     		orr	r2, r1
 1408              	.LVL173:
1606:.\Generated_Source\PSoC4/CapSense.c **** 	CapSense_CSD_CFG_REG = newRegValue;
 1409              		.loc 1 1606 0
 1410 0050 1A60     		str	r2, [r3]
1612:.\Generated_Source\PSoC4/CapSense.c **** 	CapSense_CSD_IDAC_REG &= ~(CapSense_CSD_IDAC1_DATA_MASK | CapSense_CSD_IDAC2_DATA_MASK);          
 1411              		.loc 1 1612 0
 1412 0052 0C4B     		ldr	r3, .L91+32
 1413 0054 1968     		ldr	r1, [r3]
 1414 0056 0C4A     		ldr	r2, .L91+36
 1415              	.LVL174:
 1416 0058 0A40     		and	r2, r1
 1417 005a 1A60     		str	r2, [r3]
 1418              	.LVL175:
1615:.\Generated_Source\PSoC4/CapSense.c **** 	CyIntEnable(CapSense_ISR_NUMBER);
 1419              		.loc 1 1615 0
 1420 005c 0F20     		mov	r0, #15
 1421 005e FFF7FEFF 		bl	CyIntEnable
 1422              	.LVL176:
1616:.\Generated_Source\PSoC4/CapSense.c **** }
 1423              		.loc 1 1616 0
 1424              		@ sp needed
 1425              	.LVL177:
 1426 0062 38BD     		pop	{r3, r4, r5, pc}
 1427              	.L92:
 1428              		.align	2
 1429              	.L91:
 1430 0064 0C000840 		.word	1074266124
 1431 0068 00000000 		.word	.LANCHOR0
 1432 006c 00000000 		.word	.LANCHOR2
 1433 0070 00000000 		.word	.LANCHOR1
 1434 0074 FFFFFEFF 		.word	-65537
 1435 0078 00000000 		.word	scanSpeedTbl
 1436 007c 04000840 		.word	1074266116
 1437 0080 FF1FDFFF 		.word	-2154497
 1438 0084 08000840 		.word	1074266120
 1439 0088 00FF80FF 		.word	-8323328
 1440              		.cfi_endproc
ARM GAS  C:\Users\kbuchi\AppData\Local\Temp\ccOUPaAd.s 			page 59


 1441              	.LFE54:
 1442              		.size	CapSense_PostScan, .-CapSense_PostScan
 1443              		.section	.text.CapSense_SetBitValue,"ax",%progbits
 1444              		.align	2
 1445              		.global	CapSense_SetBitValue
 1446              		.code	16
 1447              		.thumb_func
 1448              		.type	CapSense_SetBitValue, %function
 1449              	CapSense_SetBitValue:
 1450              	.LFB59:
1759:.\Generated_Source\PSoC4/CapSense.c **** 
1760:.\Generated_Source\PSoC4/CapSense.c **** 
1761:.\Generated_Source\PSoC4/CapSense.c **** /*******************************************************************************
1762:.\Generated_Source\PSoC4/CapSense.c **** * Function Name: CapSense_SetBitValue
1763:.\Generated_Source\PSoC4/CapSense.c **** ********************************************************************************
1764:.\Generated_Source\PSoC4/CapSense.c **** *
1765:.\Generated_Source\PSoC4/CapSense.c **** * Summary:
1766:.\Generated_Source\PSoC4/CapSense.c **** *  The API sets a bit status of the bit in the table array which contains masks.
1767:.\Generated_Source\PSoC4/CapSense.c **** * 
1768:.\Generated_Source\PSoC4/CapSense.c **** * Parameters:
1769:.\Generated_Source\PSoC4/CapSense.c **** *  table[] - array with bit masks.
1770:.\Generated_Source\PSoC4/CapSense.c **** *  position - position of bit in the table[] array.
1771:.\Generated_Source\PSoC4/CapSense.c **** *  value: 0 - bit is not set; 1 - bit is set.
1772:.\Generated_Source\PSoC4/CapSense.c **** *
1773:.\Generated_Source\PSoC4/CapSense.c **** * Return:
1774:.\Generated_Source\PSoC4/CapSense.c **** *  None
1775:.\Generated_Source\PSoC4/CapSense.c **** *
1776:.\Generated_Source\PSoC4/CapSense.c **** * Global Variables:
1777:.\Generated_Source\PSoC4/CapSense.c **** *  None
1778:.\Generated_Source\PSoC4/CapSense.c **** *
1779:.\Generated_Source\PSoC4/CapSense.c **** * Side Effects:
1780:.\Generated_Source\PSoC4/CapSense.c **** *  None
1781:.\Generated_Source\PSoC4/CapSense.c **** *
1782:.\Generated_Source\PSoC4/CapSense.c **** *******************************************************************************/
1783:.\Generated_Source\PSoC4/CapSense.c **** void CapSense_SetBitValue(uint8 table[], uint32 position, uint32 value)
1784:.\Generated_Source\PSoC4/CapSense.c **** {
 1451              		.loc 1 1784 0
 1452              		.cfi_startproc
 1453              	.LVL178:
 1454 0000 10B5     		push	{r4, lr}
 1455              		.cfi_def_cfa_offset 8
 1456              		.cfi_offset 4, -8
 1457              		.cfi_offset 14, -4
1785:.\Generated_Source\PSoC4/CapSense.c ****     uint32 offset;
1786:.\Generated_Source\PSoC4/CapSense.c **** 	uint8 enMask;
1787:.\Generated_Source\PSoC4/CapSense.c **** 	
1788:.\Generated_Source\PSoC4/CapSense.c **** 	/* position is divided by 8 to calculate the element of the 
1789:.\Generated_Source\PSoC4/CapSense.c **** 	   table[] array that contains the enable bit 
1790:.\Generated_Source\PSoC4/CapSense.c **** 	   for an appropriate sensor.
1791:.\Generated_Source\PSoC4/CapSense.c **** 	*/
1792:.\Generated_Source\PSoC4/CapSense.c **** 	offset = (position >> 3u);
 1458              		.loc 1 1792 0
 1459 0002 CB08     		lsr	r3, r1, #3
 1460              	.LVL179:
1793:.\Generated_Source\PSoC4/CapSense.c **** 	
1794:.\Generated_Source\PSoC4/CapSense.c **** 	/* The enMask calculation for the appropriate sensor. Operation (position & 0x07u) 
1795:.\Generated_Source\PSoC4/CapSense.c **** 	   intends to calculate the enable bit offset for the 8-bit element of the 
ARM GAS  C:\Users\kbuchi\AppData\Local\Temp\ccOUPaAd.s 			page 60


1796:.\Generated_Source\PSoC4/CapSense.c **** 	   table[] array.
1797:.\Generated_Source\PSoC4/CapSense.c **** 	*/
1798:.\Generated_Source\PSoC4/CapSense.c **** 	enMask = 0x01u << (position & 0x07u);
 1461              		.loc 1 1798 0
 1462 0004 0724     		mov	r4, #7
 1463 0006 2140     		and	r1, r4
 1464              	.LVL180:
 1465 0008 0124     		mov	r4, #1
 1466 000a 8C40     		lsl	r4, r4, r1
 1467 000c E1B2     		uxtb	r1, r4
 1468              	.LVL181:
1799:.\Generated_Source\PSoC4/CapSense.c **** 	
1800:.\Generated_Source\PSoC4/CapSense.c **** 	if(0u != value)
 1469              		.loc 1 1800 0
 1470 000e 002A     		cmp	r2, #0
 1471 0010 04D0     		beq	.L94
1801:.\Generated_Source\PSoC4/CapSense.c **** 	{
1802:.\Generated_Source\PSoC4/CapSense.c **** 		table[offset] |= enMask;
 1472              		.loc 1 1802 0
 1473 0012 C018     		add	r0, r0, r3
 1474              	.LVL182:
 1475 0014 0378     		ldrb	r3, [r0]
 1476              	.LVL183:
 1477 0016 1943     		orr	r1, r3
 1478 0018 0170     		strb	r1, [r0]
 1479 001a 03E0     		b	.L93
 1480              	.LVL184:
 1481              	.L94:
1803:.\Generated_Source\PSoC4/CapSense.c **** 	}
1804:.\Generated_Source\PSoC4/CapSense.c **** 	else
1805:.\Generated_Source\PSoC4/CapSense.c **** 	{
1806:.\Generated_Source\PSoC4/CapSense.c **** 		table[offset] &= (uint8)~(enMask);
 1482              		.loc 1 1806 0
 1483 001c C018     		add	r0, r0, r3
 1484              	.LVL185:
 1485 001e 0378     		ldrb	r3, [r0]
 1486              	.LVL186:
 1487 0020 8B43     		bic	r3, r1
 1488 0022 0370     		strb	r3, [r0]
 1489              	.L93:
1807:.\Generated_Source\PSoC4/CapSense.c **** 	}
1808:.\Generated_Source\PSoC4/CapSense.c **** }
 1490              		.loc 1 1808 0
 1491              		@ sp needed
 1492              	.LVL187:
 1493 0024 10BD     		pop	{r4, pc}
 1494              		.cfi_endproc
 1495              	.LFE59:
 1496              		.size	CapSense_SetBitValue, .-CapSense_SetBitValue
 1497 0026 C046     		.section	.text.CapSense_ScanWidget,"ax",%progbits
 1498              		.align	2
 1499              		.global	CapSense_ScanWidget
 1500              		.code	16
 1501              		.thumb_func
 1502              		.type	CapSense_ScanWidget, %function
 1503              	CapSense_ScanWidget:
 1504              	.LFB40:
ARM GAS  C:\Users\kbuchi\AppData\Local\Temp\ccOUPaAd.s 			page 61


 621:.\Generated_Source\PSoC4/CapSense.c **** {
 1505              		.loc 1 621 0
 1506              		.cfi_startproc
 1507              	.LVL188:
 1508 0000 F0B5     		push	{r4, r5, r6, r7, lr}
 1509              		.cfi_def_cfa_offset 20
 1510              		.cfi_offset 4, -20
 1511              		.cfi_offset 5, -16
 1512              		.cfi_offset 6, -12
 1513              		.cfi_offset 7, -8
 1514              		.cfi_offset 14, -4
 1515 0002 4746     		mov	r7, r8
 1516 0004 80B4     		push	{r7}
 1517              		.cfi_def_cfa_offset 24
 1518              		.cfi_offset 8, -24
 627:.\Generated_Source\PSoC4/CapSense.c **** 	CapSense_sensorIndex = CapSense_rawDataIndex[widget];
 1519              		.loc 1 627 0
 1520 0006 1F4B     		ldr	r3, .L106
 1521 0008 1F5C     		ldrb	r7, [r3, r0]
 1522 000a 1F4B     		ldr	r3, .L106+4
 1523 000c 1F74     		strb	r7, [r3, #16]
 630:.\Generated_Source\PSoC4/CapSense.c **** 	sensorsPerWidget = CapSense_numberOfSensors[widget];
 1524              		.loc 1 630 0
 1525 000e 1F4B     		ldr	r3, .L106+8
 1526 0010 1B5C     		ldrb	r3, [r3, r0]
 1527              	.LVL189:
 633:.\Generated_Source\PSoC4/CapSense.c **** 	if(sensorsPerWidget == 0u)
 1528              		.loc 1 633 0
 1529 0012 002B     		cmp	r3, #0
 1530 0014 00D1     		bne	.L97
 635:.\Generated_Source\PSoC4/CapSense.c **** 		sensorsPerWidget = 1u;
 1531              		.loc 1 635 0
 1532 0016 0123     		mov	r3, #1
 1533              	.LVL190:
 1534              	.L97:
 639:.\Generated_Source\PSoC4/CapSense.c **** 	lastSensor = (CapSense_rawDataIndex[widget] + sensorsPerWidget) - 1u;
 1535              		.loc 1 639 0
 1536 0018 FF18     		add	r7, r7, r3
 1537 001a 013F     		sub	r7, r7, #1
 1538              	.LVL191:
 642:.\Generated_Source\PSoC4/CapSense.c **** 	for(snsIndex = 0u; snsIndex < CapSense_TOTAL_SENSOR_MASK; snsIndex++)
 1539              		.loc 1 642 0
 1540 001c 0023     		mov	r3, #0
 1541              	.LVL192:
 1542 001e 05E0     		b	.L98
 1543              	.LVL193:
 1544              	.L99:
 645:.\Generated_Source\PSoC4/CapSense.c **** 		CapSense_sensorEnableMaskBackup[snsIndex] = CapSense_sensorEnableMask[snsIndex];
 1545              		.loc 1 645 0 discriminator 2
 1546 0020 1B49     		ldr	r1, .L106+12
 1547 0022 CA18     		add	r2, r1, r3
 1548 0024 1279     		ldrb	r2, [r2, #4]
 1549 0026 1B49     		ldr	r1, .L106+16
 1550 0028 CA54     		strb	r2, [r1, r3]
 642:.\Generated_Source\PSoC4/CapSense.c **** 	for(snsIndex = 0u; snsIndex < CapSense_TOTAL_SENSOR_MASK; snsIndex++)
 1551              		.loc 1 642 0 discriminator 2
 1552 002a 0133     		add	r3, r3, #1
ARM GAS  C:\Users\kbuchi\AppData\Local\Temp\ccOUPaAd.s 			page 62


 1553              	.LVL194:
 1554              	.L98:
 642:.\Generated_Source\PSoC4/CapSense.c **** 	for(snsIndex = 0u; snsIndex < CapSense_TOTAL_SENSOR_MASK; snsIndex++)
 1555              		.loc 1 642 0 is_stmt 0 discriminator 1
 1556 002c 002B     		cmp	r3, #0
 1557 002e F7D0     		beq	.L99
 1558 0030 0024     		mov	r4, #0
 652:.\Generated_Source\PSoC4/CapSense.c **** 	    if((snsIndex >= CapSense_sensorIndex) && (snsIndex <= lastSensor))
 1559              		.loc 1 652 0 is_stmt 1
 1560 0032 154D     		ldr	r5, .L106+4
 660:.\Generated_Source\PSoC4/CapSense.c **** 		    CapSense_SetBitValue(CapSense_sensorEnableMask, snsIndex, 0u);
 1561              		.loc 1 660 0
 1562 0034 164E     		ldr	r6, .L106+12
 1563 0036 0436     		add	r6, r6, #4
 655:.\Generated_Source\PSoC4/CapSense.c **** 			CapSense_SetBitValue(CapSense_sensorEnableMask, snsIndex, 1u);
 1564              		.loc 1 655 0
 1565 0038 B046     		mov	r8, r6
 1566 003a 11E0     		b	.L100
 1567              	.LVL195:
 1568              	.L103:
 652:.\Generated_Source\PSoC4/CapSense.c **** 	    if((snsIndex >= CapSense_sensorIndex) && (snsIndex <= lastSensor))
 1569              		.loc 1 652 0
 1570 003c 2B7C     		ldrb	r3, [r5, #16]
 1571 003e DBB2     		uxtb	r3, r3
 1572 0040 A342     		cmp	r3, r4
 1573 0042 07D8     		bhi	.L101
 652:.\Generated_Source\PSoC4/CapSense.c **** 	    if((snsIndex >= CapSense_sensorIndex) && (snsIndex <= lastSensor))
 1574              		.loc 1 652 0 is_stmt 0 discriminator 1
 1575 0044 BC42     		cmp	r4, r7
 1576 0046 05D8     		bhi	.L101
 655:.\Generated_Source\PSoC4/CapSense.c **** 			CapSense_SetBitValue(CapSense_sensorEnableMask, snsIndex, 1u);
 1577              		.loc 1 655 0 is_stmt 1
 1578 0048 4046     		mov	r0, r8
 1579 004a 211C     		mov	r1, r4
 1580 004c 0122     		mov	r2, #1
 1581 004e FFF7FEFF 		bl	CapSense_SetBitValue
 1582              	.LVL196:
 1583 0052 04E0     		b	.L102
 1584              	.L101:
 660:.\Generated_Source\PSoC4/CapSense.c **** 		    CapSense_SetBitValue(CapSense_sensorEnableMask, snsIndex, 0u);
 1585              		.loc 1 660 0
 1586 0054 301C     		mov	r0, r6
 1587 0056 211C     		mov	r1, r4
 1588 0058 0022     		mov	r2, #0
 1589 005a FFF7FEFF 		bl	CapSense_SetBitValue
 1590              	.LVL197:
 1591              	.L102:
 649:.\Generated_Source\PSoC4/CapSense.c **** 	for(snsIndex = 0u; snsIndex < CapSense_TOTAL_SENSOR_COUNT; snsIndex++)
 1592              		.loc 1 649 0
 1593 005e 0134     		add	r4, r4, #1
 1594              	.LVL198:
 1595              	.L100:
 649:.\Generated_Source\PSoC4/CapSense.c **** 	for(snsIndex = 0u; snsIndex < CapSense_TOTAL_SENSOR_COUNT; snsIndex++)
 1596              		.loc 1 649 0 is_stmt 0 discriminator 1
 1597 0060 042C     		cmp	r4, #4
 1598 0062 EBD9     		bls	.L103
 665:.\Generated_Source\PSoC4/CapSense.c ****     if(CapSense_sensorIndex < CapSense_TOTAL_SENSOR_COUNT)
ARM GAS  C:\Users\kbuchi\AppData\Local\Temp\ccOUPaAd.s 			page 63


 1599              		.loc 1 665 0 is_stmt 1
 1600 0064 084B     		ldr	r3, .L106+4
 1601 0066 1B7C     		ldrb	r3, [r3, #16]
 1602 0068 DBB2     		uxtb	r3, r3
 1603 006a 042B     		cmp	r3, #4
 1604 006c 06D8     		bhi	.L96
 668:.\Generated_Source\PSoC4/CapSense.c **** 		CapSense_csdStatusVar = (CapSense_SW_STS_BUSY | CapSense_SW_CTRL_WIDGET_SCAN);
 1605              		.loc 1 668 0
 1606 006e 064B     		ldr	r3, .L106+4
 1607 0070 4122     		mov	r2, #65
 1608 0072 1A70     		strb	r2, [r3]
 670:.\Generated_Source\PSoC4/CapSense.c ****         CapSense_PreScan((uint32)CapSense_sensorIndex);
 1609              		.loc 1 670 0
 1610 0074 187C     		ldrb	r0, [r3, #16]
 1611 0076 C0B2     		uxtb	r0, r0
 1612 0078 FFF7FEFF 		bl	CapSense_PreScan
 1613              	.LVL199:
 1614              	.L96:
 672:.\Generated_Source\PSoC4/CapSense.c **** }
 1615              		.loc 1 672 0
 1616              		@ sp needed
 1617              	.LVL200:
 1618              	.LVL201:
 1619 007c 04BC     		pop	{r2}
 1620 007e 9046     		mov	r8, r2
 1621 0080 F0BD     		pop	{r4, r5, r6, r7, pc}
 1622              	.L107:
 1623 0082 C046     		.align	2
 1624              	.L106:
 1625 0084 00000000 		.word	CapSense_rawDataIndex
 1626 0088 00000000 		.word	.LANCHOR0
 1627 008c 00000000 		.word	CapSense_numberOfSensors
 1628 0090 00000000 		.word	.LANCHOR1
 1629 0094 00000000 		.word	CapSense_sensorEnableMaskBackup
 1630              		.cfi_endproc
 1631              	.LFE40:
 1632              		.size	CapSense_ScanWidget, .-CapSense_ScanWidget
 1633              		.section	.text.CapSense_GetSenseClkDivider,"ax",%progbits
 1634              		.align	2
 1635              		.global	CapSense_GetSenseClkDivider
 1636              		.code	16
 1637              		.thumb_func
 1638              		.type	CapSense_GetSenseClkDivider, %function
 1639              	CapSense_GetSenseClkDivider:
 1640              	.LFB60:
1809:.\Generated_Source\PSoC4/CapSense.c **** 
1810:.\Generated_Source\PSoC4/CapSense.c **** 
1811:.\Generated_Source\PSoC4/CapSense.c **** 
1812:.\Generated_Source\PSoC4/CapSense.c **** /*******************************************************************************
1813:.\Generated_Source\PSoC4/CapSense.c **** * Function Name: CapSense_GetSenseClkDivider
1814:.\Generated_Source\PSoC4/CapSense.c **** ********************************************************************************
1815:.\Generated_Source\PSoC4/CapSense.c **** *
1816:.\Generated_Source\PSoC4/CapSense.c **** * Summary:
1817:.\Generated_Source\PSoC4/CapSense.c **** *  This API returns a value of the sense clock divider for the  sensor.
1818:.\Generated_Source\PSoC4/CapSense.c **** *
1819:.\Generated_Source\PSoC4/CapSense.c **** * Parameters:
1820:.\Generated_Source\PSoC4/CapSense.c **** *  sensor: sensor index. The index value can be 
ARM GAS  C:\Users\kbuchi\AppData\Local\Temp\ccOUPaAd.s 			page 64


1821:.\Generated_Source\PSoC4/CapSense.c **** *  from 0 to (CapSense_TOTAL_SENSOR_COUNT-1).
1822:.\Generated_Source\PSoC4/CapSense.c **** *
1823:.\Generated_Source\PSoC4/CapSense.c **** * Return:
1824:.\Generated_Source\PSoC4/CapSense.c **** *  This API returns the sense clock divider of the sensor. 
1825:.\Generated_Source\PSoC4/CapSense.c **** *
1826:.\Generated_Source\PSoC4/CapSense.c **** * Global Variables:
1827:.\Generated_Source\PSoC4/CapSense.c **** *  CapSense_senseClkDividerVal[] - stores the sense clock divider values.
1828:.\Generated_Source\PSoC4/CapSense.c **** * 
1829:.\Generated_Source\PSoC4/CapSense.c **** * Side Effects:
1830:.\Generated_Source\PSoC4/CapSense.c **** *  None
1831:.\Generated_Source\PSoC4/CapSense.c **** *
1832:.\Generated_Source\PSoC4/CapSense.c **** *******************************************************************************/
1833:.\Generated_Source\PSoC4/CapSense.c **** uint32 CapSense_GetSenseClkDivider(uint32 sensor)
1834:.\Generated_Source\PSoC4/CapSense.c **** {
 1641              		.loc 1 1834 0
 1642              		.cfi_startproc
 1643              	.LVL202:
1835:.\Generated_Source\PSoC4/CapSense.c **** 	#if(0u != CapSense_MULTIPLE_FREQUENCY_SET)
1836:.\Generated_Source\PSoC4/CapSense.c **** 		return((uint32)CapSense_senseClkDividerVal[sensor]);
 1644              		.loc 1 1836 0
 1645 0000 014B     		ldr	r3, .L109
 1646 0002 185C     		ldrb	r0, [r3, r0]
 1647              	.LVL203:
1837:.\Generated_Source\PSoC4/CapSense.c **** 	#else
1838:.\Generated_Source\PSoC4/CapSense.c **** 		return((uint32)CapSense_senseClkDividerVal);
1839:.\Generated_Source\PSoC4/CapSense.c **** 	#endif /* (0u != CapSense_MULTIPLE_FREQUENCY_SET) */
1840:.\Generated_Source\PSoC4/CapSense.c **** }
 1648              		.loc 1 1840 0
 1649              		@ sp needed
 1650 0004 7047     		bx	lr
 1651              	.L110:
 1652 0006 C046     		.align	2
 1653              	.L109:
 1654 0008 00000000 		.word	CapSense_senseClkDividerVal
 1655              		.cfi_endproc
 1656              	.LFE60:
 1657              		.size	CapSense_GetSenseClkDivider, .-CapSense_GetSenseClkDivider
 1658              		.section	.text.CapSense_SetSenseClkDivider,"ax",%progbits
 1659              		.align	2
 1660              		.global	CapSense_SetSenseClkDivider
 1661              		.code	16
 1662              		.thumb_func
 1663              		.type	CapSense_SetSenseClkDivider, %function
 1664              	CapSense_SetSenseClkDivider:
 1665              	.LFB61:
1841:.\Generated_Source\PSoC4/CapSense.c **** 
1842:.\Generated_Source\PSoC4/CapSense.c **** #if (CapSense_TUNING_METHOD != CapSense__TUNING_NONE)
1843:.\Generated_Source\PSoC4/CapSense.c **** 	/*******************************************************************************
1844:.\Generated_Source\PSoC4/CapSense.c **** 	* Function Name: CapSense_SetSenseClkDivider
1845:.\Generated_Source\PSoC4/CapSense.c **** 	********************************************************************************
1846:.\Generated_Source\PSoC4/CapSense.c **** 	*
1847:.\Generated_Source\PSoC4/CapSense.c **** 	* Summary:
1848:.\Generated_Source\PSoC4/CapSense.c **** 	*  This API sets a value of the sense clock divider for the  sensor. 
1849:.\Generated_Source\PSoC4/CapSense.c **** 	*
1850:.\Generated_Source\PSoC4/CapSense.c **** 	* Parameters:
1851:.\Generated_Source\PSoC4/CapSense.c **** 	*  sensor:  Sensor index.
1852:.\Generated_Source\PSoC4/CapSense.c **** 	*  senseClk: represents the sense clock value.
ARM GAS  C:\Users\kbuchi\AppData\Local\Temp\ccOUPaAd.s 			page 65


1853:.\Generated_Source\PSoC4/CapSense.c **** 	*
1854:.\Generated_Source\PSoC4/CapSense.c **** 	* Return:
1855:.\Generated_Source\PSoC4/CapSense.c **** 	*  None.
1856:.\Generated_Source\PSoC4/CapSense.c **** 	*
1857:.\Generated_Source\PSoC4/CapSense.c **** 	* Global Variables:
1858:.\Generated_Source\PSoC4/CapSense.c **** 	*  CapSense_senseClkDividerVal[] - stores the sense clock divider values.
1859:.\Generated_Source\PSoC4/CapSense.c **** 	* 
1860:.\Generated_Source\PSoC4/CapSense.c **** 	* Side Effects:
1861:.\Generated_Source\PSoC4/CapSense.c **** 	*  None
1862:.\Generated_Source\PSoC4/CapSense.c **** 	*
1863:.\Generated_Source\PSoC4/CapSense.c **** 	*******************************************************************************/
1864:.\Generated_Source\PSoC4/CapSense.c **** 	void CapSense_SetSenseClkDivider(uint32 sensor, uint32 senseClk)
1865:.\Generated_Source\PSoC4/CapSense.c **** 	{
 1666              		.loc 1 1865 0
 1667              		.cfi_startproc
 1668              	.LVL204:
1866:.\Generated_Source\PSoC4/CapSense.c **** 		#if(0u != CapSense_MULTIPLE_FREQUENCY_SET)
1867:.\Generated_Source\PSoC4/CapSense.c **** 			CapSense_senseClkDividerVal[sensor] = (uint8)senseClk;
 1669              		.loc 1 1867 0
 1670 0000 014B     		ldr	r3, .L112
 1671 0002 1954     		strb	r1, [r3, r0]
1868:.\Generated_Source\PSoC4/CapSense.c **** 		#else
1869:.\Generated_Source\PSoC4/CapSense.c **** 			CapSense_senseClkDividerVal = (uint8)senseClk;
1870:.\Generated_Source\PSoC4/CapSense.c **** 		#endif /* (0u != CapSense_MULTIPLE_FREQUENCY_SET) */
1871:.\Generated_Source\PSoC4/CapSense.c **** 	}
 1672              		.loc 1 1871 0
 1673              		@ sp needed
 1674 0004 7047     		bx	lr
 1675              	.L113:
 1676 0006 C046     		.align	2
 1677              	.L112:
 1678 0008 00000000 		.word	CapSense_senseClkDividerVal
 1679              		.cfi_endproc
 1680              	.LFE61:
 1681              		.size	CapSense_SetSenseClkDivider, .-CapSense_SetSenseClkDivider
 1682              		.section	.text.CapSense_GetModulatorClkDivider,"ax",%progbits
 1683              		.align	2
 1684              		.global	CapSense_GetModulatorClkDivider
 1685              		.code	16
 1686              		.thumb_func
 1687              		.type	CapSense_GetModulatorClkDivider, %function
 1688              	CapSense_GetModulatorClkDivider:
 1689              	.LFB62:
1872:.\Generated_Source\PSoC4/CapSense.c **** #endif /* (CapSense_TUNING_METHOD != CapSense__TUNING_NONE) */
1873:.\Generated_Source\PSoC4/CapSense.c **** 
1874:.\Generated_Source\PSoC4/CapSense.c **** 
1875:.\Generated_Source\PSoC4/CapSense.c **** /*******************************************************************************
1876:.\Generated_Source\PSoC4/CapSense.c **** * Function Name: CapSense_GetModulatorClkDivider
1877:.\Generated_Source\PSoC4/CapSense.c **** ********************************************************************************
1878:.\Generated_Source\PSoC4/CapSense.c **** *
1879:.\Generated_Source\PSoC4/CapSense.c **** * Summary:
1880:.\Generated_Source\PSoC4/CapSense.c **** *  This API returns a value of the modulator sample clock divider for the  sensor.
1881:.\Generated_Source\PSoC4/CapSense.c **** *
1882:.\Generated_Source\PSoC4/CapSense.c **** * Parameters:
1883:.\Generated_Source\PSoC4/CapSense.c **** *  sensor: sensor index. The value of index can be 
1884:.\Generated_Source\PSoC4/CapSense.c **** *  from 0 to (CapSense_TOTAL_SENSOR_COUNT-1).
1885:.\Generated_Source\PSoC4/CapSense.c **** *
ARM GAS  C:\Users\kbuchi\AppData\Local\Temp\ccOUPaAd.s 			page 66


1886:.\Generated_Source\PSoC4/CapSense.c **** * Return:
1887:.\Generated_Source\PSoC4/CapSense.c **** *  This API returns the modulator sample clock divider for the  sensor.
1888:.\Generated_Source\PSoC4/CapSense.c **** *
1889:.\Generated_Source\PSoC4/CapSense.c **** * Global Variables:
1890:.\Generated_Source\PSoC4/CapSense.c **** *  CapSense_sampleClkDividerVal[] - stores the modulator sample divider values.
1891:.\Generated_Source\PSoC4/CapSense.c **** * 
1892:.\Generated_Source\PSoC4/CapSense.c **** * Side Effects:
1893:.\Generated_Source\PSoC4/CapSense.c **** *  None
1894:.\Generated_Source\PSoC4/CapSense.c **** *
1895:.\Generated_Source\PSoC4/CapSense.c **** *******************************************************************************/
1896:.\Generated_Source\PSoC4/CapSense.c **** uint32 CapSense_GetModulatorClkDivider(uint32 sensor)
1897:.\Generated_Source\PSoC4/CapSense.c **** {
 1690              		.loc 1 1897 0
 1691              		.cfi_startproc
 1692              	.LVL205:
1898:.\Generated_Source\PSoC4/CapSense.c **** 	#if(0u != CapSense_MULTIPLE_FREQUENCY_SET)
1899:.\Generated_Source\PSoC4/CapSense.c **** 		return((uint32)CapSense_sampleClkDividerVal[sensor]);
 1693              		.loc 1 1899 0
 1694 0000 014B     		ldr	r3, .L115
 1695 0002 185C     		ldrb	r0, [r3, r0]
 1696              	.LVL206:
1900:.\Generated_Source\PSoC4/CapSense.c **** 	#else
1901:.\Generated_Source\PSoC4/CapSense.c **** 		return((uint32)CapSense_sampleClkDividerVal);
1902:.\Generated_Source\PSoC4/CapSense.c **** 	#endif /* (0u != CapSense_MULTIPLE_FREQUENCY_SET) */
1903:.\Generated_Source\PSoC4/CapSense.c **** }
 1697              		.loc 1 1903 0
 1698              		@ sp needed
 1699 0004 7047     		bx	lr
 1700              	.L116:
 1701 0006 C046     		.align	2
 1702              	.L115:
 1703 0008 00000000 		.word	CapSense_sampleClkDividerVal
 1704              		.cfi_endproc
 1705              	.LFE62:
 1706              		.size	CapSense_GetModulatorClkDivider, .-CapSense_GetModulatorClkDivider
 1707              		.section	.text.CapSense_SetModulatorClkDivider,"ax",%progbits
 1708              		.align	2
 1709              		.global	CapSense_SetModulatorClkDivider
 1710              		.code	16
 1711              		.thumb_func
 1712              		.type	CapSense_SetModulatorClkDivider, %function
 1713              	CapSense_SetModulatorClkDivider:
 1714              	.LFB63:
1904:.\Generated_Source\PSoC4/CapSense.c **** 
1905:.\Generated_Source\PSoC4/CapSense.c **** #if (CapSense_TUNING_METHOD != CapSense__TUNING_NONE)
1906:.\Generated_Source\PSoC4/CapSense.c **** 	/*******************************************************************************
1907:.\Generated_Source\PSoC4/CapSense.c **** 	* Function Name: CapSense_SetModulatorClkDivider
1908:.\Generated_Source\PSoC4/CapSense.c **** 	********************************************************************************
1909:.\Generated_Source\PSoC4/CapSense.c **** 	*
1910:.\Generated_Source\PSoC4/CapSense.c **** 	* Summary:
1911:.\Generated_Source\PSoC4/CapSense.c **** 	*  This API sets a value of the modulator sample clock divider for the  sensor.
1912:.\Generated_Source\PSoC4/CapSense.c **** 	*
1913:.\Generated_Source\PSoC4/CapSense.c **** 	* Parameters:
1914:.\Generated_Source\PSoC4/CapSense.c **** 	*  sensor:  Sensor index.
1915:.\Generated_Source\PSoC4/CapSense.c **** 	*  modulatorClk: represents the modulator sample clock value.
1916:.\Generated_Source\PSoC4/CapSense.c **** 	*
1917:.\Generated_Source\PSoC4/CapSense.c **** 	* Return:
ARM GAS  C:\Users\kbuchi\AppData\Local\Temp\ccOUPaAd.s 			page 67


1918:.\Generated_Source\PSoC4/CapSense.c **** 	*  None.
1919:.\Generated_Source\PSoC4/CapSense.c **** 	*
1920:.\Generated_Source\PSoC4/CapSense.c **** 	* Global Variables:
1921:.\Generated_Source\PSoC4/CapSense.c **** 	*  CapSense_sampleClkDividerVal[] - stores the modulator sample divider values.
1922:.\Generated_Source\PSoC4/CapSense.c **** 	* 
1923:.\Generated_Source\PSoC4/CapSense.c **** 	* Side Effects:
1924:.\Generated_Source\PSoC4/CapSense.c **** 	*  None
1925:.\Generated_Source\PSoC4/CapSense.c **** 	*
1926:.\Generated_Source\PSoC4/CapSense.c **** 	*******************************************************************************/
1927:.\Generated_Source\PSoC4/CapSense.c **** 	void CapSense_SetModulatorClkDivider(uint32 sensor, uint32 modulatorClk)
1928:.\Generated_Source\PSoC4/CapSense.c **** 	{
 1715              		.loc 1 1928 0
 1716              		.cfi_startproc
 1717              	.LVL207:
1929:.\Generated_Source\PSoC4/CapSense.c **** 		#if(0u != CapSense_MULTIPLE_FREQUENCY_SET)
1930:.\Generated_Source\PSoC4/CapSense.c **** 			CapSense_sampleClkDividerVal[sensor] = (uint8)modulatorClk;
 1718              		.loc 1 1930 0
 1719 0000 014B     		ldr	r3, .L118
 1720 0002 1954     		strb	r1, [r3, r0]
1931:.\Generated_Source\PSoC4/CapSense.c **** 		#else
1932:.\Generated_Source\PSoC4/CapSense.c **** 			CapSense_sampleClkDividerVal = (uint8)modulatorClk;
1933:.\Generated_Source\PSoC4/CapSense.c **** 		#endif /* (0u != CapSense_MULTIPLE_FREQUENCY_SET) */
1934:.\Generated_Source\PSoC4/CapSense.c **** 	}
 1721              		.loc 1 1934 0
 1722              		@ sp needed
 1723 0004 7047     		bx	lr
 1724              	.L119:
 1725 0006 C046     		.align	2
 1726              	.L118:
 1727 0008 00000000 		.word	CapSense_sampleClkDividerVal
 1728              		.cfi_endproc
 1729              	.LFE63:
 1730              		.size	CapSense_SetModulatorClkDivider, .-CapSense_SetModulatorClkDivider
 1731              		.section	.text.CapSense_GetModulationIDAC,"ax",%progbits
 1732              		.align	2
 1733              		.global	CapSense_GetModulationIDAC
 1734              		.code	16
 1735              		.thumb_func
 1736              		.type	CapSense_GetModulationIDAC, %function
 1737              	CapSense_GetModulationIDAC:
 1738              	.LFB64:
1935:.\Generated_Source\PSoC4/CapSense.c **** #endif /* (CapSense_TUNING_METHOD != CapSense__TUNING_NONE) */
1936:.\Generated_Source\PSoC4/CapSense.c **** 
1937:.\Generated_Source\PSoC4/CapSense.c **** /*******************************************************************************
1938:.\Generated_Source\PSoC4/CapSense.c **** * Function Name: CapSense_GetModulationIDAC
1939:.\Generated_Source\PSoC4/CapSense.c **** ********************************************************************************
1940:.\Generated_Source\PSoC4/CapSense.c **** *
1941:.\Generated_Source\PSoC4/CapSense.c **** * Summary:
1942:.\Generated_Source\PSoC4/CapSense.c **** *  This API returns a value of the modulation IDAC for the  sensor.
1943:.\Generated_Source\PSoC4/CapSense.c **** *
1944:.\Generated_Source\PSoC4/CapSense.c **** * Parameters:
1945:.\Generated_Source\PSoC4/CapSense.c **** *  sensor: sensor index. The index value can be 
1946:.\Generated_Source\PSoC4/CapSense.c **** *  from 0 to (CapSense_TOTAL_SENSOR_COUNT-1).
1947:.\Generated_Source\PSoC4/CapSense.c **** *
1948:.\Generated_Source\PSoC4/CapSense.c **** * Return:
1949:.\Generated_Source\PSoC4/CapSense.c **** *  This API returns the modulation IDAC of the sensor. 
1950:.\Generated_Source\PSoC4/CapSense.c **** *
ARM GAS  C:\Users\kbuchi\AppData\Local\Temp\ccOUPaAd.s 			page 68


1951:.\Generated_Source\PSoC4/CapSense.c **** * Global Variables:
1952:.\Generated_Source\PSoC4/CapSense.c **** *  CapSense_modulationIDAC[] - stores modulation IDAC values.
1953:.\Generated_Source\PSoC4/CapSense.c **** * 
1954:.\Generated_Source\PSoC4/CapSense.c **** * Side Effects:
1955:.\Generated_Source\PSoC4/CapSense.c **** *  None
1956:.\Generated_Source\PSoC4/CapSense.c **** *
1957:.\Generated_Source\PSoC4/CapSense.c **** *******************************************************************************/
1958:.\Generated_Source\PSoC4/CapSense.c **** uint32 CapSense_GetModulationIDAC(uint32 sensor)
1959:.\Generated_Source\PSoC4/CapSense.c **** {
 1739              		.loc 1 1959 0
 1740              		.cfi_startproc
 1741              	.LVL208:
1960:.\Generated_Source\PSoC4/CapSense.c **** 		return((uint32)CapSense_modulationIDAC[sensor]);
 1742              		.loc 1 1960 0
 1743 0000 014B     		ldr	r3, .L121
 1744 0002 185C     		ldrb	r0, [r3, r0]
 1745              	.LVL209:
1961:.\Generated_Source\PSoC4/CapSense.c **** }
 1746              		.loc 1 1961 0
 1747              		@ sp needed
 1748 0004 7047     		bx	lr
 1749              	.L122:
 1750 0006 C046     		.align	2
 1751              	.L121:
 1752 0008 00000000 		.word	CapSense_modulationIDAC
 1753              		.cfi_endproc
 1754              	.LFE64:
 1755              		.size	CapSense_GetModulationIDAC, .-CapSense_GetModulationIDAC
 1756              		.section	.text.CapSense_SetModulationIDAC,"ax",%progbits
 1757              		.align	2
 1758              		.global	CapSense_SetModulationIDAC
 1759              		.code	16
 1760              		.thumb_func
 1761              		.type	CapSense_SetModulationIDAC, %function
 1762              	CapSense_SetModulationIDAC:
 1763              	.LFB65:
1962:.\Generated_Source\PSoC4/CapSense.c **** 
1963:.\Generated_Source\PSoC4/CapSense.c **** #if (CapSense_TUNING_METHOD != CapSense__TUNING_NONE)
1964:.\Generated_Source\PSoC4/CapSense.c **** 	/*******************************************************************************
1965:.\Generated_Source\PSoC4/CapSense.c **** 	* Function Name: CapSense_SetModulationIDAC
1966:.\Generated_Source\PSoC4/CapSense.c **** 	********************************************************************************
1967:.\Generated_Source\PSoC4/CapSense.c **** 	*
1968:.\Generated_Source\PSoC4/CapSense.c **** 	* Summary:
1969:.\Generated_Source\PSoC4/CapSense.c **** 	*  This API sets a value of the modulation IDAC for the  sensor.
1970:.\Generated_Source\PSoC4/CapSense.c **** 	*
1971:.\Generated_Source\PSoC4/CapSense.c **** 	* Parameters:
1972:.\Generated_Source\PSoC4/CapSense.c **** 	*  sensor:  Sensor index.
1973:.\Generated_Source\PSoC4/CapSense.c **** 	*  compIdacValue: represents the modulation IDAC data register value.
1974:.\Generated_Source\PSoC4/CapSense.c **** 	*
1975:.\Generated_Source\PSoC4/CapSense.c **** 	* Return:
1976:.\Generated_Source\PSoC4/CapSense.c **** 	*  None.
1977:.\Generated_Source\PSoC4/CapSense.c **** 	*
1978:.\Generated_Source\PSoC4/CapSense.c **** 	* Global Variables:
1979:.\Generated_Source\PSoC4/CapSense.c **** 	*  CapSense_modulationIDAC[] - array with modulation IDAC values
1980:.\Generated_Source\PSoC4/CapSense.c **** 	* 
1981:.\Generated_Source\PSoC4/CapSense.c **** 	* Side Effects:
1982:.\Generated_Source\PSoC4/CapSense.c **** 	*  None
ARM GAS  C:\Users\kbuchi\AppData\Local\Temp\ccOUPaAd.s 			page 69


1983:.\Generated_Source\PSoC4/CapSense.c **** 	*
1984:.\Generated_Source\PSoC4/CapSense.c **** 	*******************************************************************************/
1985:.\Generated_Source\PSoC4/CapSense.c **** 	void CapSense_SetModulationIDAC(uint32 sensor, uint32 modIdacValue)
1986:.\Generated_Source\PSoC4/CapSense.c **** 	{
 1764              		.loc 1 1986 0
 1765              		.cfi_startproc
 1766              	.LVL210:
1987:.\Generated_Source\PSoC4/CapSense.c **** 		CapSense_modulationIDAC[sensor] = (uint8)modIdacValue;
 1767              		.loc 1 1987 0
 1768 0000 014B     		ldr	r3, .L124
 1769 0002 1954     		strb	r1, [r3, r0]
1988:.\Generated_Source\PSoC4/CapSense.c **** 	}
 1770              		.loc 1 1988 0
 1771              		@ sp needed
 1772 0004 7047     		bx	lr
 1773              	.L125:
 1774 0006 C046     		.align	2
 1775              	.L124:
 1776 0008 00000000 		.word	CapSense_modulationIDAC
 1777              		.cfi_endproc
 1778              	.LFE65:
 1779              		.size	CapSense_SetModulationIDAC, .-CapSense_SetModulationIDAC
 1780              		.section	.text.CapSense_GetCompensationIDAC,"ax",%progbits
 1781              		.align	2
 1782              		.global	CapSense_GetCompensationIDAC
 1783              		.code	16
 1784              		.thumb_func
 1785              		.type	CapSense_GetCompensationIDAC, %function
 1786              	CapSense_GetCompensationIDAC:
 1787              	.LFB66:
1989:.\Generated_Source\PSoC4/CapSense.c **** #endif /* (CapSense_TUNING_METHOD != CapSense__TUNING_NONE) */
1990:.\Generated_Source\PSoC4/CapSense.c **** 
1991:.\Generated_Source\PSoC4/CapSense.c **** 
1992:.\Generated_Source\PSoC4/CapSense.c **** #if(CapSense_IDAC_CNT > 1u)
1993:.\Generated_Source\PSoC4/CapSense.c **** 	/*******************************************************************************
1994:.\Generated_Source\PSoC4/CapSense.c **** 	* Function Name: CapSense_GetCompensationIDAC
1995:.\Generated_Source\PSoC4/CapSense.c **** 	********************************************************************************
1996:.\Generated_Source\PSoC4/CapSense.c **** 	*
1997:.\Generated_Source\PSoC4/CapSense.c **** 	* Summary:
1998:.\Generated_Source\PSoC4/CapSense.c **** 	*  This API returns a value of the compensation IDAC for the  sensor.
1999:.\Generated_Source\PSoC4/CapSense.c **** 	*
2000:.\Generated_Source\PSoC4/CapSense.c **** 	* Parameters:
2001:.\Generated_Source\PSoC4/CapSense.c **** 	*  sensor: sensor index. The index value can be 
2002:.\Generated_Source\PSoC4/CapSense.c **** 	*  from 0 to (CapSense_TOTAL_SENSOR_COUNT-1).
2003:.\Generated_Source\PSoC4/CapSense.c **** 	*
2004:.\Generated_Source\PSoC4/CapSense.c **** 	* Return:
2005:.\Generated_Source\PSoC4/CapSense.c **** 	*  This API returns the compensation IDAC of the sensor. 
2006:.\Generated_Source\PSoC4/CapSense.c **** 	*
2007:.\Generated_Source\PSoC4/CapSense.c **** 	* Global Variables:
2008:.\Generated_Source\PSoC4/CapSense.c **** 	*  CapSense_compensationIDAC[] - stores the compensation IDAC values.
2009:.\Generated_Source\PSoC4/CapSense.c **** 	* 
2010:.\Generated_Source\PSoC4/CapSense.c **** 	* Side Effects:
2011:.\Generated_Source\PSoC4/CapSense.c **** 	*  None
2012:.\Generated_Source\PSoC4/CapSense.c **** 	*
2013:.\Generated_Source\PSoC4/CapSense.c **** 	*******************************************************************************/
2014:.\Generated_Source\PSoC4/CapSense.c **** 	uint32 CapSense_GetCompensationIDAC(uint32 sensor)
2015:.\Generated_Source\PSoC4/CapSense.c **** 	{
ARM GAS  C:\Users\kbuchi\AppData\Local\Temp\ccOUPaAd.s 			page 70


 1788              		.loc 1 2015 0
 1789              		.cfi_startproc
 1790              	.LVL211:
2016:.\Generated_Source\PSoC4/CapSense.c **** 		return((uint32)CapSense_compensationIDAC[sensor]);
 1791              		.loc 1 2016 0
 1792 0000 014B     		ldr	r3, .L127
 1793 0002 185C     		ldrb	r0, [r3, r0]
 1794              	.LVL212:
2017:.\Generated_Source\PSoC4/CapSense.c **** 	}
 1795              		.loc 1 2017 0
 1796              		@ sp needed
 1797 0004 7047     		bx	lr
 1798              	.L128:
 1799 0006 C046     		.align	2
 1800              	.L127:
 1801 0008 00000000 		.word	CapSense_compensationIDAC
 1802              		.cfi_endproc
 1803              	.LFE66:
 1804              		.size	CapSense_GetCompensationIDAC, .-CapSense_GetCompensationIDAC
 1805              		.section	.text.CapSense_SetCompensationIDAC,"ax",%progbits
 1806              		.align	2
 1807              		.global	CapSense_SetCompensationIDAC
 1808              		.code	16
 1809              		.thumb_func
 1810              		.type	CapSense_SetCompensationIDAC, %function
 1811              	CapSense_SetCompensationIDAC:
 1812              	.LFB67:
2018:.\Generated_Source\PSoC4/CapSense.c **** #endif /* (CapSense_IDAC_CNT > 1u) */
2019:.\Generated_Source\PSoC4/CapSense.c **** 
2020:.\Generated_Source\PSoC4/CapSense.c **** 
2021:.\Generated_Source\PSoC4/CapSense.c **** #if((CapSense_TUNING_METHOD != CapSense__TUNING_NONE) && (CapSense_IDAC_CNT > 1u))
2022:.\Generated_Source\PSoC4/CapSense.c **** 	/*******************************************************************************
2023:.\Generated_Source\PSoC4/CapSense.c **** 	* Function Name: CapSense_SetCompensationIDAC
2024:.\Generated_Source\PSoC4/CapSense.c **** 	********************************************************************************
2025:.\Generated_Source\PSoC4/CapSense.c **** 	*
2026:.\Generated_Source\PSoC4/CapSense.c **** 	* Summary:
2027:.\Generated_Source\PSoC4/CapSense.c **** 	*  This API sets a value of compensation IDAC for the  sensor.
2028:.\Generated_Source\PSoC4/CapSense.c **** 	*
2029:.\Generated_Source\PSoC4/CapSense.c **** 	* Parameters:
2030:.\Generated_Source\PSoC4/CapSense.c **** 	*  sensor:  Sensor index.
2031:.\Generated_Source\PSoC4/CapSense.c **** 	*  compIdacValue: represents the compensation IDAC data register value.
2032:.\Generated_Source\PSoC4/CapSense.c **** 	*
2033:.\Generated_Source\PSoC4/CapSense.c **** 	* Return:
2034:.\Generated_Source\PSoC4/CapSense.c **** 	*  None.
2035:.\Generated_Source\PSoC4/CapSense.c **** 	*
2036:.\Generated_Source\PSoC4/CapSense.c **** 	* Global Variables:
2037:.\Generated_Source\PSoC4/CapSense.c **** 	*  CapSense_compensationIDAC[] - an array with compensation IDAC values
2038:.\Generated_Source\PSoC4/CapSense.c **** 	* 
2039:.\Generated_Source\PSoC4/CapSense.c **** 	* Side Effects:
2040:.\Generated_Source\PSoC4/CapSense.c **** 	*  None
2041:.\Generated_Source\PSoC4/CapSense.c **** 	*
2042:.\Generated_Source\PSoC4/CapSense.c **** 	*******************************************************************************/
2043:.\Generated_Source\PSoC4/CapSense.c **** 	void CapSense_SetCompensationIDAC(uint32 sensor, uint32 compIdacValue)
2044:.\Generated_Source\PSoC4/CapSense.c **** 	{
 1813              		.loc 1 2044 0
 1814              		.cfi_startproc
 1815              	.LVL213:
ARM GAS  C:\Users\kbuchi\AppData\Local\Temp\ccOUPaAd.s 			page 71


2045:.\Generated_Source\PSoC4/CapSense.c **** 		CapSense_compensationIDAC[sensor] = (uint8)compIdacValue;
 1816              		.loc 1 2045 0
 1817 0000 014B     		ldr	r3, .L130
 1818 0002 1954     		strb	r1, [r3, r0]
2046:.\Generated_Source\PSoC4/CapSense.c **** 	}
 1819              		.loc 1 2046 0
 1820              		@ sp needed
 1821 0004 7047     		bx	lr
 1822              	.L131:
 1823 0006 C046     		.align	2
 1824              	.L130:
 1825 0008 00000000 		.word	CapSense_compensationIDAC
 1826              		.cfi_endproc
 1827              	.LFE67:
 1828              		.size	CapSense_SetCompensationIDAC, .-CapSense_SetCompensationIDAC
 1829              		.section	.text.CapSense_GetIDACRange,"ax",%progbits
 1830              		.align	2
 1831              		.global	CapSense_GetIDACRange
 1832              		.code	16
 1833              		.thumb_func
 1834              		.type	CapSense_GetIDACRange, %function
 1835              	CapSense_GetIDACRange:
 1836              	.LFB68:
2047:.\Generated_Source\PSoC4/CapSense.c **** #endif /* ((CapSense_TUNING_METHOD != CapSense__TUNING_NONE) && (CapSense_IDAC_CNT > 1u)) */
2048:.\Generated_Source\PSoC4/CapSense.c **** 
2049:.\Generated_Source\PSoC4/CapSense.c **** /*******************************************************************************
2050:.\Generated_Source\PSoC4/CapSense.c **** * Function Name: CapSense_GetIDACRange
2051:.\Generated_Source\PSoC4/CapSense.c **** ********************************************************************************
2052:.\Generated_Source\PSoC4/CapSense.c **** *
2053:.\Generated_Source\PSoC4/CapSense.c **** * Summary:
2054:.\Generated_Source\PSoC4/CapSense.c **** *  This API returns a value that indicates the IDAC range used by the 
2055:.\Generated_Source\PSoC4/CapSense.c **** *  component to scan sensors. The IDAC range is common for all the sensors.
2056:.\Generated_Source\PSoC4/CapSense.c **** *
2057:.\Generated_Source\PSoC4/CapSense.c **** * Parameters:
2058:.\Generated_Source\PSoC4/CapSense.c **** *  None
2059:.\Generated_Source\PSoC4/CapSense.c **** *
2060:.\Generated_Source\PSoC4/CapSense.c **** * Return:
2061:.\Generated_Source\PSoC4/CapSense.c **** *  This API Returns a value that indicates the IDAC range:
2062:.\Generated_Source\PSoC4/CapSense.c **** *      0 - IDAC range set to 4x
2063:.\Generated_Source\PSoC4/CapSense.c **** *      1 - IDAC range set to 8x
2064:.\Generated_Source\PSoC4/CapSense.c **** *
2065:.\Generated_Source\PSoC4/CapSense.c **** * Global Variables:
2066:.\Generated_Source\PSoC4/CapSense.c **** *  None
2067:.\Generated_Source\PSoC4/CapSense.c **** * 
2068:.\Generated_Source\PSoC4/CapSense.c **** * Side Effects:
2069:.\Generated_Source\PSoC4/CapSense.c **** *  None
2070:.\Generated_Source\PSoC4/CapSense.c **** *
2071:.\Generated_Source\PSoC4/CapSense.c **** *******************************************************************************/
2072:.\Generated_Source\PSoC4/CapSense.c **** uint32 CapSense_GetIDACRange(void)
2073:.\Generated_Source\PSoC4/CapSense.c **** {
 1837              		.loc 1 2073 0
 1838              		.cfi_startproc
2074:.\Generated_Source\PSoC4/CapSense.c **** 	return((0u != (CapSense_CSD_IDAC_REG & CapSense_CSD_IDAC1_RANGE_8X)) ? 1uL : 0uL);
 1839              		.loc 1 2074 0
 1840 0000 034B     		ldr	r3, .L135
 1841 0002 1B68     		ldr	r3, [r3]
 1842 0004 5A05     		lsl	r2, r3, #21
ARM GAS  C:\Users\kbuchi\AppData\Local\Temp\ccOUPaAd.s 			page 72


 1843 0006 01D5     		bpl	.L134
 1844 0008 0120     		mov	r0, #1
 1845 000a 00E0     		b	.L133
 1846              	.L134:
 1847 000c 0020     		mov	r0, #0
 1848              	.L133:
2075:.\Generated_Source\PSoC4/CapSense.c **** }
 1849              		.loc 1 2075 0 discriminator 3
 1850              		@ sp needed
 1851 000e 7047     		bx	lr
 1852              	.L136:
 1853              		.align	2
 1854              	.L135:
 1855 0010 08000840 		.word	1074266120
 1856              		.cfi_endproc
 1857              	.LFE68:
 1858              		.size	CapSense_GetIDACRange, .-CapSense_GetIDACRange
 1859              		.section	.text.CapSense_SetIDACRange,"ax",%progbits
 1860              		.align	2
 1861              		.global	CapSense_SetIDACRange
 1862              		.code	16
 1863              		.thumb_func
 1864              		.type	CapSense_SetIDACRange, %function
 1865              	CapSense_SetIDACRange:
 1866              	.LFB69:
2076:.\Generated_Source\PSoC4/CapSense.c **** 
2077:.\Generated_Source\PSoC4/CapSense.c **** #if (CapSense_TUNING_METHOD != CapSense__TUNING_NONE)
2078:.\Generated_Source\PSoC4/CapSense.c **** 	/*******************************************************************************
2079:.\Generated_Source\PSoC4/CapSense.c **** 	* Function Name: CapSense_SetIDACRange
2080:.\Generated_Source\PSoC4/CapSense.c **** 	********************************************************************************
2081:.\Generated_Source\PSoC4/CapSense.c **** 	*
2082:.\Generated_Source\PSoC4/CapSense.c **** 	* Summary:
2083:.\Generated_Source\PSoC4/CapSense.c **** 	*  This API sets the IDAC range to the 4x (1.2uA/bit) or 8x (2.4uA/bit) mode.
2084:.\Generated_Source\PSoC4/CapSense.c ****     *  The IDAC range is common for all the sensors and common for the modulation and 
2085:.\Generated_Source\PSoC4/CapSense.c **** 	*  compensation IDACs.
2086:.\Generated_Source\PSoC4/CapSense.c **** 	*
2087:.\Generated_Source\PSoC4/CapSense.c **** 	* Parameters:
2088:.\Generated_Source\PSoC4/CapSense.c **** 	*  iDacRange:  represents value for IDAC range 
2089:.\Generated_Source\PSoC4/CapSense.c **** 	*  0 -  IDAC range set to 4x (1.2uA/bit)
2090:.\Generated_Source\PSoC4/CapSense.c **** 	*  1 or >1 - IDAC range set to 8x (2.4uA/bit)
2091:.\Generated_Source\PSoC4/CapSense.c **** 	*
2092:.\Generated_Source\PSoC4/CapSense.c **** 	* Return:
2093:.\Generated_Source\PSoC4/CapSense.c **** 	*  None.
2094:.\Generated_Source\PSoC4/CapSense.c **** 	*
2095:.\Generated_Source\PSoC4/CapSense.c **** 	* Global Variables:
2096:.\Generated_Source\PSoC4/CapSense.c **** 	*  None
2097:.\Generated_Source\PSoC4/CapSense.c **** 	* 
2098:.\Generated_Source\PSoC4/CapSense.c **** 	* Side Effects:
2099:.\Generated_Source\PSoC4/CapSense.c **** 	*  None
2100:.\Generated_Source\PSoC4/CapSense.c **** 	*
2101:.\Generated_Source\PSoC4/CapSense.c **** 	*******************************************************************************/
2102:.\Generated_Source\PSoC4/CapSense.c **** 	void CapSense_SetIDACRange(uint32 iDacRange)
2103:.\Generated_Source\PSoC4/CapSense.c **** 	{
 1867              		.loc 1 2103 0
 1868              		.cfi_startproc
 1869              	.LVL214:
2104:.\Generated_Source\PSoC4/CapSense.c **** 	    if(iDacRange != 0u)
ARM GAS  C:\Users\kbuchi\AppData\Local\Temp\ccOUPaAd.s 			page 73


 1870              		.loc 1 2104 0
 1871 0000 0028     		cmp	r0, #0
 1872 0002 05D0     		beq	.L138
2105:.\Generated_Source\PSoC4/CapSense.c **** 		{
2106:.\Generated_Source\PSoC4/CapSense.c **** 		    /*  IDAC range = 8x (2.4uA/bit) */ 
2107:.\Generated_Source\PSoC4/CapSense.c **** 		    CapSense_CSD_IDAC_REG |= (CapSense_CSD_IDAC1_RANGE_8X |\
 1873              		.loc 1 2107 0
 1874 0004 054B     		ldr	r3, .L140
 1875 0006 1A68     		ldr	r2, [r3]
 1876 0008 0549     		ldr	r1, .L140+4
 1877 000a 0A43     		orr	r2, r1
 1878 000c 1A60     		str	r2, [r3]
 1879 000e 04E0     		b	.L137
 1880              	.L138:
2108:.\Generated_Source\PSoC4/CapSense.c **** 											  CapSense_CSD_IDAC2_RANGE_8X);
2109:.\Generated_Source\PSoC4/CapSense.c **** 		}
2110:.\Generated_Source\PSoC4/CapSense.c **** 		else
2111:.\Generated_Source\PSoC4/CapSense.c **** 		{
2112:.\Generated_Source\PSoC4/CapSense.c **** 		    /*  IDAC range = 4x (1.2uA/bit) */ 
2113:.\Generated_Source\PSoC4/CapSense.c **** 		    /*  IDAC range = 8x (2.4uA/bit) */ 
2114:.\Generated_Source\PSoC4/CapSense.c **** 		    CapSense_CSD_IDAC_REG &= ~(CapSense_CSD_IDAC1_RANGE_8X |\
 1881              		.loc 1 2114 0
 1882 0010 024B     		ldr	r3, .L140
 1883 0012 1968     		ldr	r1, [r3]
 1884 0014 034A     		ldr	r2, .L140+8
 1885 0016 0A40     		and	r2, r1
 1886 0018 1A60     		str	r2, [r3]
 1887              	.L137:
2115:.\Generated_Source\PSoC4/CapSense.c **** 											   CapSense_CSD_IDAC2_RANGE_8X);
2116:.\Generated_Source\PSoC4/CapSense.c **** 		}
2117:.\Generated_Source\PSoC4/CapSense.c **** 	}
 1888              		.loc 1 2117 0
 1889              		@ sp needed
 1890 001a 7047     		bx	lr
 1891              	.L141:
 1892              		.align	2
 1893              	.L140:
 1894 001c 08000840 		.word	1074266120
 1895 0020 00040004 		.word	67109888
 1896 0024 FFFBFFFB 		.word	-67109889
 1897              		.cfi_endproc
 1898              	.LFE69:
 1899              		.size	CapSense_SetIDACRange, .-CapSense_SetIDACRange
 1900              		.section	.text.CapSense_GetSensorRaw,"ax",%progbits
 1901              		.align	2
 1902              		.global	CapSense_GetSensorRaw
 1903              		.code	16
 1904              		.thumb_func
 1905              		.type	CapSense_GetSensorRaw, %function
 1906              	CapSense_GetSensorRaw:
 1907              	.LFB70:
2118:.\Generated_Source\PSoC4/CapSense.c **** #endif /* (CapSense_TUNING_METHOD != CapSense__TUNING_NONE) */
2119:.\Generated_Source\PSoC4/CapSense.c **** 
2120:.\Generated_Source\PSoC4/CapSense.c **** 
2121:.\Generated_Source\PSoC4/CapSense.c **** #if((0u != CapSense_AUTOCALIBRATION_ENABLE) || (CapSense_TUNING_METHOD == CapSense__TUNING_AUTO))
2122:.\Generated_Source\PSoC4/CapSense.c **** 	/*******************************************************************************
2123:.\Generated_Source\PSoC4/CapSense.c **** 	* Function Name: CapSense_GetSensorRaw
ARM GAS  C:\Users\kbuchi\AppData\Local\Temp\ccOUPaAd.s 			page 74


2124:.\Generated_Source\PSoC4/CapSense.c **** 	********************************************************************************
2125:.\Generated_Source\PSoC4/CapSense.c **** 	*
2126:.\Generated_Source\PSoC4/CapSense.c **** 	* Summary:
2127:.\Generated_Source\PSoC4/CapSense.c **** 	*  The API updates and gets uprated raw data from the sensor.
2128:.\Generated_Source\PSoC4/CapSense.c **** 	*
2129:.\Generated_Source\PSoC4/CapSense.c **** 	* Parameters:
2130:.\Generated_Source\PSoC4/CapSense.c **** 	*  sensor - Sensor number.
2131:.\Generated_Source\PSoC4/CapSense.c **** 	*
2132:.\Generated_Source\PSoC4/CapSense.c **** 	* Return:
2133:.\Generated_Source\PSoC4/CapSense.c **** 	*  Returns the current raw data value for a defined sensor number.
2134:.\Generated_Source\PSoC4/CapSense.c **** 	*
2135:.\Generated_Source\PSoC4/CapSense.c **** 	* Global Variables:
2136:.\Generated_Source\PSoC4/CapSense.c **** 	*  None
2137:.\Generated_Source\PSoC4/CapSense.c **** 	*
2138:.\Generated_Source\PSoC4/CapSense.c **** 	* Side Effects:
2139:.\Generated_Source\PSoC4/CapSense.c **** 	*  None
2140:.\Generated_Source\PSoC4/CapSense.c **** 	*
2141:.\Generated_Source\PSoC4/CapSense.c **** 	*******************************************************************************/
2142:.\Generated_Source\PSoC4/CapSense.c **** 	uint16  CapSense_GetSensorRaw(uint32 sensor)
2143:.\Generated_Source\PSoC4/CapSense.c **** 	{
 1908              		.loc 1 2143 0
 1909              		.cfi_startproc
 1910              	.LVL215:
 1911 0000 70B5     		push	{r4, r5, r6, lr}
 1912              		.cfi_def_cfa_offset 16
 1913              		.cfi_offset 4, -16
 1914              		.cfi_offset 5, -12
 1915              		.cfi_offset 6, -8
 1916              		.cfi_offset 14, -4
 1917 0002 061C     		mov	r6, r0
 1918              	.LVL216:
2144:.\Generated_Source\PSoC4/CapSense.c **** 		uint32 curSample;
2145:.\Generated_Source\PSoC4/CapSense.c **** 		uint32 avgVal = 0u;
 1919              		.loc 1 2145 0
 1920 0004 0025     		mov	r5, #0
2146:.\Generated_Source\PSoC4/CapSense.c **** 		
2147:.\Generated_Source\PSoC4/CapSense.c **** 		for(curSample = 0u; curSample < CapSense_AVG_SAMPLES_NUM; curSample++)
 1921              		.loc 1 2147 0
 1922 0006 0024     		mov	r4, #0
 1923 0008 0BE0     		b	.L143
 1924              	.LVL217:
 1925              	.L145:
2148:.\Generated_Source\PSoC4/CapSense.c **** 		{
2149:.\Generated_Source\PSoC4/CapSense.c **** 	    
2150:.\Generated_Source\PSoC4/CapSense.c **** 			CapSense_ScanSensor((uint32)sensor);
 1926              		.loc 1 2150 0
 1927 000a 301C     		mov	r0, r6
 1928 000c FFF7FEFF 		bl	CapSense_ScanSensor
 1929              	.LVL218:
 1930              	.L144:
2151:.\Generated_Source\PSoC4/CapSense.c **** 		    while(CapSense_IsBusy() == 1u)
 1931              		.loc 1 2151 0 discriminator 1
 1932 0010 FFF7FEFF 		bl	CapSense_IsBusy
 1933              	.LVL219:
 1934 0014 0128     		cmp	r0, #1
 1935 0016 FBD0     		beq	.L144
2152:.\Generated_Source\PSoC4/CapSense.c **** 			{
ARM GAS  C:\Users\kbuchi\AppData\Local\Temp\ccOUPaAd.s 			page 75


2153:.\Generated_Source\PSoC4/CapSense.c **** 				/* Wait while sensor is busy */
2154:.\Generated_Source\PSoC4/CapSense.c **** 			}
2155:.\Generated_Source\PSoC4/CapSense.c **** 			avgVal += CapSense_ReadSensorRaw((uint32)sensor);
 1936              		.loc 1 2155 0
 1937 0018 301C     		mov	r0, r6
 1938 001a FFF7FEFF 		bl	CapSense_ReadSensorRaw
 1939              	.LVL220:
 1940 001e 2D18     		add	r5, r5, r0
 1941              	.LVL221:
2147:.\Generated_Source\PSoC4/CapSense.c **** 		for(curSample = 0u; curSample < CapSense_AVG_SAMPLES_NUM; curSample++)
 1942              		.loc 1 2147 0
 1943 0020 0134     		add	r4, r4, #1
 1944              	.LVL222:
 1945              	.L143:
2147:.\Generated_Source\PSoC4/CapSense.c **** 		for(curSample = 0u; curSample < CapSense_AVG_SAMPLES_NUM; curSample++)
 1946              		.loc 1 2147 0 is_stmt 0 discriminator 1
 1947 0022 002C     		cmp	r4, #0
 1948 0024 F1D0     		beq	.L145
2156:.\Generated_Source\PSoC4/CapSense.c **** 		}
2157:.\Generated_Source\PSoC4/CapSense.c **** 	    
2158:.\Generated_Source\PSoC4/CapSense.c **** 	    return((uint16)(avgVal / CapSense_AVG_SAMPLES_NUM));
 1949              		.loc 1 2158 0 is_stmt 1
 1950 0026 A8B2     		uxth	r0, r5
2159:.\Generated_Source\PSoC4/CapSense.c **** 	}
 1951              		.loc 1 2159 0
 1952              		@ sp needed
 1953              	.LVL223:
 1954              	.LVL224:
 1955              	.LVL225:
 1956 0028 70BD     		pop	{r4, r5, r6, pc}
 1957              		.cfi_endproc
 1958              	.LFE70:
 1959              		.size	CapSense_GetSensorRaw, .-CapSense_GetSensorRaw
 1960 002a C046     		.section	.text.CapSense_SetUnscannedSensorState,"ax",%progbits
 1961              		.align	2
 1962              		.global	CapSense_SetUnscannedSensorState
 1963              		.code	16
 1964              		.thumb_func
 1965              		.type	CapSense_SetUnscannedSensorState, %function
 1966              	CapSense_SetUnscannedSensorState:
 1967              	.LFB71:
2160:.\Generated_Source\PSoC4/CapSense.c **** #endif /* ((0u != CapSense_AUTOCALIBRATION_ENABLE) && (CapSense_TUNING_METHOD == CapSense__TUNING_A
2161:.\Generated_Source\PSoC4/CapSense.c **** 
2162:.\Generated_Source\PSoC4/CapSense.c **** 
2163:.\Generated_Source\PSoC4/CapSense.c **** #if((0u != CapSense_AUTOCALIBRATION_ENABLE) && (CapSense_TUNING_METHOD != CapSense__TUNING_AUTO))
2164:.\Generated_Source\PSoC4/CapSense.c **** 	/*******************************************************************************
2165:.\Generated_Source\PSoC4/CapSense.c **** 	* Function Name: CapSense_CalibrateSensor
2166:.\Generated_Source\PSoC4/CapSense.c **** 	********************************************************************************
2167:.\Generated_Source\PSoC4/CapSense.c **** 	*
2168:.\Generated_Source\PSoC4/CapSense.c **** 	* Summary:
2169:.\Generated_Source\PSoC4/CapSense.c **** 	*  Computes the one sensor IDAC value, which provides the raw signal on
2170:.\Generated_Source\PSoC4/CapSense.c **** 	*  a specified level, with a specified prescaler, speed, and resolution.
2171:.\Generated_Source\PSoC4/CapSense.c **** 	*
2172:.\Generated_Source\PSoC4/CapSense.c **** 	* Parameters:
2173:.\Generated_Source\PSoC4/CapSense.c **** 	*  sensor - Sensor Number.
2174:.\Generated_Source\PSoC4/CapSense.c **** 	*
2175:.\Generated_Source\PSoC4/CapSense.c **** 	*  rawLevel -  Raw data level which should be reached during the calibration
ARM GAS  C:\Users\kbuchi\AppData\Local\Temp\ccOUPaAd.s 			page 76


2176:.\Generated_Source\PSoC4/CapSense.c **** 	*              procedure.
2177:.\Generated_Source\PSoC4/CapSense.c **** 	*
2178:.\Generated_Source\PSoC4/CapSense.c **** 	*  idacLevelsTbl - Pointer to the modulatorIdac data register configuration table.            
2179:.\Generated_Source\PSoC4/CapSense.c **** 	*
2180:.\Generated_Source\PSoC4/CapSense.c **** 	* Return:       
2181:.\Generated_Source\PSoC4/CapSense.c **** 	*  None
2182:.\Generated_Source\PSoC4/CapSense.c **** 	*
2183:.\Generated_Source\PSoC4/CapSense.c **** 	*******************************************************************************/
2184:.\Generated_Source\PSoC4/CapSense.c **** 	void CapSense_CalibrateSensor(uint32 sensor, uint32 rawLevel, uint8 idacLevelsTbl[])
2185:.\Generated_Source\PSoC4/CapSense.c **** 	{
2186:.\Generated_Source\PSoC4/CapSense.c **** 		uint8 mask;
2187:.\Generated_Source\PSoC4/CapSense.c **** 		uint16 rawData;
2188:.\Generated_Source\PSoC4/CapSense.c **** 		
2189:.\Generated_Source\PSoC4/CapSense.c **** 		rawData = 0u;
2190:.\Generated_Source\PSoC4/CapSense.c **** 		
2191:.\Generated_Source\PSoC4/CapSense.c **** 		mask = 0x80u;
2192:.\Generated_Source\PSoC4/CapSense.c **** 		/* Init IDAC for null Channel */
2193:.\Generated_Source\PSoC4/CapSense.c **** 		idacLevelsTbl[sensor] = 0x00u;
2194:.\Generated_Source\PSoC4/CapSense.c **** 		
2195:.\Generated_Source\PSoC4/CapSense.c **** 		do
2196:.\Generated_Source\PSoC4/CapSense.c **** 		{
2197:.\Generated_Source\PSoC4/CapSense.c **** 		    /* Set bit for null Channel */
2198:.\Generated_Source\PSoC4/CapSense.c **** 			idacLevelsTbl[sensor] |= mask;
2199:.\Generated_Source\PSoC4/CapSense.c **** 
2200:.\Generated_Source\PSoC4/CapSense.c **** 	        /* Scan null Channel and get Rawdata */
2201:.\Generated_Source\PSoC4/CapSense.c **** 			rawData = CapSense_GetSensorRaw(sensor);
2202:.\Generated_Source\PSoC4/CapSense.c **** 			
2203:.\Generated_Source\PSoC4/CapSense.c **** 			/* Decrease IDAC until Rawdata reaches rawLevel */ 
2204:.\Generated_Source\PSoC4/CapSense.c **** 			if(rawData < rawLevel)
2205:.\Generated_Source\PSoC4/CapSense.c **** 			{
2206:.\Generated_Source\PSoC4/CapSense.c **** 			    /* Reset bit for null Channel  */ 
2207:.\Generated_Source\PSoC4/CapSense.c **** 				idacLevelsTbl[sensor] &= (uint8)~mask;
2208:.\Generated_Source\PSoC4/CapSense.c **** 			}
2209:.\Generated_Source\PSoC4/CapSense.c **** 			
2210:.\Generated_Source\PSoC4/CapSense.c **** 			mask >>= 1u;
2211:.\Generated_Source\PSoC4/CapSense.c **** 		}
2212:.\Generated_Source\PSoC4/CapSense.c **** 		while(mask > 0u);
2213:.\Generated_Source\PSoC4/CapSense.c **** 		
2214:.\Generated_Source\PSoC4/CapSense.c **** 	}
2215:.\Generated_Source\PSoC4/CapSense.c **** #endif /* ((0u != CapSense_AUTOCALIBRATION_ENABLE) && (CapSense_TUNING_METHOD != CapSense__TUNING_A
2216:.\Generated_Source\PSoC4/CapSense.c **** 
2217:.\Generated_Source\PSoC4/CapSense.c **** 
2218:.\Generated_Source\PSoC4/CapSense.c **** /*******************************************************************************
2219:.\Generated_Source\PSoC4/CapSense.c **** * Function Name: CapSense_SetUnscannedSensorState
2220:.\Generated_Source\PSoC4/CapSense.c **** ********************************************************************************
2221:.\Generated_Source\PSoC4/CapSense.c **** *
2222:.\Generated_Source\PSoC4/CapSense.c **** * Summary:
2223:.\Generated_Source\PSoC4/CapSense.c **** *  This API sets a state for un-scanned sensors. 
2224:.\Generated_Source\PSoC4/CapSense.c **** *  It is possible to set the state to Ground, High-Z, or the shield electrode. 
2225:.\Generated_Source\PSoC4/CapSense.c **** *  The un-scanned sensor can be connected to a shield electrode only if the shield is 
2226:.\Generated_Source\PSoC4/CapSense.c **** *  enabled. If the shield is disabled and this API is called with the parameter which
2227:.\Generated_Source\PSoC4/CapSense.c **** *  indicates the shield state, the un-scanned sensor will be connected to Ground.
2228:.\Generated_Source\PSoC4/CapSense.c **** *
2229:.\Generated_Source\PSoC4/CapSense.c **** * Parameters:
2230:.\Generated_Source\PSoC4/CapSense.c **** *  sensor - Sensor Number.
2231:.\Generated_Source\PSoC4/CapSense.c **** *  sensorState: This parameter indicates un-scanned sensor state:
2232:.\Generated_Source\PSoC4/CapSense.c **** *
ARM GAS  C:\Users\kbuchi\AppData\Local\Temp\ccOUPaAd.s 			page 77


2233:.\Generated_Source\PSoC4/CapSense.c **** *     CapSense__GROUND 0
2234:.\Generated_Source\PSoC4/CapSense.c **** *     CapSense__HIZ_ANALOG 1
2235:.\Generated_Source\PSoC4/CapSense.c **** *     CapSense__SHIELD 2
2236:.\Generated_Source\PSoC4/CapSense.c **** *
2237:.\Generated_Source\PSoC4/CapSense.c **** * Return:
2238:.\Generated_Source\PSoC4/CapSense.c **** *  None.
2239:.\Generated_Source\PSoC4/CapSense.c **** *
2240:.\Generated_Source\PSoC4/CapSense.c **** * Global Variables:
2241:.\Generated_Source\PSoC4/CapSense.c **** *  CapSense_unscannedSnsDriveMode[] - used to store the state for
2242:.\Generated_Source\PSoC4/CapSense.c **** *  un-scanned sensors.
2243:.\Generated_Source\PSoC4/CapSense.c **** * 
2244:.\Generated_Source\PSoC4/CapSense.c **** * Side Effects:
2245:.\Generated_Source\PSoC4/CapSense.c **** *  None
2246:.\Generated_Source\PSoC4/CapSense.c **** *
2247:.\Generated_Source\PSoC4/CapSense.c **** *******************************************************************************/
2248:.\Generated_Source\PSoC4/CapSense.c **** void CapSense_SetUnscannedSensorState(uint32 sensor, uint32 sensorState)
2249:.\Generated_Source\PSoC4/CapSense.c **** {
 1968              		.loc 1 2249 0
 1969              		.cfi_startproc
 1970              	.LVL226:
2250:.\Generated_Source\PSoC4/CapSense.c ****     CapSense_unscannedSnsDriveMode[sensor] = (uint8)sensorState;	
 1971              		.loc 1 2250 0
 1972 0000 014B     		ldr	r3, .L148
 1973 0002 1954     		strb	r1, [r3, r0]
2251:.\Generated_Source\PSoC4/CapSense.c **** }
 1974              		.loc 1 2251 0
 1975              		@ sp needed
 1976 0004 7047     		bx	lr
 1977              	.L149:
 1978 0006 C046     		.align	2
 1979              	.L148:
 1980 0008 00000000 		.word	CapSense_unscannedSnsDriveMode
 1981              		.cfi_endproc
 1982              	.LFE71:
 1983              		.size	CapSense_SetUnscannedSensorState, .-CapSense_SetUnscannedSensorState
 1984              		.section	.text.CapSense_NormalizeWidgets,"ax",%progbits
 1985              		.align	2
 1986              		.global	CapSense_NormalizeWidgets
 1987              		.code	16
 1988              		.thumb_func
 1989              		.type	CapSense_NormalizeWidgets, %function
 1990              	CapSense_NormalizeWidgets:
 1991              	.LFB72:
2252:.\Generated_Source\PSoC4/CapSense.c **** 
2253:.\Generated_Source\PSoC4/CapSense.c **** #if(0u != CapSense_TOTAL_CENTROIDS_COUNT) 
2254:.\Generated_Source\PSoC4/CapSense.c **** /*******************************************************************************
2255:.\Generated_Source\PSoC4/CapSense.c **** * Function Name: CapSense_NormalizeWidgets
2256:.\Generated_Source\PSoC4/CapSense.c **** ********************************************************************************
2257:.\Generated_Source\PSoC4/CapSense.c **** *
2258:.\Generated_Source\PSoC4/CapSense.c **** * Summary:
2259:.\Generated_Source\PSoC4/CapSense.c **** *  This API aligns all the parameters of the widget to the maximum parameter.
2260:.\Generated_Source\PSoC4/CapSense.c **** *
2261:.\Generated_Source\PSoC4/CapSense.c **** * Parameters:
2262:.\Generated_Source\PSoC4/CapSense.c **** *  uint32 widgetsNum: Number of widgets.
2263:.\Generated_Source\PSoC4/CapSense.c **** *  uint8 *dataPrt: pointer to array with widget parameters.	
2264:.\Generated_Source\PSoC4/CapSense.c **** *
2265:.\Generated_Source\PSoC4/CapSense.c **** * Return:
ARM GAS  C:\Users\kbuchi\AppData\Local\Temp\ccOUPaAd.s 			page 78


2266:.\Generated_Source\PSoC4/CapSense.c **** *  None
2267:.\Generated_Source\PSoC4/CapSense.c **** *
2268:.\Generated_Source\PSoC4/CapSense.c **** * Global Variables:
2269:.\Generated_Source\PSoC4/CapSense.c **** *  CapSense_numberOfSensors[] - Number of sensors in the widget.
2270:.\Generated_Source\PSoC4/CapSense.c **** *  CapSense_rawDataIndex[currentWidget] - Contains the  1st sensor
2271:.\Generated_Source\PSoC4/CapSense.c **** *  position in the widget.
2272:.\Generated_Source\PSoC4/CapSense.c **** *
2273:.\Generated_Source\PSoC4/CapSense.c **** * Side Effects:
2274:.\Generated_Source\PSoC4/CapSense.c **** *  None
2275:.\Generated_Source\PSoC4/CapSense.c **** *
2276:.\Generated_Source\PSoC4/CapSense.c **** *******************************************************************************/
2277:.\Generated_Source\PSoC4/CapSense.c **** void CapSense_NormalizeWidgets(uint32 widgetsNum, uint8 *dataPtr)
2278:.\Generated_Source\PSoC4/CapSense.c **** {
 1992              		.loc 1 2278 0
 1993              		.cfi_startproc
 1994              	.LVL227:
 1995 0000 F0B5     		push	{r4, r5, r6, r7, lr}
 1996              		.cfi_def_cfa_offset 20
 1997              		.cfi_offset 4, -20
 1998              		.cfi_offset 5, -16
 1999              		.cfi_offset 6, -12
 2000              		.cfi_offset 7, -8
 2001              		.cfi_offset 14, -4
 2002              	.LVL228:
2279:.\Generated_Source\PSoC4/CapSense.c **** 	uint32 currentWidget;
2280:.\Generated_Source\PSoC4/CapSense.c **** 	uint32 currentSensor;
2281:.\Generated_Source\PSoC4/CapSense.c **** 	uint32 lastSensor;
2282:.\Generated_Source\PSoC4/CapSense.c **** 	uint32 sensorsPerWidget;
2283:.\Generated_Source\PSoC4/CapSense.c **** 	uint32 maxPerWidget;
2284:.\Generated_Source\PSoC4/CapSense.c **** 
2285:.\Generated_Source\PSoC4/CapSense.c **** 	for(currentWidget = 0u; currentWidget < widgetsNum; currentWidget++)
 2003              		.loc 1 2285 0
 2004 0002 0027     		mov	r7, #0
2286:.\Generated_Source\PSoC4/CapSense.c **** 	{
2287:.\Generated_Source\PSoC4/CapSense.c **** 		maxPerWidget = 0u;
 2005              		.loc 1 2287 0
 2006 0004 BC46     		mov	ip, r7
2285:.\Generated_Source\PSoC4/CapSense.c **** 	for(currentWidget = 0u; currentWidget < widgetsNum; currentWidget++)
 2007              		.loc 1 2285 0
 2008 0006 16E0     		b	.L151
 2009              	.LVL229:
 2010              	.L157:
2288:.\Generated_Source\PSoC4/CapSense.c **** 		
2289:.\Generated_Source\PSoC4/CapSense.c **** 		sensorsPerWidget = CapSense_numberOfSensors[currentWidget];
 2011              		.loc 1 2289 0
 2012 0008 0C4B     		ldr	r3, .L161
 2013 000a DD5D     		ldrb	r5, [r3, r7]
 2014              	.LVL230:
2290:.\Generated_Source\PSoC4/CapSense.c **** 		currentSensor = CapSense_rawDataIndex[currentWidget];
 2015              		.loc 1 2290 0
 2016 000c 0C4A     		ldr	r2, .L161+4
 2017 000e D35D     		ldrb	r3, [r2, r7]
 2018              	.LVL231:
2291:.\Generated_Source\PSoC4/CapSense.c **** 		lastSensor = currentSensor + sensorsPerWidget;
 2019              		.loc 1 2291 0
 2020 0010 5D19     		add	r5, r3, r5
 2021              	.LVL232:
ARM GAS  C:\Users\kbuchi\AppData\Local\Temp\ccOUPaAd.s 			page 79


2290:.\Generated_Source\PSoC4/CapSense.c **** 		currentSensor = CapSense_rawDataIndex[currentWidget];
 2022              		.loc 1 2290 0
 2023 0012 1A1C     		mov	r2, r3
2287:.\Generated_Source\PSoC4/CapSense.c **** 		maxPerWidget = 0u;
 2024              		.loc 1 2287 0
 2025 0014 6646     		mov	r6, ip
2292:.\Generated_Source\PSoC4/CapSense.c **** 		
2293:.\Generated_Source\PSoC4/CapSense.c **** 		while(currentSensor < lastSensor)
 2026              		.loc 1 2293 0
 2027 0016 04E0     		b	.L152
 2028              	.LVL233:
 2029              	.L154:
2294:.\Generated_Source\PSoC4/CapSense.c **** 		{
2295:.\Generated_Source\PSoC4/CapSense.c **** 			if(maxPerWidget < dataPtr[currentSensor])
 2030              		.loc 1 2295 0
 2031 0018 8C5C     		ldrb	r4, [r1, r2]
 2032 001a B442     		cmp	r4, r6
 2033 001c 00D9     		bls	.L153
2296:.\Generated_Source\PSoC4/CapSense.c **** 			{
2297:.\Generated_Source\PSoC4/CapSense.c **** 				maxPerWidget = dataPtr[currentSensor];
 2034              		.loc 1 2297 0
 2035 001e 261C     		mov	r6, r4
 2036              	.LVL234:
 2037              	.L153:
2298:.\Generated_Source\PSoC4/CapSense.c **** 			}
2299:.\Generated_Source\PSoC4/CapSense.c **** 			currentSensor++;
 2038              		.loc 1 2299 0
 2039 0020 0132     		add	r2, r2, #1
 2040              	.LVL235:
 2041              	.L152:
2293:.\Generated_Source\PSoC4/CapSense.c **** 		while(currentSensor < lastSensor)
 2042              		.loc 1 2293 0 discriminator 1
 2043 0022 AA42     		cmp	r2, r5
 2044 0024 F8D3     		bcc	.L154
 2045 0026 02E0     		b	.L159
 2046              	.LVL236:
 2047              	.L156:
2300:.\Generated_Source\PSoC4/CapSense.c **** 		}
2301:.\Generated_Source\PSoC4/CapSense.c **** 		
2302:.\Generated_Source\PSoC4/CapSense.c **** 		currentSensor = CapSense_rawDataIndex[currentWidget];
2303:.\Generated_Source\PSoC4/CapSense.c **** 		
2304:.\Generated_Source\PSoC4/CapSense.c **** 		while(currentSensor < lastSensor)
2305:.\Generated_Source\PSoC4/CapSense.c **** 		{
2306:.\Generated_Source\PSoC4/CapSense.c **** 			dataPtr[currentSensor] = (uint8)maxPerWidget;
 2048              		.loc 1 2306 0
 2049 0028 CE54     		strb	r6, [r1, r3]
2307:.\Generated_Source\PSoC4/CapSense.c **** 			currentSensor++;
 2050              		.loc 1 2307 0
 2051 002a 0133     		add	r3, r3, #1
 2052              	.LVL237:
 2053 002c 00E0     		b	.L160
 2054              	.LVL238:
 2055              	.L159:
2306:.\Generated_Source\PSoC4/CapSense.c **** 			dataPtr[currentSensor] = (uint8)maxPerWidget;
 2056              		.loc 1 2306 0 discriminator 1
 2057 002e F6B2     		uxtb	r6, r6
 2058              	.LVL239:
ARM GAS  C:\Users\kbuchi\AppData\Local\Temp\ccOUPaAd.s 			page 80


 2059              	.L160:
2304:.\Generated_Source\PSoC4/CapSense.c **** 		while(currentSensor < lastSensor)
 2060              		.loc 1 2304 0 discriminator 1
 2061 0030 AB42     		cmp	r3, r5
 2062 0032 F9D3     		bcc	.L156
2285:.\Generated_Source\PSoC4/CapSense.c **** 	for(currentWidget = 0u; currentWidget < widgetsNum; currentWidget++)
 2063              		.loc 1 2285 0
 2064 0034 0137     		add	r7, r7, #1
 2065              	.LVL240:
 2066              	.L151:
2285:.\Generated_Source\PSoC4/CapSense.c **** 	for(currentWidget = 0u; currentWidget < widgetsNum; currentWidget++)
 2067              		.loc 1 2285 0 is_stmt 0 discriminator 1
 2068 0036 8742     		cmp	r7, r0
 2069 0038 E6D3     		bcc	.L157
2308:.\Generated_Source\PSoC4/CapSense.c **** 		}
2309:.\Generated_Source\PSoC4/CapSense.c **** 	}
2310:.\Generated_Source\PSoC4/CapSense.c **** }
 2070              		.loc 1 2310 0 is_stmt 1
 2071              		@ sp needed
 2072              	.LVL241:
 2073 003a F0BD     		pop	{r4, r5, r6, r7, pc}
 2074              	.L162:
 2075              		.align	2
 2076              	.L161:
 2077 003c 00000000 		.word	CapSense_numberOfSensors
 2078 0040 00000000 		.word	CapSense_rawDataIndex
 2079              		.cfi_endproc
 2080              	.LFE72:
 2081              		.size	CapSense_NormalizeWidgets, .-CapSense_NormalizeWidgets
 2082              		.global	CapSense_prtDRTbl
 2083              		.global	CapSense_prtCfgTbl
 2084              		.global	CapSense_prtSelTbl
 2085              		.global	CapSense_widgetNumber
 2086              		.comm	CapSense_sampleClkDividerVal,5,4
 2087              		.comm	CapSense_senseClkDividerVal,5,4
 2088              		.global	CapSense_widgetResolution
 2089              		.comm	CapSense_compensationIDAC,5,4
 2090              		.comm	CapSense_modulationIDAC,5,4
 2091              		.global	CapSense_pinShiftTbl
 2092              		.global	CapSense_maskTable
 2093              		.global	CapSense_portTable
 2094              		.global	CapSense_pcTable
 2095              		.global	CapSense_sensorEnableMask
 2096              		.comm	CapSense_sensorEnableMaskBackup,1,4
 2097              		.comm	CapSense_unscannedSnsDriveMode,5,4
 2098              		.comm	CapSense_csdTrim1,1,1
 2099              		.global	CapSense_sensorRaw
 2100              		.global	CapSense_sensorIndex
 2101              		.global	CapSense_csdStatusVar
 2102              		.comm	scanSpeedTbl,1,4
 2103              		.global	CapSense_lowLevelTuningDone
 2104              		.section	.rodata
 2105              		.align	2
 2106              		.set	.LANCHOR2,. + 0
 2107              		.type	CapSense_portTable, %object
 2108              		.size	CapSense_portTable, 5
 2109              	CapSense_portTable:
ARM GAS  C:\Users\kbuchi\AppData\Local\Temp\ccOUPaAd.s 			page 81


 2110 0000 01       		.byte	1
 2111 0001 01       		.byte	1
 2112 0002 01       		.byte	1
 2113 0003 01       		.byte	1
 2114 0004 01       		.byte	1
 2115 0005 000000   		.space	3
 2116              		.type	CapSense_pinShiftTbl, %object
 2117              		.size	CapSense_pinShiftTbl, 5
 2118              	CapSense_pinShiftTbl:
 2119 0008 01       		.byte	1
 2120 0009 02       		.byte	2
 2121 000a 03       		.byte	3
 2122 000b 04       		.byte	4
 2123 000c 05       		.byte	5
 2124 000d 000000   		.space	3
 2125              		.type	CapSense_prtSelTbl, %object
 2126              		.size	CapSense_prtSelTbl, 20
 2127              	CapSense_prtSelTbl:
 2128 0010 00000140 		.word	1073807360
 2129 0014 04000140 		.word	1073807364
 2130 0018 08000140 		.word	1073807368
 2131 001c 0C000140 		.word	1073807372
 2132 0020 10000140 		.word	1073807376
 2133              		.type	CapSense_prtCfgTbl, %object
 2134              		.size	CapSense_prtCfgTbl, 20
 2135              	CapSense_prtCfgTbl:
 2136 0024 08000440 		.word	1074003976
 2137 0028 08010440 		.word	1074004232
 2138 002c 08020440 		.word	1074004488
 2139 0030 08030440 		.word	1074004744
 2140 0034 08040440 		.word	1074005000
 2141              		.type	CapSense_prtDRTbl, %object
 2142              		.size	CapSense_prtDRTbl, 20
 2143              	CapSense_prtDRTbl:
 2144 0038 00000440 		.word	1074003968
 2145 003c 00010440 		.word	1074004224
 2146 0040 00020440 		.word	1074004480
 2147 0044 00030440 		.word	1074004736
 2148 0048 00040440 		.word	1074004992
 2149              		.type	CapSense_widgetNumber, %object
 2150              		.size	CapSense_widgetNumber, 5
 2151              	CapSense_widgetNumber:
 2152 004c 00000000 		.space	5
 2152      00
 2153 0051 000000   		.space	3
 2154              		.type	CapSense_maskTable, %object
 2155              		.size	CapSense_maskTable, 20
 2156              	CapSense_maskTable:
 2157 0054 02000000 		.word	2
 2158 0058 04000000 		.word	4
 2159 005c 08000000 		.word	8
 2160 0060 10000000 		.word	16
 2161 0064 20000000 		.word	32
 2162              		.data
 2163              		.align	2
 2164              		.set	.LANCHOR1,. + 0
 2165              		.type	CapSense_widgetResolution, %object
ARM GAS  C:\Users\kbuchi\AppData\Local\Temp\ccOUPaAd.s 			page 82


 2166              		.size	CapSense_widgetResolution, 4
 2167              	CapSense_widgetResolution:
 2168 0000 0000FF0F 		.word	268369920
 2169              		.type	CapSense_sensorEnableMask, %object
 2170              		.size	CapSense_sensorEnableMask, 1
 2171              	CapSense_sensorEnableMask:
 2172 0004 1F       		.byte	31
 2173 0005 000000   		.space	3
 2174              		.type	CapSense_pcTable, %object
 2175              		.size	CapSense_pcTable, 20
 2176              	CapSense_pcTable:
 2177 0008 08010440 		.word	1074004232
 2178 000c 08010440 		.word	1074004232
 2179 0010 08010440 		.word	1074004232
 2180 0014 08010440 		.word	1074004232
 2181 0018 08010440 		.word	1074004232
 2182              		.bss
 2183              		.align	2
 2184              		.set	.LANCHOR0,. + 0
 2185              		.type	CapSense_csdStatusVar, %object
 2186              		.size	CapSense_csdStatusVar, 1
 2187              	CapSense_csdStatusVar:
 2188 0000 00       		.space	1
 2189 0001 000000   		.space	3
 2190              		.type	CapSense_sensorRaw, %object
 2191              		.size	CapSense_sensorRaw, 10
 2192              	CapSense_sensorRaw:
 2193 0004 00000000 		.space	10
 2193      00000000 
 2193      0000
 2194              		.type	CapSense_initVar.5249, %object
 2195              		.size	CapSense_initVar.5249, 1
 2196              	CapSense_initVar.5249:
 2197 000e 00       		.space	1
 2198              		.type	CapSense_lowLevelTuningDone, %object
 2199              		.size	CapSense_lowLevelTuningDone, 1
 2200              	CapSense_lowLevelTuningDone:
 2201 000f 00       		.space	1
 2202              		.type	CapSense_sensorIndex, %object
 2203              		.size	CapSense_sensorIndex, 1
 2204              	CapSense_sensorIndex:
 2205 0010 00       		.space	1
 2206 0011 000000   		.text
 2207              	.Letext0:
 2208              		.file 2 ".\\Generated_Source\\PSoC4\\cytypes.h"
 2209              		.file 3 ".\\Generated_Source\\PSoC4\\CapSense_CSHL.h"
 2210              		.file 4 ".\\Generated_Source\\PSoC4\\CyLib.h"
 2211              		.file 5 ".\\Generated_Source\\PSoC4\\CapSense_SenseClk.h"
 2212              		.file 6 ".\\Generated_Source\\PSoC4\\CapSense_SampleClk.h"
 2213              		.file 7 ".\\Generated_Source\\PSoC4\\CapSense.h"
 2214              		.section	.debug_info,"",%progbits
 2215              	.Ldebug_info0:
 2216 0000 5D100000 		.4byte	0x105d
 2217 0004 0400     		.2byte	0x4
 2218 0006 00000000 		.4byte	.Ldebug_abbrev0
 2219 000a 04       		.byte	0x4
 2220 000b 01       		.uleb128 0x1
ARM GAS  C:\Users\kbuchi\AppData\Local\Temp\ccOUPaAd.s 			page 83


 2221 000c EA030000 		.4byte	.LASF136
 2222 0010 01       		.byte	0x1
 2223 0011 E4010000 		.4byte	.LASF137
 2224 0015 AC080000 		.4byte	.LASF138
 2225 0019 00000000 		.4byte	.Ldebug_ranges0+0
 2226 001d 00000000 		.4byte	0
 2227 0021 00000000 		.4byte	.Ldebug_line0
 2228 0025 02       		.uleb128 0x2
 2229 0026 01       		.byte	0x1
 2230 0027 06       		.byte	0x6
 2231 0028 380A0000 		.4byte	.LASF0
 2232 002c 02       		.uleb128 0x2
 2233 002d 01       		.byte	0x1
 2234 002e 08       		.byte	0x8
 2235 002f 16090000 		.4byte	.LASF1
 2236 0033 02       		.uleb128 0x2
 2237 0034 02       		.byte	0x2
 2238 0035 05       		.byte	0x5
 2239 0036 2F070000 		.4byte	.LASF2
 2240 003a 02       		.uleb128 0x2
 2241 003b 02       		.byte	0x2
 2242 003c 07       		.byte	0x7
 2243 003d 4C0A0000 		.4byte	.LASF3
 2244 0041 02       		.uleb128 0x2
 2245 0042 04       		.byte	0x4
 2246 0043 05       		.byte	0x5
 2247 0044 39070000 		.4byte	.LASF4
 2248 0048 02       		.uleb128 0x2
 2249 0049 04       		.byte	0x4
 2250 004a 07       		.byte	0x7
 2251 004b 9A080000 		.4byte	.LASF5
 2252 004f 02       		.uleb128 0x2
 2253 0050 08       		.byte	0x8
 2254 0051 05       		.byte	0x5
 2255 0052 9E050000 		.4byte	.LASF6
 2256 0056 02       		.uleb128 0x2
 2257 0057 08       		.byte	0x8
 2258 0058 07       		.byte	0x7
 2259 0059 68020000 		.4byte	.LASF7
 2260 005d 03       		.uleb128 0x3
 2261 005e 04       		.byte	0x4
 2262 005f 05       		.byte	0x5
 2263 0060 696E7400 		.ascii	"int\000"
 2264 0064 02       		.uleb128 0x2
 2265 0065 04       		.byte	0x4
 2266 0066 07       		.byte	0x7
 2267 0067 8B000000 		.4byte	.LASF8
 2268 006b 04       		.uleb128 0x4
 2269 006c 6B0A0000 		.4byte	.LASF9
 2270 0070 02       		.byte	0x2
 2271 0071 B3       		.byte	0xb3
 2272 0072 2C000000 		.4byte	0x2c
 2273 0076 04       		.uleb128 0x4
 2274 0077 0C050000 		.4byte	.LASF10
 2275 007b 02       		.byte	0x2
 2276 007c B4       		.byte	0xb4
 2277 007d 3A000000 		.4byte	0x3a
ARM GAS  C:\Users\kbuchi\AppData\Local\Temp\ccOUPaAd.s 			page 84


 2278 0081 04       		.uleb128 0x4
 2279 0082 58060000 		.4byte	.LASF11
 2280 0086 02       		.byte	0x2
 2281 0087 B5       		.byte	0xb5
 2282 0088 48000000 		.4byte	0x48
 2283 008c 02       		.uleb128 0x2
 2284 008d 04       		.byte	0x4
 2285 008e 04       		.byte	0x4
 2286 008f 62020000 		.4byte	.LASF12
 2287 0093 02       		.uleb128 0x2
 2288 0094 08       		.byte	0x8
 2289 0095 04       		.byte	0x4
 2290 0096 710A0000 		.4byte	.LASF13
 2291 009a 02       		.uleb128 0x2
 2292 009b 01       		.byte	0x1
 2293 009c 08       		.byte	0x8
 2294 009d B4040000 		.4byte	.LASF14
 2295 00a1 05       		.uleb128 0x5
 2296 00a2 C4000000 		.4byte	.LASF15
 2297 00a6 02       		.byte	0x2
 2298 00a7 5D01     		.2byte	0x15d
 2299 00a9 AD000000 		.4byte	0xad
 2300 00ad 06       		.uleb128 0x6
 2301 00ae 6B000000 		.4byte	0x6b
 2302 00b2 05       		.uleb128 0x5
 2303 00b3 7D060000 		.4byte	.LASF16
 2304 00b7 02       		.byte	0x2
 2305 00b8 5F01     		.2byte	0x15f
 2306 00ba BE000000 		.4byte	0xbe
 2307 00be 06       		.uleb128 0x6
 2308 00bf 81000000 		.4byte	0x81
 2309 00c3 05       		.uleb128 0x5
 2310 00c4 2F060000 		.4byte	.LASF17
 2311 00c8 02       		.byte	0x2
 2312 00c9 6F01     		.2byte	0x16f
 2313 00cb CF000000 		.4byte	0xcf
 2314 00cf 07       		.uleb128 0x7
 2315 00d0 04       		.byte	0x4
 2316 00d1 D5000000 		.4byte	0xd5
 2317 00d5 08       		.uleb128 0x8
 2318 00d6 02       		.uleb128 0x2
 2319 00d7 04       		.byte	0x4
 2320 00d8 07       		.byte	0x7
 2321 00d9 91080000 		.4byte	.LASF18
 2322 00dd 07       		.uleb128 0x7
 2323 00de 04       		.byte	0x4
 2324 00df 6B000000 		.4byte	0x6b
 2325 00e3 07       		.uleb128 0x7
 2326 00e4 04       		.byte	0x4
 2327 00e5 E9000000 		.4byte	0xe9
 2328 00e9 09       		.uleb128 0x9
 2329 00ea 6B000000 		.4byte	0x6b
 2330 00ee 0A       		.uleb128 0xa
 2331 00ef 9C010000 		.4byte	.LASF19
 2332 00f3 01       		.byte	0x1
 2333 00f4 0301     		.2byte	0x103
 2334 00f6 00000000 		.4byte	.LFB34
ARM GAS  C:\Users\kbuchi\AppData\Local\Temp\ccOUPaAd.s 			page 85


 2335 00fa 84000000 		.4byte	.LFE34-.LFB34
 2336 00fe 01       		.uleb128 0x1
 2337 00ff 9C       		.byte	0x9c
 2338 0100 4F010000 		.4byte	0x14f
 2339 0104 0B       		.uleb128 0xb
 2340 0105 5F0A0000 		.4byte	.LASF21
 2341 0109 01       		.byte	0x1
 2342 010a 0501     		.2byte	0x105
 2343 010c 81000000 		.4byte	0x81
 2344 0110 00000000 		.4byte	.LLST0
 2345 0114 0C       		.uleb128 0xc
 2346 0115 4A000000 		.4byte	.LVL8
 2347 0119 950F0000 		.4byte	0xf95
 2348 011d 27010000 		.4byte	0x127
 2349 0121 0D       		.uleb128 0xd
 2350 0122 01       		.uleb128 0x1
 2351 0123 50       		.byte	0x50
 2352 0124 01       		.uleb128 0x1
 2353 0125 3F       		.byte	0x3f
 2354 0126 00       		.byte	0
 2355 0127 0C       		.uleb128 0xc
 2356 0128 52000000 		.4byte	.LVL9
 2357 012c A60F0000 		.4byte	0xfa6
 2358 0130 3A010000 		.4byte	0x13a
 2359 0134 0D       		.uleb128 0xd
 2360 0135 01       		.uleb128 0x1
 2361 0136 50       		.byte	0x50
 2362 0137 01       		.uleb128 0x1
 2363 0138 3F       		.byte	0x3f
 2364 0139 00       		.byte	0
 2365 013a 0E       		.uleb128 0xe
 2366 013b 5A000000 		.4byte	.LVL10
 2367 013f C00F0000 		.4byte	0xfc0
 2368 0143 0D       		.uleb128 0xd
 2369 0144 01       		.uleb128 0x1
 2370 0145 51       		.byte	0x51
 2371 0146 01       		.uleb128 0x1
 2372 0147 33       		.byte	0x33
 2373 0148 0D       		.uleb128 0xd
 2374 0149 01       		.uleb128 0x1
 2375 014a 50       		.byte	0x50
 2376 014b 01       		.uleb128 0x1
 2377 014c 3F       		.byte	0x3f
 2378 014d 00       		.byte	0
 2379 014e 00       		.byte	0
 2380 014f 0A       		.uleb128 0xa
 2381 0150 69030000 		.4byte	.LASF20
 2382 0154 01       		.byte	0x1
 2383 0155 5801     		.2byte	0x158
 2384 0157 00000000 		.4byte	.LFB35
 2385 015b 3C000000 		.4byte	.LFE35-.LFB35
 2386 015f 01       		.uleb128 0x1
 2387 0160 9C       		.byte	0x9c
 2388 0161 D9010000 		.4byte	0x1d9
 2389 0165 0B       		.uleb128 0xb
 2390 0166 5F0A0000 		.4byte	.LASF21
 2391 016a 01       		.byte	0x1
ARM GAS  C:\Users\kbuchi\AppData\Local\Temp\ccOUPaAd.s 			page 86


 2392 016b 5A01     		.2byte	0x15a
 2393 016d 81000000 		.4byte	0x81
 2394 0171 3F000000 		.4byte	.LLST1
 2395 0175 0F       		.uleb128 0xf
 2396 0176 06000000 		.4byte	.LVL11
 2397 017a D60F0000 		.4byte	0xfd6
 2398 017e 0F       		.uleb128 0xf
 2399 017f 0A000000 		.4byte	.LVL12
 2400 0183 DD0F0000 		.4byte	0xfdd
 2401 0187 0C       		.uleb128 0xc
 2402 0188 12000000 		.4byte	.LVL13
 2403 018c E40F0000 		.4byte	0xfe4
 2404 0190 9F010000 		.4byte	0x19f
 2405 0194 0D       		.uleb128 0xd
 2406 0195 01       		.uleb128 0x1
 2407 0196 51       		.byte	0x51
 2408 0197 01       		.uleb128 0x1
 2409 0198 30       		.byte	0x30
 2410 0199 0D       		.uleb128 0xd
 2411 019a 01       		.uleb128 0x1
 2412 019b 50       		.byte	0x50
 2413 019c 01       		.uleb128 0x1
 2414 019d 30       		.byte	0x30
 2415 019e 00       		.byte	0
 2416 019f 0C       		.uleb128 0xc
 2417 01a0 1A000000 		.4byte	.LVL14
 2418 01a4 FA0F0000 		.4byte	0xffa
 2419 01a8 B7010000 		.4byte	0x1b7
 2420 01ac 0D       		.uleb128 0xd
 2421 01ad 01       		.uleb128 0x1
 2422 01ae 51       		.byte	0x51
 2423 01af 01       		.uleb128 0x1
 2424 01b0 30       		.byte	0x30
 2425 01b1 0D       		.uleb128 0xd
 2426 01b2 01       		.uleb128 0x1
 2427 01b3 50       		.byte	0x50
 2428 01b4 01       		.uleb128 0x1
 2429 01b5 30       		.byte	0x30
 2430 01b6 00       		.byte	0
 2431 01b7 0F       		.uleb128 0xf
 2432 01b8 1E000000 		.4byte	.LVL15
 2433 01bc 10100000 		.4byte	0x1010
 2434 01c0 0F       		.uleb128 0xf
 2435 01c1 22000000 		.4byte	.LVL16
 2436 01c5 17100000 		.4byte	0x1017
 2437 01c9 0E       		.uleb128 0xe
 2438 01ca 32000000 		.4byte	.LVL19
 2439 01ce 1E100000 		.4byte	0x101e
 2440 01d2 0D       		.uleb128 0xd
 2441 01d3 01       		.uleb128 0x1
 2442 01d4 50       		.byte	0x50
 2443 01d5 01       		.uleb128 0x1
 2444 01d6 3F       		.byte	0x3f
 2445 01d7 00       		.byte	0
 2446 01d8 00       		.byte	0
 2447 01d9 0A       		.uleb128 0xa
 2448 01da D6010000 		.4byte	.LASF22
ARM GAS  C:\Users\kbuchi\AppData\Local\Temp\ccOUPaAd.s 			page 87


 2449 01de 01       		.byte	0x1
 2450 01df EF01     		.2byte	0x1ef
 2451 01e1 00000000 		.4byte	.LFB37
 2452 01e5 2C000000 		.4byte	.LFE37-.LFB37
 2453 01e9 01       		.uleb128 0x1
 2454 01ea 9C       		.byte	0x9c
 2455 01eb 15020000 		.4byte	0x215
 2456 01ef 0C       		.uleb128 0xc
 2457 01f0 08000000 		.4byte	.LVL20
 2458 01f4 950F0000 		.4byte	0xf95
 2459 01f8 02020000 		.4byte	0x202
 2460 01fc 0D       		.uleb128 0xd
 2461 01fd 01       		.uleb128 0x1
 2462 01fe 50       		.byte	0x50
 2463 01ff 01       		.uleb128 0x1
 2464 0200 3F       		.byte	0x3f
 2465 0201 00       		.byte	0
 2466 0202 0F       		.uleb128 0xf
 2467 0203 1E000000 		.4byte	.LVL21
 2468 0207 D60F0000 		.4byte	0xfd6
 2469 020b 0F       		.uleb128 0xf
 2470 020c 22000000 		.4byte	.LVL22
 2471 0210 DD0F0000 		.4byte	0xfdd
 2472 0214 00       		.byte	0
 2473 0215 10       		.uleb128 0x10
 2474 0216 35010000 		.4byte	.LASF57
 2475 021a 01       		.byte	0x1
 2476 021b EA02     		.2byte	0x2ea
 2477 021d 81000000 		.4byte	0x81
 2478 0221 00000000 		.4byte	.LFB42
 2479 0225 10000000 		.4byte	.LFE42-.LFB42
 2480 0229 01       		.uleb128 0x1
 2481 022a 9C       		.byte	0x9c
 2482 022b 11       		.uleb128 0x11
 2483 022c 36090000 		.4byte	.LASF29
 2484 0230 01       		.byte	0x1
 2485 0231 0803     		.2byte	0x308
 2486 0233 76000000 		.4byte	0x76
 2487 0237 00000000 		.4byte	.LFB43
 2488 023b 10000000 		.4byte	.LFE43-.LFB43
 2489 023f 01       		.uleb128 0x1
 2490 0240 9C       		.byte	0x9c
 2491 0241 56020000 		.4byte	0x256
 2492 0245 12       		.uleb128 0x12
 2493 0246 9A040000 		.4byte	.LASF24
 2494 024a 01       		.byte	0x1
 2495 024b 0803     		.2byte	0x308
 2496 024d 81000000 		.4byte	0x81
 2497 0251 52000000 		.4byte	.LLST2
 2498 0255 00       		.byte	0
 2499 0256 0A       		.uleb128 0xa
 2500 0257 35030000 		.4byte	.LASF23
 2501 025b 01       		.byte	0x1
 2502 025c 2303     		.2byte	0x323
 2503 025e 00000000 		.4byte	.LFB44
 2504 0262 10000000 		.4byte	.LFE44-.LFB44
 2505 0266 01       		.uleb128 0x1
ARM GAS  C:\Users\kbuchi\AppData\Local\Temp\ccOUPaAd.s 			page 88


 2506 0267 9C       		.byte	0x9c
 2507 0268 8B020000 		.4byte	0x28b
 2508 026c 12       		.uleb128 0x12
 2509 026d 9A040000 		.4byte	.LASF24
 2510 0271 01       		.byte	0x1
 2511 0272 2303     		.2byte	0x323
 2512 0274 81000000 		.4byte	0x81
 2513 0278 73000000 		.4byte	.LLST3
 2514 027c 13       		.uleb128 0x13
 2515 027d 1E030000 		.4byte	.LASF25
 2516 0281 01       		.byte	0x1
 2517 0282 2303     		.2byte	0x323
 2518 0284 76000000 		.4byte	0x76
 2519 0288 01       		.uleb128 0x1
 2520 0289 51       		.byte	0x51
 2521 028a 00       		.byte	0
 2522 028b 0A       		.uleb128 0xa
 2523 028c 9D030000 		.4byte	.LASF26
 2524 0290 01       		.byte	0x1
 2525 0291 4D03     		.2byte	0x34d
 2526 0293 00000000 		.4byte	.LFB45
 2527 0297 0C000000 		.4byte	.LFE45-.LFB45
 2528 029b 01       		.uleb128 0x1
 2529 029c 9C       		.byte	0x9c
 2530 029d C0020000 		.4byte	0x2c0
 2531 02a1 12       		.uleb128 0x12
 2532 02a2 94020000 		.4byte	.LASF27
 2533 02a6 01       		.byte	0x1
 2534 02a7 4D03     		.2byte	0x34d
 2535 02a9 81000000 		.4byte	0x81
 2536 02ad 94000000 		.4byte	.LLST4
 2537 02b1 13       		.uleb128 0x13
 2538 02b2 22050000 		.4byte	.LASF28
 2539 02b6 01       		.byte	0x1
 2540 02b7 4D03     		.2byte	0x34d
 2541 02b9 81000000 		.4byte	0x81
 2542 02bd 01       		.uleb128 0x1
 2543 02be 51       		.byte	0x51
 2544 02bf 00       		.byte	0
 2545 02c0 11       		.uleb128 0x11
 2546 02c1 DC020000 		.4byte	.LASF30
 2547 02c5 01       		.byte	0x1
 2548 02c6 7603     		.2byte	0x376
 2549 02c8 81000000 		.4byte	0x81
 2550 02cc 00000000 		.4byte	.LFB46
 2551 02d0 0C000000 		.4byte	.LFE46-.LFB46
 2552 02d4 01       		.uleb128 0x1
 2553 02d5 9C       		.byte	0x9c
 2554 02d6 EB020000 		.4byte	0x2eb
 2555 02da 12       		.uleb128 0x12
 2556 02db 94020000 		.4byte	.LASF27
 2557 02df 01       		.byte	0x1
 2558 02e0 7603     		.2byte	0x376
 2559 02e2 81000000 		.4byte	0x81
 2560 02e6 B5000000 		.4byte	.LLST5
 2561 02ea 00       		.byte	0
 2562 02eb 0A       		.uleb128 0xa
ARM GAS  C:\Users\kbuchi\AppData\Local\Temp\ccOUPaAd.s 			page 89


 2563 02ec DA050000 		.4byte	.LASF31
 2564 02f0 01       		.byte	0x1
 2565 02f1 2F04     		.2byte	0x42f
 2566 02f3 00000000 		.4byte	.LFB48
 2567 02f7 48000000 		.4byte	.LFE48-.LFB48
 2568 02fb 01       		.uleb128 0x1
 2569 02fc 9C       		.byte	0x9c
 2570 02fd 74030000 		.4byte	0x374
 2571 0301 12       		.uleb128 0x12
 2572 0302 9A040000 		.4byte	.LASF24
 2573 0306 01       		.byte	0x1
 2574 0307 2F04     		.2byte	0x42f
 2575 0309 81000000 		.4byte	0x81
 2576 030d D6000000 		.4byte	.LLST6
 2577 0311 0B       		.uleb128 0xb
 2578 0312 45010000 		.4byte	.LASF32
 2579 0316 01       		.byte	0x1
 2580 0317 3104     		.2byte	0x431
 2581 0319 6B000000 		.4byte	0x6b
 2582 031d F7000000 		.4byte	.LLST7
 2583 0321 0B       		.uleb128 0xb
 2584 0322 F7000000 		.4byte	.LASF33
 2585 0326 01       		.byte	0x1
 2586 0327 3204     		.2byte	0x432
 2587 0329 6B000000 		.4byte	0x6b
 2588 032d 34010000 		.4byte	.LLST8
 2589 0331 0B       		.uleb128 0xb
 2590 0332 B5000000 		.4byte	.LASF34
 2591 0336 01       		.byte	0x1
 2592 0337 3304     		.2byte	0x433
 2593 0339 6B000000 		.4byte	0x6b
 2594 033d 6A010000 		.4byte	.LLST9
 2595 0341 0B       		.uleb128 0xb
 2596 0342 24030000 		.4byte	.LASF35
 2597 0346 01       		.byte	0x1
 2598 0347 3404     		.2byte	0x434
 2599 0349 81000000 		.4byte	0x81
 2600 034d 7D010000 		.4byte	.LLST10
 2601 0351 0B       		.uleb128 0xb
 2602 0352 DF080000 		.4byte	.LASF36
 2603 0356 01       		.byte	0x1
 2604 0357 3504     		.2byte	0x435
 2605 0359 81000000 		.4byte	0x81
 2606 035d 9B010000 		.4byte	.LLST11
 2607 0361 0F       		.uleb128 0xf
 2608 0362 18000000 		.4byte	.LVL36
 2609 0366 2F100000 		.4byte	0x102f
 2610 036a 0F       		.uleb128 0xf
 2611 036b 40000000 		.4byte	.LVL43
 2612 036f 3A100000 		.4byte	0x103a
 2613 0373 00       		.byte	0
 2614 0374 0A       		.uleb128 0xa
 2615 0375 85010000 		.4byte	.LASF37
 2616 0379 01       		.byte	0x1
 2617 037a 6404     		.2byte	0x464
 2618 037c 00000000 		.4byte	.LFB49
 2619 0380 70000000 		.4byte	.LFE49-.LFB49
ARM GAS  C:\Users\kbuchi\AppData\Local\Temp\ccOUPaAd.s 			page 90


 2620 0384 01       		.uleb128 0x1
 2621 0385 9C       		.byte	0x9c
 2622 0386 1D040000 		.4byte	0x41d
 2623 038a 12       		.uleb128 0x12
 2624 038b 9A040000 		.4byte	.LASF24
 2625 038f 01       		.byte	0x1
 2626 0390 6404     		.2byte	0x464
 2627 0392 81000000 		.4byte	0x81
 2628 0396 DD010000 		.4byte	.LLST12
 2629 039a 0B       		.uleb128 0xb
 2630 039b B5000000 		.4byte	.LASF34
 2631 039f 01       		.byte	0x1
 2632 03a0 6604     		.2byte	0x466
 2633 03a2 6B000000 		.4byte	0x6b
 2634 03a6 FE010000 		.4byte	.LLST13
 2635 03aa 0B       		.uleb128 0xb
 2636 03ab 24030000 		.4byte	.LASF35
 2637 03af 01       		.byte	0x1
 2638 03b0 6704     		.2byte	0x467
 2639 03b2 81000000 		.4byte	0x81
 2640 03b6 11020000 		.4byte	.LLST14
 2641 03ba 0B       		.uleb128 0xb
 2642 03bb DF080000 		.4byte	.LASF36
 2643 03bf 01       		.byte	0x1
 2644 03c0 6904     		.2byte	0x469
 2645 03c2 81000000 		.4byte	0x81
 2646 03c6 2F020000 		.4byte	.LLST15
 2647 03ca 0B       		.uleb128 0xb
 2648 03cb F7000000 		.4byte	.LASF33
 2649 03cf 01       		.byte	0x1
 2650 03d0 6A04     		.2byte	0x46a
 2651 03d2 6B000000 		.4byte	0x6b
 2652 03d6 8A020000 		.4byte	.LLST16
 2653 03da 0B       		.uleb128 0xb
 2654 03db 45010000 		.4byte	.LASF32
 2655 03df 01       		.byte	0x1
 2656 03e0 6B04     		.2byte	0x46b
 2657 03e2 6B000000 		.4byte	0x6b
 2658 03e6 C4020000 		.4byte	.LLST17
 2659 03ea 0B       		.uleb128 0xb
 2660 03eb B4010000 		.4byte	.LASF38
 2661 03ef 01       		.byte	0x1
 2662 03f0 6D04     		.2byte	0x46d
 2663 03f2 81000000 		.4byte	0x81
 2664 03f6 13030000 		.4byte	.LLST18
 2665 03fa 0B       		.uleb128 0xb
 2666 03fb 79030000 		.4byte	.LASF39
 2667 03ff 01       		.byte	0x1
 2668 0400 6E04     		.2byte	0x46e
 2669 0402 81000000 		.4byte	0x81
 2670 0406 32030000 		.4byte	.LLST19
 2671 040a 0F       		.uleb128 0xf
 2672 040b 3C000000 		.4byte	.LVL55
 2673 040f 2F100000 		.4byte	0x102f
 2674 0413 0F       		.uleb128 0xf
 2675 0414 58000000 		.4byte	.LVL64
 2676 0418 3A100000 		.4byte	0x103a
ARM GAS  C:\Users\kbuchi\AppData\Local\Temp\ccOUPaAd.s 			page 91


 2677 041c 00       		.byte	0
 2678 041d 0A       		.uleb128 0xa
 2679 041e 1B020000 		.4byte	.LASF40
 2680 0422 01       		.byte	0x1
 2681 0423 9103     		.2byte	0x391
 2682 0425 00000000 		.4byte	.LFB47
 2683 0429 14000000 		.4byte	.LFE47-.LFB47
 2684 042d 01       		.uleb128 0x1
 2685 042e 9C       		.byte	0x9c
 2686 042f 54040000 		.4byte	0x454
 2687 0433 0B       		.uleb128 0xb
 2688 0434 69060000 		.4byte	.LASF41
 2689 0438 01       		.byte	0x1
 2690 0439 9303     		.2byte	0x393
 2691 043b 81000000 		.4byte	0x81
 2692 043f 45030000 		.4byte	.LLST20
 2693 0443 0E       		.uleb128 0xe
 2694 0444 0C000000 		.4byte	.LVL69
 2695 0448 74030000 		.4byte	0x374
 2696 044c 0D       		.uleb128 0xd
 2697 044d 01       		.uleb128 0x1
 2698 044e 50       		.byte	0x50
 2699 044f 02       		.uleb128 0x2
 2700 0450 74       		.byte	0x74
 2701 0451 00       		.sleb128 0
 2702 0452 00       		.byte	0
 2703 0453 00       		.byte	0
 2704 0454 0A       		.uleb128 0xa
 2705 0455 16070000 		.4byte	.LASF42
 2706 0459 01       		.byte	0x1
 2707 045a 2E05     		.2byte	0x52e
 2708 045c 00000000 		.4byte	.LFB52
 2709 0460 24000000 		.4byte	.LFE52-.LFB52
 2710 0464 01       		.uleb128 0x1
 2711 0465 9C       		.byte	0x9c
 2712 0466 BB040000 		.4byte	0x4bb
 2713 046a 12       		.uleb128 0x12
 2714 046b 950A0000 		.4byte	.LASF43
 2715 046f 01       		.byte	0x1
 2716 0470 2E05     		.2byte	0x52e
 2717 0472 81000000 		.4byte	0x81
 2718 0476 64030000 		.4byte	.LLST21
 2719 047a 12       		.uleb128 0x12
 2720 047b 5F060000 		.4byte	.LASF44
 2721 047f 01       		.byte	0x1
 2722 0480 2E05     		.2byte	0x52e
 2723 0482 81000000 		.4byte	0x81
 2724 0486 85030000 		.4byte	.LLST22
 2725 048a 12       		.uleb128 0x12
 2726 048b D1060000 		.4byte	.LASF45
 2727 048f 01       		.byte	0x1
 2728 0490 2E05     		.2byte	0x52e
 2729 0492 81000000 		.4byte	0x81
 2730 0496 A6030000 		.4byte	.LLST23
 2731 049a 0B       		.uleb128 0xb
 2732 049b 45010000 		.4byte	.LASF32
 2733 049f 01       		.byte	0x1
ARM GAS  C:\Users\kbuchi\AppData\Local\Temp\ccOUPaAd.s 			page 92


 2734 04a0 3005     		.2byte	0x530
 2735 04a2 81000000 		.4byte	0x81
 2736 04a6 C7030000 		.4byte	.LLST24
 2737 04aa 0B       		.uleb128 0xb
 2738 04ab 24030000 		.4byte	.LASF35
 2739 04af 01       		.byte	0x1
 2740 04b0 3105     		.2byte	0x531
 2741 04b2 81000000 		.4byte	0x81
 2742 04b6 EE030000 		.4byte	.LLST25
 2743 04ba 00       		.byte	0
 2744 04bb 0A       		.uleb128 0xa
 2745 04bc 6B070000 		.4byte	.LASF46
 2746 04c0 01       		.byte	0x1
 2747 04c1 B104     		.2byte	0x4b1
 2748 04c3 00000000 		.4byte	.LFB50
 2749 04c7 30000000 		.4byte	.LFE50-.LFB50
 2750 04cb 01       		.uleb128 0x1
 2751 04cc 9C       		.byte	0x9c
 2752 04cd 5E050000 		.4byte	0x55e
 2753 04d1 12       		.uleb128 0x12
 2754 04d2 950A0000 		.4byte	.LASF43
 2755 04d6 01       		.byte	0x1
 2756 04d7 B104     		.2byte	0x4b1
 2757 04d9 81000000 		.4byte	0x81
 2758 04dd 0C040000 		.4byte	.LLST26
 2759 04e1 0B       		.uleb128 0xb
 2760 04e2 780A0000 		.4byte	.LASF47
 2761 04e6 01       		.byte	0x1
 2762 04e7 B304     		.2byte	0x4b3
 2763 04e9 6B000000 		.4byte	0x6b
 2764 04ed 38040000 		.4byte	.LLST27
 2765 04f1 0B       		.uleb128 0xb
 2766 04f2 CC030000 		.4byte	.LASF48
 2767 04f6 01       		.byte	0x1
 2768 04f7 B804     		.2byte	0x4b8
 2769 04f9 81000000 		.4byte	0x81
 2770 04fd 6F040000 		.4byte	.LLST28
 2771 0501 0B       		.uleb128 0xb
 2772 0502 47050000 		.4byte	.LASF49
 2773 0506 01       		.byte	0x1
 2774 0507 B904     		.2byte	0x4b9
 2775 0509 81000000 		.4byte	0x81
 2776 050d AE040000 		.4byte	.LLST29
 2777 0511 0C       		.uleb128 0xc
 2778 0512 16000000 		.4byte	.LVL85
 2779 0516 54040000 		.4byte	0x454
 2780 051a 43050000 		.4byte	0x543
 2781 051e 0D       		.uleb128 0xd
 2782 051f 01       		.uleb128 0x1
 2783 0520 52       		.byte	0x52
 2784 0521 0A       		.uleb128 0xa
 2785 0522 75       		.byte	0x75
 2786 0523 00       		.sleb128 0
 2787 0524 74       		.byte	0x74
 2788 0525 00       		.sleb128 0
 2789 0526 22       		.byte	0x22
 2790 0527 94       		.byte	0x94
ARM GAS  C:\Users\kbuchi\AppData\Local\Temp\ccOUPaAd.s 			page 93


 2791 0528 01       		.byte	0x1
 2792 0529 08       		.byte	0x8
 2793 052a FF       		.byte	0xff
 2794 052b 1A       		.byte	0x1a
 2795 052c 0D       		.uleb128 0xd
 2796 052d 01       		.uleb128 0x1
 2797 052e 51       		.byte	0x51
 2798 052f 0C       		.uleb128 0xc
 2799 0530 75       		.byte	0x75
 2800 0531 00       		.sleb128 0
 2801 0532 74       		.byte	0x74
 2802 0533 00       		.sleb128 0
 2803 0534 22       		.byte	0x22
 2804 0535 23       		.byte	0x23
 2805 0536 08       		.uleb128 0x8
 2806 0537 94       		.byte	0x94
 2807 0538 01       		.byte	0x1
 2808 0539 08       		.byte	0x8
 2809 053a FF       		.byte	0xff
 2810 053b 1A       		.byte	0x1a
 2811 053c 0D       		.uleb128 0xd
 2812 053d 01       		.uleb128 0x1
 2813 053e 50       		.byte	0x50
 2814 053f 02       		.uleb128 0x2
 2815 0540 76       		.byte	0x76
 2816 0541 00       		.sleb128 0
 2817 0542 00       		.byte	0
 2818 0543 0E       		.uleb128 0xe
 2819 0544 28000000 		.4byte	.LVL88
 2820 0548 54040000 		.4byte	0x454
 2821 054c 0D       		.uleb128 0xd
 2822 054d 01       		.uleb128 0x1
 2823 054e 52       		.byte	0x52
 2824 054f 01       		.uleb128 0x1
 2825 0550 34       		.byte	0x34
 2826 0551 0D       		.uleb128 0xd
 2827 0552 01       		.uleb128 0x1
 2828 0553 51       		.byte	0x51
 2829 0554 01       		.uleb128 0x1
 2830 0555 32       		.byte	0x32
 2831 0556 0D       		.uleb128 0xd
 2832 0557 01       		.uleb128 0x1
 2833 0558 50       		.byte	0x50
 2834 0559 02       		.uleb128 0x2
 2835 055a 76       		.byte	0x76
 2836 055b 00       		.sleb128 0
 2837 055c 00       		.byte	0
 2838 055d 00       		.byte	0
 2839 055e 0A       		.uleb128 0xa
 2840 055f 83060000 		.4byte	.LASF50
 2841 0563 01       		.byte	0x1
 2842 0564 FA04     		.2byte	0x4fa
 2843 0566 00000000 		.4byte	.LFB51
 2844 056a 24000000 		.4byte	.LFE51-.LFB51
 2845 056e 01       		.uleb128 0x1
 2846 056f 9C       		.byte	0x9c
 2847 0570 94050000 		.4byte	0x594
ARM GAS  C:\Users\kbuchi\AppData\Local\Temp\ccOUPaAd.s 			page 94


 2848 0574 0B       		.uleb128 0xb
 2849 0575 24030000 		.4byte	.LASF35
 2850 0579 01       		.byte	0x1
 2851 057a FC04     		.2byte	0x4fc
 2852 057c 81000000 		.4byte	0x81
 2853 0580 EF040000 		.4byte	.LLST30
 2854 0584 0E       		.uleb128 0xe
 2855 0585 08000000 		.4byte	.LVL91
 2856 0589 BB040000 		.4byte	0x4bb
 2857 058d 0D       		.uleb128 0xd
 2858 058e 01       		.uleb128 0x1
 2859 058f 50       		.byte	0x50
 2860 0590 01       		.uleb128 0x1
 2861 0591 30       		.byte	0x30
 2862 0592 00       		.byte	0
 2863 0593 00       		.byte	0
 2864 0594 0A       		.uleb128 0xa
 2865 0595 43020000 		.4byte	.LASF51
 2866 0599 01       		.byte	0x1
 2867 059a 6906     		.2byte	0x669
 2868 059c 00000000 		.4byte	.LFB55
 2869 05a0 34000000 		.4byte	.LFE55-.LFB55
 2870 05a4 01       		.uleb128 0x1
 2871 05a5 9C       		.byte	0x9c
 2872 05a6 DB050000 		.4byte	0x5db
 2873 05aa 12       		.uleb128 0x12
 2874 05ab 5F060000 		.4byte	.LASF44
 2875 05af 01       		.byte	0x1
 2876 05b0 6906     		.2byte	0x669
 2877 05b2 81000000 		.4byte	0x81
 2878 05b6 0D050000 		.4byte	.LLST31
 2879 05ba 12       		.uleb128 0x12
 2880 05bb D1060000 		.4byte	.LASF45
 2881 05bf 01       		.byte	0x1
 2882 05c0 6906     		.2byte	0x669
 2883 05c2 81000000 		.4byte	0x81
 2884 05c6 2E050000 		.4byte	.LLST32
 2885 05ca 0B       		.uleb128 0xb
 2886 05cb 5F0A0000 		.4byte	.LASF21
 2887 05cf 01       		.byte	0x1
 2888 05d0 6B06     		.2byte	0x66b
 2889 05d2 81000000 		.4byte	0x81
 2890 05d6 4F050000 		.4byte	.LLST33
 2891 05da 00       		.byte	0
 2892 05db 0A       		.uleb128 0xa
 2893 05dc 9B020000 		.4byte	.LASF52
 2894 05e0 01       		.byte	0x1
 2895 05e1 8C06     		.2byte	0x68c
 2896 05e3 00000000 		.4byte	.LFB56
 2897 05e7 14000000 		.4byte	.LFE56-.LFB56
 2898 05eb 01       		.uleb128 0x1
 2899 05ec 9C       		.byte	0x9c
 2900 05ed 12060000 		.4byte	0x612
 2901 05f1 12       		.uleb128 0x12
 2902 05f2 42070000 		.4byte	.LASF53
 2903 05f6 01       		.byte	0x1
 2904 05f7 8C06     		.2byte	0x68c
ARM GAS  C:\Users\kbuchi\AppData\Local\Temp\ccOUPaAd.s 			page 95


 2905 05f9 81000000 		.4byte	0x81
 2906 05fd 6D050000 		.4byte	.LLST34
 2907 0601 0B       		.uleb128 0xb
 2908 0602 5F0A0000 		.4byte	.LASF21
 2909 0606 01       		.byte	0x1
 2910 0607 8E06     		.2byte	0x68e
 2911 0609 81000000 		.4byte	0x81
 2912 060d 9B050000 		.4byte	.LLST35
 2913 0611 00       		.byte	0
 2914 0612 14       		.uleb128 0x14
 2915 0613 FF060000 		.4byte	.LASF54
 2916 0617 01       		.byte	0x1
 2917 0618 C2       		.byte	0xc2
 2918 0619 00000000 		.4byte	.LFB33
 2919 061d 28000000 		.4byte	.LFE33-.LFB33
 2920 0621 01       		.uleb128 0x1
 2921 0622 9C       		.byte	0x9c
 2922 0623 5C060000 		.4byte	0x65c
 2923 0627 15       		.uleb128 0x15
 2924 0628 780A0000 		.4byte	.LASF47
 2925 062c 01       		.byte	0x1
 2926 062d C4       		.byte	0xc4
 2927 062e 81000000 		.4byte	0x81
 2928 0632 B9050000 		.4byte	.LLST36
 2929 0636 0F       		.uleb128 0xf
 2930 0637 16000000 		.4byte	.LVL109
 2931 063b EE000000 		.4byte	0xee
 2932 063f 0C       		.uleb128 0xc
 2933 0640 1C000000 		.4byte	.LVL110
 2934 0644 DB050000 		.4byte	0x5db
 2935 0648 52060000 		.4byte	0x652
 2936 064c 0D       		.uleb128 0xd
 2937 064d 01       		.uleb128 0x1
 2938 064e 50       		.byte	0x50
 2939 064f 01       		.uleb128 0x1
 2940 0650 30       		.byte	0x30
 2941 0651 00       		.byte	0
 2942 0652 0F       		.uleb128 0xf
 2943 0653 20000000 		.4byte	.LVL111
 2944 0657 1D040000 		.4byte	0x41d
 2945 065b 00       		.byte	0
 2946 065c 0A       		.uleb128 0xa
 2947 065d D4000000 		.4byte	.LASF55
 2948 0661 01       		.byte	0x1
 2949 0662 9301     		.2byte	0x193
 2950 0664 00000000 		.4byte	.LFB36
 2951 0668 38000000 		.4byte	.LFE36-.LFB36
 2952 066c 01       		.uleb128 0x1
 2953 066d 9C       		.byte	0x9c
 2954 066e A0060000 		.4byte	0x6a0
 2955 0672 16       		.uleb128 0x16
 2956 0673 66040000 		.4byte	.LASF56
 2957 0677 01       		.byte	0x1
 2958 0678 9601     		.2byte	0x196
 2959 067a 6B000000 		.4byte	0x6b
 2960 067e 05       		.uleb128 0x5
 2961 067f 03       		.byte	0x3
ARM GAS  C:\Users\kbuchi\AppData\Local\Temp\ccOUPaAd.s 			page 96


 2962 0680 0E000000 		.4byte	CapSense_initVar.5249
 2963 0684 0F       		.uleb128 0xf
 2964 0685 0E000000 		.4byte	.LVL112
 2965 0689 12060000 		.4byte	0x612
 2966 068d 0F       		.uleb128 0xf
 2967 068e 18000000 		.4byte	.LVL113
 2968 0692 4F010000 		.4byte	0x14f
 2969 0696 0F       		.uleb128 0xf
 2970 0697 1C000000 		.4byte	.LVL114
 2971 069b 4B100000 		.4byte	0x104b
 2972 069f 00       		.byte	0
 2973 06a0 10       		.uleb128 0x10
 2974 06a1 48070000 		.4byte	.LASF58
 2975 06a5 01       		.byte	0x1
 2976 06a6 B006     		.2byte	0x6b0
 2977 06a8 81000000 		.4byte	0x81
 2978 06ac 00000000 		.4byte	.LFB57
 2979 06b0 1C000000 		.4byte	.LFE57-.LFB57
 2980 06b4 01       		.uleb128 0x1
 2981 06b5 9C       		.byte	0x9c
 2982 06b6 11       		.uleb128 0x11
 2983 06b7 7D090000 		.4byte	.LASF59
 2984 06bb 01       		.byte	0x1
 2985 06bc CC06     		.2byte	0x6cc
 2986 06be 81000000 		.4byte	0x81
 2987 06c2 00000000 		.4byte	.LFB58
 2988 06c6 18000000 		.4byte	.LFE58-.LFB58
 2989 06ca 01       		.uleb128 0x1
 2990 06cb 9C       		.byte	0x9c
 2991 06cc 0F070000 		.4byte	0x70f
 2992 06d0 12       		.uleb128 0x12
 2993 06d1 DD040000 		.4byte	.LASF60
 2994 06d5 01       		.byte	0x1
 2995 06d6 CC06     		.2byte	0x6cc
 2996 06d8 E3000000 		.4byte	0xe3
 2997 06dc D8050000 		.4byte	.LLST37
 2998 06e0 12       		.uleb128 0x12
 2999 06e1 9F0A0000 		.4byte	.LASF61
 3000 06e5 01       		.byte	0x1
 3001 06e6 CC06     		.2byte	0x6cc
 3002 06e8 81000000 		.4byte	0x81
 3003 06ec 12060000 		.4byte	.LLST38
 3004 06f0 0B       		.uleb128 0xb
 3005 06f1 96030000 		.4byte	.LASF62
 3006 06f5 01       		.byte	0x1
 3007 06f6 CE06     		.2byte	0x6ce
 3008 06f8 81000000 		.4byte	0x81
 3009 06fc 33060000 		.4byte	.LLST39
 3010 0700 16       		.uleb128 0x16
 3011 0701 FD080000 		.4byte	.LASF63
 3012 0705 01       		.byte	0x1
 3013 0706 CF06     		.2byte	0x6cf
 3014 0708 6B000000 		.4byte	0x6b
 3015 070c 01       		.uleb128 0x1
 3016 070d 52       		.byte	0x52
 3017 070e 00       		.byte	0
 3018 070f 11       		.uleb128 0x11
ARM GAS  C:\Users\kbuchi\AppData\Local\Temp\ccOUPaAd.s 			page 97


 3019 0710 E3040000 		.4byte	.LASF64
 3020 0714 01       		.byte	0x1
 3021 0715 1502     		.2byte	0x215
 3022 0717 6B000000 		.4byte	0x6b
 3023 071b 00000000 		.4byte	.LFB38
 3024 071f 24000000 		.4byte	.LFE38-.LFB38
 3025 0723 01       		.uleb128 0x1
 3026 0724 9C       		.byte	0x9c
 3027 0725 60070000 		.4byte	0x760
 3028 0729 12       		.uleb128 0x12
 3029 072a 69060000 		.4byte	.LASF41
 3030 072e 01       		.byte	0x1
 3031 072f 1502     		.2byte	0x215
 3032 0731 6B000000 		.4byte	0x6b
 3033 0735 56060000 		.4byte	.LLST40
 3034 0739 0B       		.uleb128 0xb
 3035 073a AC050000 		.4byte	.LASF65
 3036 073e 01       		.byte	0x1
 3037 073f 1702     		.2byte	0x217
 3038 0741 81000000 		.4byte	0x81
 3039 0745 97060000 		.4byte	.LLST41
 3040 0749 0E       		.uleb128 0xe
 3041 074a 18000000 		.4byte	.LVL127
 3042 074e B6060000 		.4byte	0x6b6
 3043 0752 0D       		.uleb128 0xd
 3044 0753 01       		.uleb128 0x1
 3045 0754 51       		.byte	0x51
 3046 0755 02       		.uleb128 0x2
 3047 0756 74       		.byte	0x74
 3048 0757 00       		.sleb128 0
 3049 0758 0D       		.uleb128 0xd
 3050 0759 01       		.uleb128 0x1
 3051 075a 50       		.byte	0x50
 3052 075b 02       		.uleb128 0x2
 3053 075c 75       		.byte	0x75
 3054 075d 00       		.sleb128 0
 3055 075e 00       		.byte	0
 3056 075f 00       		.byte	0
 3057 0760 0A       		.uleb128 0xa
 3058 0761 85030000 		.4byte	.LASF66
 3059 0765 01       		.byte	0x1
 3060 0766 5205     		.2byte	0x552
 3061 0768 00000000 		.4byte	.LFB53
 3062 076c CC000000 		.4byte	.LFE53-.LFB53
 3063 0770 01       		.uleb128 0x1
 3064 0771 9C       		.byte	0x9c
 3065 0772 80080000 		.4byte	0x880
 3066 0776 12       		.uleb128 0x12
 3067 0777 9A040000 		.4byte	.LASF24
 3068 077b 01       		.byte	0x1
 3069 077c 5205     		.2byte	0x552
 3070 077e 81000000 		.4byte	0x81
 3071 0782 AA060000 		.4byte	.LLST42
 3072 0786 0B       		.uleb128 0xb
 3073 0787 94020000 		.4byte	.LASF27
 3074 078b 01       		.byte	0x1
 3075 078c 5405     		.2byte	0x554
ARM GAS  C:\Users\kbuchi\AppData\Local\Temp\ccOUPaAd.s 			page 98


 3076 078e 6B000000 		.4byte	0x6b
 3077 0792 D6060000 		.4byte	.LLST43
 3078 0796 0B       		.uleb128 0xb
 3079 0797 B5000000 		.4byte	.LASF34
 3080 079b 01       		.byte	0x1
 3081 079c 5505     		.2byte	0x555
 3082 079e 6B000000 		.4byte	0x6b
 3083 07a2 24070000 		.4byte	.LLST44
 3084 07a6 0B       		.uleb128 0xb
 3085 07a7 5F0A0000 		.4byte	.LASF21
 3086 07ab 01       		.byte	0x1
 3087 07ac 5605     		.2byte	0x556
 3088 07ae 81000000 		.4byte	0x81
 3089 07b2 42070000 		.4byte	.LLST45
 3090 07b6 0B       		.uleb128 0xb
 3091 07b7 24090000 		.4byte	.LASF67
 3092 07bb 01       		.byte	0x1
 3093 07bc 5705     		.2byte	0x557
 3094 07be 81000000 		.4byte	0x81
 3095 07c2 6B070000 		.4byte	.LLST46
 3096 07c6 0B       		.uleb128 0xb
 3097 07c7 820A0000 		.4byte	.LASF68
 3098 07cb 01       		.byte	0x1
 3099 07cc 6005     		.2byte	0x560
 3100 07ce 81000000 		.4byte	0x81
 3101 07d2 94070000 		.4byte	.LLST47
 3102 07d6 0C       		.uleb128 0xc
 3103 07d7 18000000 		.4byte	.LVL135
 3104 07db B6060000 		.4byte	0x6b6
 3105 07df F3070000 		.4byte	0x7f3
 3106 07e3 0D       		.uleb128 0xd
 3107 07e4 01       		.uleb128 0x1
 3108 07e5 51       		.byte	0x51
 3109 07e6 02       		.uleb128 0x2
 3110 07e7 74       		.byte	0x74
 3111 07e8 00       		.sleb128 0
 3112 07e9 0D       		.uleb128 0xd
 3113 07ea 01       		.uleb128 0x1
 3114 07eb 50       		.byte	0x50
 3115 07ec 05       		.uleb128 0x5
 3116 07ed 03       		.byte	0x3
 3117 07ee 00000000 		.4byte	scanSpeedTbl
 3118 07f2 00       		.byte	0
 3119 07f3 0C       		.uleb128 0xc
 3120 07f4 36000000 		.4byte	.LVL139
 3121 07f8 E40F0000 		.4byte	0xfe4
 3122 07fc 06080000 		.4byte	0x806
 3123 0800 0D       		.uleb128 0xd
 3124 0801 01       		.uleb128 0x1
 3125 0802 51       		.byte	0x51
 3126 0803 01       		.uleb128 0x1
 3127 0804 30       		.byte	0x30
 3128 0805 00       		.byte	0
 3129 0806 0C       		.uleb128 0xc
 3130 0807 44000000 		.4byte	.LVL140
 3131 080b FA0F0000 		.4byte	0xffa
 3132 080f 19080000 		.4byte	0x819
ARM GAS  C:\Users\kbuchi\AppData\Local\Temp\ccOUPaAd.s 			page 99


 3133 0813 0D       		.uleb128 0xd
 3134 0814 01       		.uleb128 0x1
 3135 0815 51       		.byte	0x51
 3136 0816 01       		.uleb128 0x1
 3137 0817 30       		.byte	0x30
 3138 0818 00       		.byte	0
 3139 0819 0C       		.uleb128 0xc
 3140 081a 4A000000 		.4byte	.LVL141
 3141 081e 950F0000 		.4byte	0xf95
 3142 0822 2C080000 		.4byte	0x82c
 3143 0826 0D       		.uleb128 0xd
 3144 0827 01       		.uleb128 0x1
 3145 0828 50       		.byte	0x50
 3146 0829 01       		.uleb128 0x1
 3147 082a 3F       		.byte	0x3f
 3148 082b 00       		.byte	0
 3149 082c 0C       		.uleb128 0xc
 3150 082d 74000000 		.4byte	.LVL148
 3151 0831 1E100000 		.4byte	0x101e
 3152 0835 3F080000 		.4byte	0x83f
 3153 0839 0D       		.uleb128 0xd
 3154 083a 01       		.uleb128 0x1
 3155 083b 50       		.byte	0x50
 3156 083c 01       		.uleb128 0x1
 3157 083d 3F       		.byte	0x3f
 3158 083e 00       		.byte	0
 3159 083f 0C       		.uleb128 0xc
 3160 0840 7A000000 		.4byte	.LVL149
 3161 0844 EB020000 		.4byte	0x2eb
 3162 0848 53080000 		.4byte	0x853
 3163 084c 0D       		.uleb128 0xd
 3164 084d 01       		.uleb128 0x1
 3165 084e 50       		.byte	0x50
 3166 084f 02       		.uleb128 0x2
 3167 0850 74       		.byte	0x74
 3168 0851 00       		.sleb128 0
 3169 0852 00       		.byte	0
 3170 0853 0F       		.uleb128 0xf
 3171 0854 7E000000 		.4byte	.LVL150
 3172 0858 2F100000 		.4byte	0x102f
 3173 085c 0C       		.uleb128 0xc
 3174 085d 88000000 		.4byte	.LVL153
 3175 0861 53100000 		.4byte	0x1053
 3176 0865 6F080000 		.4byte	0x86f
 3177 0869 0D       		.uleb128 0xd
 3178 086a 01       		.uleb128 0x1
 3179 086b 50       		.byte	0x50
 3180 086c 01       		.uleb128 0x1
 3181 086d 30       		.byte	0x30
 3182 086e 00       		.byte	0
 3183 086f 0E       		.uleb128 0xe
 3184 0870 92000000 		.4byte	.LVL154
 3185 0874 3A100000 		.4byte	0x103a
 3186 0878 0D       		.uleb128 0xd
 3187 0879 01       		.uleb128 0x1
 3188 087a 50       		.byte	0x50
 3189 087b 02       		.uleb128 0x2
ARM GAS  C:\Users\kbuchi\AppData\Local\Temp\ccOUPaAd.s 			page 100


 3190 087c 74       		.byte	0x74
 3191 087d 00       		.sleb128 0
 3192 087e 00       		.byte	0
 3193 087f 00       		.byte	0
 3194 0880 0A       		.uleb128 0xa
 3195 0881 B8030000 		.4byte	.LASF69
 3196 0885 01       		.byte	0x1
 3197 0886 4502     		.2byte	0x245
 3198 0888 00000000 		.4byte	.LFB39
 3199 088c 1C000000 		.4byte	.LFE39-.LFB39
 3200 0890 01       		.uleb128 0x1
 3201 0891 9C       		.byte	0x9c
 3202 0892 B8080000 		.4byte	0x8b8
 3203 0896 12       		.uleb128 0x12
 3204 0897 9A040000 		.4byte	.LASF24
 3205 089b 01       		.byte	0x1
 3206 089c 4502     		.2byte	0x245
 3207 089e 81000000 		.4byte	0x81
 3208 08a2 A7070000 		.4byte	.LLST48
 3209 08a6 0E       		.uleb128 0xe
 3210 08a7 14000000 		.4byte	.LVL159
 3211 08ab 60070000 		.4byte	0x760
 3212 08af 0D       		.uleb128 0xd
 3213 08b0 01       		.uleb128 0x1
 3214 08b1 50       		.byte	0x50
 3215 08b2 03       		.uleb128 0x3
 3216 08b3 F3       		.byte	0xf3
 3217 08b4 01       		.uleb128 0x1
 3218 08b5 50       		.byte	0x50
 3219 08b6 00       		.byte	0
 3220 08b7 00       		.byte	0
 3221 08b8 0A       		.uleb128 0xa
 3222 08b9 6A050000 		.4byte	.LASF70
 3223 08bd 01       		.byte	0x1
 3224 08be C102     		.2byte	0x2c1
 3225 08c0 00000000 		.4byte	.LFB41
 3226 08c4 34000000 		.4byte	.LFE41-.LFB41
 3227 08c8 01       		.uleb128 0x1
 3228 08c9 9C       		.byte	0x9c
 3229 08ca E1080000 		.4byte	0x8e1
 3230 08ce 0F       		.uleb128 0xf
 3231 08cf 14000000 		.4byte	.LVL160
 3232 08d3 0F070000 		.4byte	0x70f
 3233 08d7 0F       		.uleb128 0xf
 3234 08d8 2E000000 		.4byte	.LVL161
 3235 08dc 60070000 		.4byte	0x760
 3236 08e0 00       		.byte	0
 3237 08e1 0A       		.uleb128 0xa
 3238 08e2 1E000000 		.4byte	.LASF71
 3239 08e6 01       		.byte	0x1
 3240 08e7 0F06     		.2byte	0x60f
 3241 08e9 00000000 		.4byte	.LFB54
 3242 08ed 8C000000 		.4byte	.LFE54-.LFB54
 3243 08f1 01       		.uleb128 0x1
 3244 08f2 9C       		.byte	0x9c
 3245 08f3 8B090000 		.4byte	0x98b
 3246 08f7 12       		.uleb128 0x12
ARM GAS  C:\Users\kbuchi\AppData\Local\Temp\ccOUPaAd.s 			page 101


 3247 08f8 9A040000 		.4byte	.LASF24
 3248 08fc 01       		.byte	0x1
 3249 08fd 0F06     		.2byte	0x60f
 3250 08ff 81000000 		.4byte	0x81
 3251 0903 C8070000 		.4byte	.LLST49
 3252 0907 0B       		.uleb128 0xb
 3253 0908 5F0A0000 		.4byte	.LASF21
 3254 090c 01       		.byte	0x1
 3255 090d 1106     		.2byte	0x611
 3256 090f 81000000 		.4byte	0x81
 3257 0913 F4070000 		.4byte	.LLST50
 3258 0917 0B       		.uleb128 0xb
 3259 0918 820A0000 		.4byte	.LASF68
 3260 091c 01       		.byte	0x1
 3261 091d 1406     		.2byte	0x614
 3262 091f 81000000 		.4byte	0x81
 3263 0923 21080000 		.4byte	.LLST51
 3264 0927 0B       		.uleb128 0xb
 3265 0928 94020000 		.4byte	.LASF27
 3266 092c 01       		.byte	0x1
 3267 092d 1506     		.2byte	0x615
 3268 092f 81000000 		.4byte	0x81
 3269 0933 34080000 		.4byte	.LLST52
 3270 0937 0C       		.uleb128 0xc
 3271 0938 2C000000 		.4byte	.LVL167
 3272 093c B6060000 		.4byte	0x6b6
 3273 0940 54090000 		.4byte	0x954
 3274 0944 0D       		.uleb128 0xd
 3275 0945 01       		.uleb128 0x1
 3276 0946 51       		.byte	0x51
 3277 0947 02       		.uleb128 0x2
 3278 0948 74       		.byte	0x74
 3279 0949 00       		.sleb128 0
 3280 094a 0D       		.uleb128 0xd
 3281 094b 01       		.uleb128 0x1
 3282 094c 50       		.byte	0x50
 3283 094d 05       		.uleb128 0x5
 3284 094e 03       		.byte	0x3
 3285 094f 00000000 		.4byte	scanSpeedTbl
 3286 0953 00       		.byte	0
 3287 0954 0C       		.uleb128 0xc
 3288 0955 3C000000 		.4byte	.LVL169
 3289 0959 74030000 		.4byte	0x374
 3290 095d 68090000 		.4byte	0x968
 3291 0961 0D       		.uleb128 0xd
 3292 0962 01       		.uleb128 0x1
 3293 0963 50       		.byte	0x50
 3294 0964 02       		.uleb128 0x2
 3295 0965 74       		.byte	0x74
 3296 0966 00       		.sleb128 0
 3297 0967 00       		.byte	0
 3298 0968 0C       		.uleb128 0xc
 3299 0969 42000000 		.4byte	.LVL170
 3300 096d 950F0000 		.4byte	0xf95
 3301 0971 7B090000 		.4byte	0x97b
 3302 0975 0D       		.uleb128 0xd
 3303 0976 01       		.uleb128 0x1
ARM GAS  C:\Users\kbuchi\AppData\Local\Temp\ccOUPaAd.s 			page 102


 3304 0977 50       		.byte	0x50
 3305 0978 01       		.uleb128 0x1
 3306 0979 3F       		.byte	0x3f
 3307 097a 00       		.byte	0
 3308 097b 0E       		.uleb128 0xe
 3309 097c 62000000 		.4byte	.LVL176
 3310 0980 1E100000 		.4byte	0x101e
 3311 0984 0D       		.uleb128 0xd
 3312 0985 01       		.uleb128 0x1
 3313 0986 50       		.byte	0x50
 3314 0987 01       		.uleb128 0x1
 3315 0988 3F       		.byte	0x3f
 3316 0989 00       		.byte	0
 3317 098a 00       		.byte	0
 3318 098b 0A       		.uleb128 0xa
 3319 098c 68090000 		.4byte	.LASF72
 3320 0990 01       		.byte	0x1
 3321 0991 F706     		.2byte	0x6f7
 3322 0993 00000000 		.4byte	.LFB59
 3323 0997 26000000 		.4byte	.LFE59-.LFB59
 3324 099b 01       		.uleb128 0x1
 3325 099c 9C       		.byte	0x9c
 3326 099d F0090000 		.4byte	0x9f0
 3327 09a1 12       		.uleb128 0x12
 3328 09a2 DD040000 		.4byte	.LASF60
 3329 09a6 01       		.byte	0x1
 3330 09a7 F706     		.2byte	0x6f7
 3331 09a9 DD000000 		.4byte	0xdd
 3332 09ad A5080000 		.4byte	.LLST53
 3333 09b1 12       		.uleb128 0x12
 3334 09b2 9F0A0000 		.4byte	.LASF61
 3335 09b6 01       		.byte	0x1
 3336 09b7 F706     		.2byte	0x6f7
 3337 09b9 81000000 		.4byte	0x81
 3338 09bd DF080000 		.4byte	.LLST54
 3339 09c1 13       		.uleb128 0x13
 3340 09c2 1E030000 		.4byte	.LASF25
 3341 09c6 01       		.byte	0x1
 3342 09c7 F706     		.2byte	0x6f7
 3343 09c9 81000000 		.4byte	0x81
 3344 09cd 01       		.uleb128 0x1
 3345 09ce 52       		.byte	0x52
 3346 09cf 0B       		.uleb128 0xb
 3347 09d0 96030000 		.4byte	.LASF62
 3348 09d4 01       		.byte	0x1
 3349 09d5 F906     		.2byte	0x6f9
 3350 09d7 81000000 		.4byte	0x81
 3351 09db 00090000 		.4byte	.LLST55
 3352 09df 0B       		.uleb128 0xb
 3353 09e0 FD080000 		.4byte	.LASF63
 3354 09e4 01       		.byte	0x1
 3355 09e5 FA06     		.2byte	0x6fa
 3356 09e7 6B000000 		.4byte	0x6b
 3357 09eb 3E090000 		.4byte	.LLST56
 3358 09ef 00       		.byte	0
 3359 09f0 0A       		.uleb128 0xa
 3360 09f1 E3000000 		.4byte	.LASF73
ARM GAS  C:\Users\kbuchi\AppData\Local\Temp\ccOUPaAd.s 			page 103


 3361 09f5 01       		.byte	0x1
 3362 09f6 6C02     		.2byte	0x26c
 3363 09f8 00000000 		.4byte	.LFB40
 3364 09fc 98000000 		.4byte	.LFE40-.LFB40
 3365 0a00 01       		.uleb128 0x1
 3366 0a01 9C       		.byte	0x9c
 3367 0a02 8E0A0000 		.4byte	0xa8e
 3368 0a06 12       		.uleb128 0x12
 3369 0a07 94020000 		.4byte	.LASF27
 3370 0a0b 01       		.byte	0x1
 3371 0a0c 6C02     		.2byte	0x26c
 3372 0a0e 81000000 		.4byte	0x81
 3373 0a12 63090000 		.4byte	.LLST57
 3374 0a16 0B       		.uleb128 0xb
 3375 0a17 D9030000 		.4byte	.LASF74
 3376 0a1b 01       		.byte	0x1
 3377 0a1c 6E02     		.2byte	0x26e
 3378 0a1e 81000000 		.4byte	0x81
 3379 0a22 84090000 		.4byte	.LLST58
 3380 0a26 0B       		.uleb128 0xb
 3381 0a27 72060000 		.4byte	.LASF75
 3382 0a2b 01       		.byte	0x1
 3383 0a2c 6F02     		.2byte	0x26f
 3384 0a2e 81000000 		.4byte	0x81
 3385 0a32 97090000 		.4byte	.LLST59
 3386 0a36 0B       		.uleb128 0xb
 3387 0a37 69060000 		.4byte	.LASF41
 3388 0a3b 01       		.byte	0x1
 3389 0a3c 7002     		.2byte	0x270
 3390 0a3e 81000000 		.4byte	0x81
 3391 0a42 AA090000 		.4byte	.LLST60
 3392 0a46 0C       		.uleb128 0xc
 3393 0a47 52000000 		.4byte	.LVL196
 3394 0a4b 8B090000 		.4byte	0x98b
 3395 0a4f 650A0000 		.4byte	0xa65
 3396 0a53 0D       		.uleb128 0xd
 3397 0a54 01       		.uleb128 0x1
 3398 0a55 52       		.byte	0x52
 3399 0a56 01       		.uleb128 0x1
 3400 0a57 31       		.byte	0x31
 3401 0a58 0D       		.uleb128 0xd
 3402 0a59 01       		.uleb128 0x1
 3403 0a5a 51       		.byte	0x51
 3404 0a5b 02       		.uleb128 0x2
 3405 0a5c 74       		.byte	0x74
 3406 0a5d 00       		.sleb128 0
 3407 0a5e 0D       		.uleb128 0xd
 3408 0a5f 01       		.uleb128 0x1
 3409 0a60 50       		.byte	0x50
 3410 0a61 02       		.uleb128 0x2
 3411 0a62 76       		.byte	0x76
 3412 0a63 00       		.sleb128 0
 3413 0a64 00       		.byte	0
 3414 0a65 0C       		.uleb128 0xc
 3415 0a66 5E000000 		.4byte	.LVL197
 3416 0a6a 8B090000 		.4byte	0x98b
 3417 0a6e 840A0000 		.4byte	0xa84
ARM GAS  C:\Users\kbuchi\AppData\Local\Temp\ccOUPaAd.s 			page 104


 3418 0a72 0D       		.uleb128 0xd
 3419 0a73 01       		.uleb128 0x1
 3420 0a74 52       		.byte	0x52
 3421 0a75 01       		.uleb128 0x1
 3422 0a76 30       		.byte	0x30
 3423 0a77 0D       		.uleb128 0xd
 3424 0a78 01       		.uleb128 0x1
 3425 0a79 51       		.byte	0x51
 3426 0a7a 02       		.uleb128 0x2
 3427 0a7b 74       		.byte	0x74
 3428 0a7c 00       		.sleb128 0
 3429 0a7d 0D       		.uleb128 0xd
 3430 0a7e 01       		.uleb128 0x1
 3431 0a7f 50       		.byte	0x50
 3432 0a80 02       		.uleb128 0x2
 3433 0a81 76       		.byte	0x76
 3434 0a82 00       		.sleb128 0
 3435 0a83 00       		.byte	0
 3436 0a84 0F       		.uleb128 0xf
 3437 0a85 7C000000 		.4byte	.LVL199
 3438 0a89 60070000 		.4byte	0x760
 3439 0a8d 00       		.byte	0
 3440 0a8e 11       		.uleb128 0x11
 3441 0a8f 3C060000 		.4byte	.LASF76
 3442 0a93 01       		.byte	0x1
 3443 0a94 2907     		.2byte	0x729
 3444 0a96 81000000 		.4byte	0x81
 3445 0a9a 00000000 		.4byte	.LFB60
 3446 0a9e 0C000000 		.4byte	.LFE60-.LFB60
 3447 0aa2 01       		.uleb128 0x1
 3448 0aa3 9C       		.byte	0x9c
 3449 0aa4 B90A0000 		.4byte	0xab9
 3450 0aa8 12       		.uleb128 0x12
 3451 0aa9 9A040000 		.4byte	.LASF24
 3452 0aad 01       		.byte	0x1
 3453 0aae 2907     		.2byte	0x729
 3454 0ab0 81000000 		.4byte	0x81
 3455 0ab4 D4090000 		.4byte	.LLST61
 3456 0ab8 00       		.byte	0
 3457 0ab9 0A       		.uleb128 0xa
 3458 0aba 05010000 		.4byte	.LASF77
 3459 0abe 01       		.byte	0x1
 3460 0abf 4807     		.2byte	0x748
 3461 0ac1 00000000 		.4byte	.LFB61
 3462 0ac5 0C000000 		.4byte	.LFE61-.LFB61
 3463 0ac9 01       		.uleb128 0x1
 3464 0aca 9C       		.byte	0x9c
 3465 0acb EC0A0000 		.4byte	0xaec
 3466 0acf 13       		.uleb128 0x13
 3467 0ad0 9A040000 		.4byte	.LASF24
 3468 0ad4 01       		.byte	0x1
 3469 0ad5 4807     		.2byte	0x748
 3470 0ad7 81000000 		.4byte	0x81
 3471 0adb 01       		.uleb128 0x1
 3472 0adc 50       		.byte	0x50
 3473 0add 13       		.uleb128 0x13
 3474 0ade 0D070000 		.4byte	.LASF78
ARM GAS  C:\Users\kbuchi\AppData\Local\Temp\ccOUPaAd.s 			page 105


 3475 0ae2 01       		.byte	0x1
 3476 0ae3 4807     		.2byte	0x748
 3477 0ae5 81000000 		.4byte	0x81
 3478 0ae9 01       		.uleb128 0x1
 3479 0aea 51       		.byte	0x51
 3480 0aeb 00       		.byte	0
 3481 0aec 11       		.uleb128 0x11
 3482 0aed F9070000 		.4byte	.LASF79
 3483 0af1 01       		.byte	0x1
 3484 0af2 6807     		.2byte	0x768
 3485 0af4 81000000 		.4byte	0x81
 3486 0af8 00000000 		.4byte	.LFB62
 3487 0afc 0C000000 		.4byte	.LFE62-.LFB62
 3488 0b00 01       		.uleb128 0x1
 3489 0b01 9C       		.byte	0x9c
 3490 0b02 170B0000 		.4byte	0xb17
 3491 0b06 12       		.uleb128 0x12
 3492 0b07 9A040000 		.4byte	.LASF24
 3493 0b0b 01       		.byte	0x1
 3494 0b0c 6807     		.2byte	0x768
 3495 0b0e 81000000 		.4byte	0x81
 3496 0b12 F5090000 		.4byte	.LLST62
 3497 0b16 00       		.byte	0
 3498 0b17 0A       		.uleb128 0xa
 3499 0b18 F0050000 		.4byte	.LASF80
 3500 0b1c 01       		.byte	0x1
 3501 0b1d 8707     		.2byte	0x787
 3502 0b1f 00000000 		.4byte	.LFB63
 3503 0b23 0C000000 		.4byte	.LFE63-.LFB63
 3504 0b27 01       		.uleb128 0x1
 3505 0b28 9C       		.byte	0x9c
 3506 0b29 4A0B0000 		.4byte	0xb4a
 3507 0b2d 13       		.uleb128 0x13
 3508 0b2e 9A040000 		.4byte	.LASF24
 3509 0b32 01       		.byte	0x1
 3510 0b33 8707     		.2byte	0x787
 3511 0b35 81000000 		.4byte	0x81
 3512 0b39 01       		.uleb128 0x1
 3513 0b3a 50       		.byte	0x50
 3514 0b3b 13       		.uleb128 0x13
 3515 0b3c 11030000 		.4byte	.LASF81
 3516 0b40 01       		.byte	0x1
 3517 0b41 8707     		.2byte	0x787
 3518 0b43 81000000 		.4byte	0x81
 3519 0b47 01       		.uleb128 0x1
 3520 0b48 51       		.byte	0x51
 3521 0b49 00       		.byte	0
 3522 0b4a 11       		.uleb128 0x11
 3523 0b4b 060A0000 		.4byte	.LASF82
 3524 0b4f 01       		.byte	0x1
 3525 0b50 A607     		.2byte	0x7a6
 3526 0b52 81000000 		.4byte	0x81
 3527 0b56 00000000 		.4byte	.LFB64
 3528 0b5a 0C000000 		.4byte	.LFE64-.LFB64
 3529 0b5e 01       		.uleb128 0x1
 3530 0b5f 9C       		.byte	0x9c
 3531 0b60 750B0000 		.4byte	0xb75
ARM GAS  C:\Users\kbuchi\AppData\Local\Temp\ccOUPaAd.s 			page 106


 3532 0b64 12       		.uleb128 0x12
 3533 0b65 9A040000 		.4byte	.LASF24
 3534 0b69 01       		.byte	0x1
 3535 0b6a A607     		.2byte	0x7a6
 3536 0b6c 81000000 		.4byte	0x81
 3537 0b70 160A0000 		.4byte	.LLST63
 3538 0b74 00       		.byte	0
 3539 0b75 0A       		.uleb128 0xa
 3540 0b76 4D090000 		.4byte	.LASF83
 3541 0b7a 01       		.byte	0x1
 3542 0b7b C107     		.2byte	0x7c1
 3543 0b7d 00000000 		.4byte	.LFB65
 3544 0b81 0C000000 		.4byte	.LFE65-.LFB65
 3545 0b85 01       		.uleb128 0x1
 3546 0b86 9C       		.byte	0x9c
 3547 0b87 A80B0000 		.4byte	0xba8
 3548 0b8b 13       		.uleb128 0x13
 3549 0b8c 9A040000 		.4byte	.LASF24
 3550 0b90 01       		.byte	0x1
 3551 0b91 C107     		.2byte	0x7c1
 3552 0b93 81000000 		.4byte	0x81
 3553 0b97 01       		.uleb128 0x1
 3554 0b98 50       		.byte	0x50
 3555 0b99 13       		.uleb128 0x13
 3556 0b9a 84080000 		.4byte	.LASF84
 3557 0b9e 01       		.byte	0x1
 3558 0b9f C107     		.2byte	0x7c1
 3559 0ba1 81000000 		.4byte	0x81
 3560 0ba5 01       		.uleb128 0x1
 3561 0ba6 51       		.byte	0x51
 3562 0ba7 00       		.byte	0
 3563 0ba8 11       		.uleb128 0x11
 3564 0ba9 92090000 		.4byte	.LASF85
 3565 0bad 01       		.byte	0x1
 3566 0bae DE07     		.2byte	0x7de
 3567 0bb0 81000000 		.4byte	0x81
 3568 0bb4 00000000 		.4byte	.LFB66
 3569 0bb8 0C000000 		.4byte	.LFE66-.LFB66
 3570 0bbc 01       		.uleb128 0x1
 3571 0bbd 9C       		.byte	0x9c
 3572 0bbe D30B0000 		.4byte	0xbd3
 3573 0bc2 12       		.uleb128 0x12
 3574 0bc3 9A040000 		.4byte	.LASF24
 3575 0bc7 01       		.byte	0x1
 3576 0bc8 DE07     		.2byte	0x7de
 3577 0bca 81000000 		.4byte	0x81
 3578 0bce 370A0000 		.4byte	.LLST64
 3579 0bd2 00       		.byte	0
 3580 0bd3 0A       		.uleb128 0xa
 3581 0bd4 52010000 		.4byte	.LASF86
 3582 0bd8 01       		.byte	0x1
 3583 0bd9 FB07     		.2byte	0x7fb
 3584 0bdb 00000000 		.4byte	.LFB67
 3585 0bdf 0C000000 		.4byte	.LFE67-.LFB67
 3586 0be3 01       		.uleb128 0x1
 3587 0be4 9C       		.byte	0x9c
 3588 0be5 060C0000 		.4byte	0xc06
ARM GAS  C:\Users\kbuchi\AppData\Local\Temp\ccOUPaAd.s 			page 107


 3589 0be9 13       		.uleb128 0x13
 3590 0bea 9A040000 		.4byte	.LASF24
 3591 0bee 01       		.byte	0x1
 3592 0bef FB07     		.2byte	0x7fb
 3593 0bf1 81000000 		.4byte	0x81
 3594 0bf5 01       		.uleb128 0x1
 3595 0bf6 50       		.byte	0x50
 3596 0bf7 13       		.uleb128 0x13
 3597 0bf8 5E080000 		.4byte	.LASF87
 3598 0bfc 01       		.byte	0x1
 3599 0bfd FB07     		.2byte	0x7fb
 3600 0bff 81000000 		.4byte	0x81
 3601 0c03 01       		.uleb128 0x1
 3602 0c04 51       		.byte	0x51
 3603 0c05 00       		.byte	0
 3604 0c06 10       		.uleb128 0x10
 3605 0c07 54050000 		.4byte	.LASF88
 3606 0c0b 01       		.byte	0x1
 3607 0c0c 1808     		.2byte	0x818
 3608 0c0e 81000000 		.4byte	0x81
 3609 0c12 00000000 		.4byte	.LFB68
 3610 0c16 14000000 		.4byte	.LFE68-.LFB68
 3611 0c1a 01       		.uleb128 0x1
 3612 0c1b 9C       		.byte	0x9c
 3613 0c1c 0A       		.uleb128 0xa
 3614 0c1d BB060000 		.4byte	.LASF89
 3615 0c21 01       		.byte	0x1
 3616 0c22 3608     		.2byte	0x836
 3617 0c24 00000000 		.4byte	.LFB69
 3618 0c28 28000000 		.4byte	.LFE69-.LFB69
 3619 0c2c 01       		.uleb128 0x1
 3620 0c2d 9C       		.byte	0x9c
 3621 0c2e 410C0000 		.4byte	0xc41
 3622 0c32 13       		.uleb128 0x13
 3623 0c33 33080000 		.4byte	.LASF90
 3624 0c37 01       		.byte	0x1
 3625 0c38 3608     		.2byte	0x836
 3626 0c3a 81000000 		.4byte	0x81
 3627 0c3e 01       		.uleb128 0x1
 3628 0c3f 50       		.byte	0x50
 3629 0c40 00       		.byte	0
 3630 0c41 11       		.uleb128 0x11
 3631 0c42 E9060000 		.4byte	.LASF91
 3632 0c46 01       		.byte	0x1
 3633 0c47 5E08     		.2byte	0x85e
 3634 0c49 76000000 		.4byte	0x76
 3635 0c4d 00000000 		.4byte	.LFB70
 3636 0c51 2A000000 		.4byte	.LFE70-.LFB70
 3637 0c55 01       		.uleb128 0x1
 3638 0c56 9C       		.byte	0x9c
 3639 0c57 B90C0000 		.4byte	0xcb9
 3640 0c5b 12       		.uleb128 0x12
 3641 0c5c 9A040000 		.4byte	.LASF24
 3642 0c60 01       		.byte	0x1
 3643 0c61 5E08     		.2byte	0x85e
 3644 0c63 81000000 		.4byte	0x81
 3645 0c67 580A0000 		.4byte	.LLST65
ARM GAS  C:\Users\kbuchi\AppData\Local\Temp\ccOUPaAd.s 			page 108


 3646 0c6b 0B       		.uleb128 0xb
 3647 0c6c 90040000 		.4byte	.LASF92
 3648 0c70 01       		.byte	0x1
 3649 0c71 6008     		.2byte	0x860
 3650 0c73 81000000 		.4byte	0x81
 3651 0c77 840A0000 		.4byte	.LLST66
 3652 0c7b 0B       		.uleb128 0xb
 3653 0c7c 2E010000 		.4byte	.LASF93
 3654 0c80 01       		.byte	0x1
 3655 0c81 6108     		.2byte	0x861
 3656 0c83 81000000 		.4byte	0x81
 3657 0c87 A30A0000 		.4byte	.LLST67
 3658 0c8b 0C       		.uleb128 0xc
 3659 0c8c 10000000 		.4byte	.LVL218
 3660 0c90 80080000 		.4byte	0x880
 3661 0c94 9F0C0000 		.4byte	0xc9f
 3662 0c98 0D       		.uleb128 0xd
 3663 0c99 01       		.uleb128 0x1
 3664 0c9a 50       		.byte	0x50
 3665 0c9b 02       		.uleb128 0x2
 3666 0c9c 76       		.byte	0x76
 3667 0c9d 00       		.sleb128 0
 3668 0c9e 00       		.byte	0
 3669 0c9f 0F       		.uleb128 0xf
 3670 0ca0 14000000 		.4byte	.LVL219
 3671 0ca4 15020000 		.4byte	0x215
 3672 0ca8 0E       		.uleb128 0xe
 3673 0ca9 1E000000 		.4byte	.LVL220
 3674 0cad 2B020000 		.4byte	0x22b
 3675 0cb1 0D       		.uleb128 0xd
 3676 0cb2 01       		.uleb128 0x1
 3677 0cb3 50       		.byte	0x50
 3678 0cb4 02       		.uleb128 0x2
 3679 0cb5 76       		.byte	0x76
 3680 0cb6 00       		.sleb128 0
 3681 0cb7 00       		.byte	0
 3682 0cb8 00       		.byte	0
 3683 0cb9 0A       		.uleb128 0xa
 3684 0cba A8070000 		.4byte	.LASF94
 3685 0cbe 01       		.byte	0x1
 3686 0cbf C808     		.2byte	0x8c8
 3687 0cc1 00000000 		.4byte	.LFB71
 3688 0cc5 0C000000 		.4byte	.LFE71-.LFB71
 3689 0cc9 01       		.uleb128 0x1
 3690 0cca 9C       		.byte	0x9c
 3691 0ccb EC0C0000 		.4byte	0xcec
 3692 0ccf 13       		.uleb128 0x13
 3693 0cd0 9A040000 		.4byte	.LASF24
 3694 0cd4 01       		.byte	0x1
 3695 0cd5 C808     		.2byte	0x8c8
 3696 0cd7 81000000 		.4byte	0x81
 3697 0cdb 01       		.uleb128 0x1
 3698 0cdc 50       		.byte	0x50
 3699 0cdd 13       		.uleb128 0x13
 3700 0cde 79030000 		.4byte	.LASF39
 3701 0ce2 01       		.byte	0x1
 3702 0ce3 C808     		.2byte	0x8c8
ARM GAS  C:\Users\kbuchi\AppData\Local\Temp\ccOUPaAd.s 			page 109


 3703 0ce5 81000000 		.4byte	0x81
 3704 0ce9 01       		.uleb128 0x1
 3705 0cea 51       		.byte	0x51
 3706 0ceb 00       		.byte	0
 3707 0cec 0A       		.uleb128 0xa
 3708 0ced F7020000 		.4byte	.LASF95
 3709 0cf1 01       		.byte	0x1
 3710 0cf2 E508     		.2byte	0x8e5
 3711 0cf4 00000000 		.4byte	.LFB72
 3712 0cf8 44000000 		.4byte	.LFE72-.LFB72
 3713 0cfc 01       		.uleb128 0x1
 3714 0cfd 9C       		.byte	0x9c
 3715 0cfe 6F0D0000 		.4byte	0xd6f
 3716 0d02 13       		.uleb128 0x13
 3717 0d03 C9000000 		.4byte	.LASF96
 3718 0d07 01       		.byte	0x1
 3719 0d08 E508     		.2byte	0x8e5
 3720 0d0a 81000000 		.4byte	0x81
 3721 0d0e 01       		.uleb128 0x1
 3722 0d0f 50       		.byte	0x50
 3723 0d10 13       		.uleb128 0x13
 3724 0d11 440A0000 		.4byte	.LASF97
 3725 0d15 01       		.byte	0x1
 3726 0d16 E508     		.2byte	0x8e5
 3727 0d18 DD000000 		.4byte	0xdd
 3728 0d1c 01       		.uleb128 0x1
 3729 0d1d 51       		.byte	0x51
 3730 0d1e 0B       		.uleb128 0xb
 3731 0d1f CC050000 		.4byte	.LASF98
 3732 0d23 01       		.byte	0x1
 3733 0d24 E708     		.2byte	0x8e7
 3734 0d26 81000000 		.4byte	0x81
 3735 0d2a C20A0000 		.4byte	.LLST68
 3736 0d2e 0B       		.uleb128 0xb
 3737 0d2f 50080000 		.4byte	.LASF99
 3738 0d33 01       		.byte	0x1
 3739 0d34 E808     		.2byte	0x8e8
 3740 0d36 81000000 		.4byte	0x81
 3741 0d3a E10A0000 		.4byte	.LLST69
 3742 0d3e 0B       		.uleb128 0xb
 3743 0d3f 72060000 		.4byte	.LASF75
 3744 0d43 01       		.byte	0x1
 3745 0d44 E908     		.2byte	0x8e9
 3746 0d46 81000000 		.4byte	0x81
 3747 0d4a 200B0000 		.4byte	.LLST70
 3748 0d4e 0B       		.uleb128 0xb
 3749 0d4f D9030000 		.4byte	.LASF74
 3750 0d53 01       		.byte	0x1
 3751 0d54 EA08     		.2byte	0x8ea
 3752 0d56 81000000 		.4byte	0x81
 3753 0d5a 330B0000 		.4byte	.LLST71
 3754 0d5e 0B       		.uleb128 0xb
 3755 0d5f DC060000 		.4byte	.LASF100
 3756 0d63 01       		.byte	0x1
 3757 0d64 EB08     		.2byte	0x8eb
 3758 0d66 81000000 		.4byte	0x81
 3759 0d6a 580B0000 		.4byte	.LLST72
ARM GAS  C:\Users\kbuchi\AppData\Local\Temp\ccOUPaAd.s 			page 110


 3760 0d6e 00       		.byte	0
 3761 0d6f 17       		.uleb128 0x17
 3762 0d70 AF090000 		.4byte	.LASF101
 3763 0d74 01       		.byte	0x1
 3764 0d75 23       		.byte	0x23
 3765 0d76 6B000000 		.4byte	0x6b
 3766 0d7a 05       		.uleb128 0x5
 3767 0d7b 03       		.byte	0x3
 3768 0d7c 00000000 		.4byte	CapSense_lowLevelTuningDone
 3769 0d80 18       		.uleb128 0x18
 3770 0d81 6B000000 		.4byte	0x6b
 3771 0d85 900D0000 		.4byte	0xd90
 3772 0d89 19       		.uleb128 0x19
 3773 0d8a D6000000 		.4byte	0xd6
 3774 0d8e 00       		.byte	0
 3775 0d8f 00       		.byte	0
 3776 0d90 17       		.uleb128 0x17
 3777 0d91 11000000 		.4byte	.LASF102
 3778 0d95 01       		.byte	0x1
 3779 0d96 24       		.byte	0x24
 3780 0d97 800D0000 		.4byte	0xd80
 3781 0d9b 05       		.uleb128 0x5
 3782 0d9c 03       		.byte	0x3
 3783 0d9d 00000000 		.4byte	scanSpeedTbl
 3784 0da1 17       		.uleb128 0x17
 3785 0da2 30000000 		.4byte	.LASF103
 3786 0da6 01       		.byte	0x1
 3787 0da7 2C       		.byte	0x2c
 3788 0da8 AD000000 		.4byte	0xad
 3789 0dac 05       		.uleb128 0x5
 3790 0dad 03       		.byte	0x3
 3791 0dae 00000000 		.4byte	CapSense_csdStatusVar
 3792 0db2 17       		.uleb128 0x17
 3793 0db3 7F020000 		.4byte	.LASF104
 3794 0db7 01       		.byte	0x1
 3795 0db8 2D       		.byte	0x2d
 3796 0db9 AD000000 		.4byte	0xad
 3797 0dbd 05       		.uleb128 0x5
 3798 0dbe 03       		.byte	0x3
 3799 0dbf 00000000 		.4byte	CapSense_sensorIndex
 3800 0dc3 18       		.uleb128 0x18
 3801 0dc4 76000000 		.4byte	0x76
 3802 0dc8 D30D0000 		.4byte	0xdd3
 3803 0dcc 19       		.uleb128 0x19
 3804 0dcd D6000000 		.4byte	0xd6
 3805 0dd1 04       		.byte	0x4
 3806 0dd2 00       		.byte	0
 3807 0dd3 17       		.uleb128 0x17
 3808 0dd4 A1040000 		.4byte	.LASF105
 3809 0dd8 01       		.byte	0x1
 3810 0dd9 30       		.byte	0x30
 3811 0dda C30D0000 		.4byte	0xdc3
 3812 0dde 05       		.uleb128 0x5
 3813 0ddf 03       		.byte	0x3
 3814 0de0 00000000 		.4byte	CapSense_sensorRaw
 3815 0de4 18       		.uleb128 0x18
 3816 0de5 6B000000 		.4byte	0x6b
ARM GAS  C:\Users\kbuchi\AppData\Local\Temp\ccOUPaAd.s 			page 111


 3817 0de9 F40D0000 		.4byte	0xdf4
 3818 0ded 19       		.uleb128 0x19
 3819 0dee D6000000 		.4byte	0xd6
 3820 0df2 04       		.byte	0x4
 3821 0df3 00       		.byte	0
 3822 0df4 17       		.uleb128 0x17
 3823 0df5 10060000 		.4byte	.LASF106
 3824 0df9 01       		.byte	0x1
 3825 0dfa 3A       		.byte	0x3a
 3826 0dfb E40D0000 		.4byte	0xde4
 3827 0dff 05       		.uleb128 0x5
 3828 0e00 03       		.byte	0x3
 3829 0e01 00000000 		.4byte	CapSense_unscannedSnsDriveMode
 3830 0e05 17       		.uleb128 0x17
 3831 0e06 88070000 		.4byte	.LASF107
 3832 0e0a 01       		.byte	0x1
 3833 0e0b 3D       		.byte	0x3d
 3834 0e0c 800D0000 		.4byte	0xd80
 3835 0e10 05       		.uleb128 0x5
 3836 0e11 03       		.byte	0x3
 3837 0e12 00000000 		.4byte	CapSense_sensorEnableMaskBackup
 3838 0e16 17       		.uleb128 0x17
 3839 0e17 19080000 		.4byte	.LASF108
 3840 0e1b 01       		.byte	0x1
 3841 0e1c 40       		.byte	0x40
 3842 0e1d 800D0000 		.4byte	0xd80
 3843 0e21 05       		.uleb128 0x5
 3844 0e22 03       		.byte	0x3
 3845 0e23 00000000 		.4byte	CapSense_sensorEnableMask
 3846 0e27 17       		.uleb128 0x17
 3847 0e28 86050000 		.4byte	.LASF109
 3848 0e2c 01       		.byte	0x1
 3849 0e2d 63       		.byte	0x63
 3850 0e2e E40D0000 		.4byte	0xde4
 3851 0e32 05       		.uleb128 0x5
 3852 0e33 03       		.byte	0x3
 3853 0e34 00000000 		.4byte	CapSense_modulationIDAC
 3854 0e38 17       		.uleb128 0x17
 3855 0e39 46000000 		.4byte	.LASF110
 3856 0e3d 01       		.byte	0x1
 3857 0e3e 64       		.byte	0x64
 3858 0e3f E40D0000 		.4byte	0xde4
 3859 0e43 05       		.uleb128 0x5
 3860 0e44 03       		.byte	0x3
 3861 0e45 00000000 		.4byte	CapSense_compensationIDAC
 3862 0e49 18       		.uleb128 0x18
 3863 0e4a 81000000 		.4byte	0x81
 3864 0e4e 590E0000 		.4byte	0xe59
 3865 0e52 19       		.uleb128 0x19
 3866 0e53 D6000000 		.4byte	0xd6
 3867 0e57 00       		.byte	0
 3868 0e58 00       		.byte	0
 3869 0e59 17       		.uleb128 0x17
 3870 0e5a 2D050000 		.4byte	.LASF111
 3871 0e5e 01       		.byte	0x1
 3872 0e5f 66       		.byte	0x66
 3873 0e60 490E0000 		.4byte	0xe49
ARM GAS  C:\Users\kbuchi\AppData\Local\Temp\ccOUPaAd.s 			page 112


 3874 0e64 05       		.uleb128 0x5
 3875 0e65 03       		.byte	0x3
 3876 0e66 00000000 		.4byte	CapSense_widgetResolution
 3877 0e6a 17       		.uleb128 0x17
 3878 0e6b 4D030000 		.4byte	.LASF112
 3879 0e6f 01       		.byte	0x1
 3880 0e70 6A       		.byte	0x6a
 3881 0e71 E40D0000 		.4byte	0xde4
 3882 0e75 05       		.uleb128 0x5
 3883 0e76 03       		.byte	0x3
 3884 0e77 00000000 		.4byte	CapSense_senseClkDividerVal
 3885 0e7b 17       		.uleb128 0x17
 3886 0e7c 98000000 		.4byte	.LASF113
 3887 0e80 01       		.byte	0x1
 3888 0e81 6B       		.byte	0x6b
 3889 0e82 E40D0000 		.4byte	0xde4
 3890 0e86 05       		.uleb128 0x5
 3891 0e87 03       		.byte	0x3
 3892 0e88 00000000 		.4byte	CapSense_sampleClkDividerVal
 3893 0e8c 17       		.uleb128 0x17
 3894 0e8d B3020000 		.4byte	.LASF114
 3895 0e91 01       		.byte	0x1
 3896 0e92 6D       		.byte	0x6d
 3897 0e93 9D0E0000 		.4byte	0xe9d
 3898 0e97 05       		.uleb128 0x5
 3899 0e98 03       		.byte	0x3
 3900 0e99 00000000 		.4byte	CapSense_widgetNumber
 3901 0e9d 09       		.uleb128 0x9
 3902 0e9e E40D0000 		.4byte	0xde4
 3903 0ea2 18       		.uleb128 0x18
 3904 0ea3 B20E0000 		.4byte	0xeb2
 3905 0ea7 B20E0000 		.4byte	0xeb2
 3906 0eab 19       		.uleb128 0x19
 3907 0eac D6000000 		.4byte	0xd6
 3908 0eb0 04       		.byte	0x4
 3909 0eb1 00       		.byte	0
 3910 0eb2 07       		.uleb128 0x7
 3911 0eb3 04       		.byte	0x4
 3912 0eb4 B80E0000 		.4byte	0xeb8
 3913 0eb8 06       		.uleb128 0x6
 3914 0eb9 48000000 		.4byte	0x48
 3915 0ebd 17       		.uleb128 0x17
 3916 0ebe 08020000 		.4byte	.LASF115
 3917 0ec2 01       		.byte	0x1
 3918 0ec3 73       		.byte	0x73
 3919 0ec4 CE0E0000 		.4byte	0xece
 3920 0ec8 05       		.uleb128 0x5
 3921 0ec9 03       		.byte	0x3
 3922 0eca 00000000 		.4byte	CapSense_prtSelTbl
 3923 0ece 09       		.uleb128 0x9
 3924 0ecf A20E0000 		.4byte	0xea2
 3925 0ed3 17       		.uleb128 0x17
 3926 0ed4 C9020000 		.4byte	.LASF116
 3927 0ed8 01       		.byte	0x1
 3928 0ed9 86       		.byte	0x86
 3929 0eda E40E0000 		.4byte	0xee4
 3930 0ede 05       		.uleb128 0x5
ARM GAS  C:\Users\kbuchi\AppData\Local\Temp\ccOUPaAd.s 			page 113


 3931 0edf 03       		.byte	0x3
 3932 0ee0 00000000 		.4byte	CapSense_prtCfgTbl
 3933 0ee4 09       		.uleb128 0x9
 3934 0ee5 A20E0000 		.4byte	0xea2
 3935 0ee9 17       		.uleb128 0x17
 3936 0eea 31020000 		.4byte	.LASF117
 3937 0eee 01       		.byte	0x1
 3938 0eef 99       		.byte	0x99
 3939 0ef0 FA0E0000 		.4byte	0xefa
 3940 0ef4 05       		.uleb128 0x5
 3941 0ef5 03       		.byte	0x3
 3942 0ef6 00000000 		.4byte	CapSense_prtDRTbl
 3943 0efa 09       		.uleb128 0x9
 3944 0efb A20E0000 		.4byte	0xea2
 3945 0eff 17       		.uleb128 0x17
 3946 0f00 FB040000 		.4byte	.LASF118
 3947 0f04 01       		.byte	0x1
 3948 0f05 43       		.byte	0x43
 3949 0f06 A20E0000 		.4byte	0xea2
 3950 0f0a 05       		.uleb128 0x5
 3951 0f0b 03       		.byte	0x3
 3952 0f0c 00000000 		.4byte	CapSense_pcTable
 3953 0f10 17       		.uleb128 0x17
 3954 0f11 3D080000 		.4byte	.LASF119
 3955 0f15 01       		.byte	0x1
 3956 0f16 4B       		.byte	0x4b
 3957 0f17 210F0000 		.4byte	0xf21
 3958 0f1b 05       		.uleb128 0x5
 3959 0f1c 03       		.byte	0x3
 3960 0f1d 00000000 		.4byte	CapSense_portTable
 3961 0f21 09       		.uleb128 0x9
 3962 0f22 E40D0000 		.4byte	0xde4
 3963 0f26 18       		.uleb128 0x18
 3964 0f27 81000000 		.4byte	0x81
 3965 0f2b 360F0000 		.4byte	0xf36
 3966 0f2f 19       		.uleb128 0x19
 3967 0f30 D6000000 		.4byte	0xd6
 3968 0f34 04       		.byte	0x4
 3969 0f35 00       		.byte	0
 3970 0f36 17       		.uleb128 0x17
 3971 0f37 78000000 		.4byte	.LASF120
 3972 0f3b 01       		.byte	0x1
 3973 0f3c 53       		.byte	0x53
 3974 0f3d 470F0000 		.4byte	0xf47
 3975 0f41 05       		.uleb128 0x5
 3976 0f42 03       		.byte	0x3
 3977 0f43 00000000 		.4byte	CapSense_maskTable
 3978 0f47 09       		.uleb128 0x9
 3979 0f48 260F0000 		.4byte	0xf26
 3980 0f4c 17       		.uleb128 0x17
 3981 0f4d B7050000 		.4byte	.LASF121
 3982 0f51 01       		.byte	0x1
 3983 0f52 5B       		.byte	0x5b
 3984 0f53 5D0F0000 		.4byte	0xf5d
 3985 0f57 05       		.uleb128 0x5
 3986 0f58 03       		.byte	0x3
 3987 0f59 00000000 		.4byte	CapSense_pinShiftTbl
ARM GAS  C:\Users\kbuchi\AppData\Local\Temp\ccOUPaAd.s 			page 114


 3988 0f5d 09       		.uleb128 0x9
 3989 0f5e E40D0000 		.4byte	0xde4
 3990 0f62 1A       		.uleb128 0x1a
 3991 0f63 6F010000 		.4byte	.LASF122
 3992 0f67 03       		.byte	0x3
 3993 0f68 3A01     		.2byte	0x13a
 3994 0f6a 6E0F0000 		.4byte	0xf6e
 3995 0f6e 09       		.uleb128 0x9
 3996 0f6f 800D0000 		.4byte	0xd80
 3997 0f73 1A       		.uleb128 0x1a
 3998 0f74 77040000 		.4byte	.LASF123
 3999 0f78 03       		.byte	0x3
 4000 0f79 3B01     		.2byte	0x13b
 4001 0f7b 7F0F0000 		.4byte	0xf7f
 4002 0f7f 09       		.uleb128 0x9
 4003 0f80 800D0000 		.4byte	0xd80
 4004 0f84 17       		.uleb128 0x17
 4005 0f85 C4010000 		.4byte	.LASF124
 4006 0f89 01       		.byte	0x1
 4007 0f8a 36       		.byte	0x36
 4008 0f8b 6B000000 		.4byte	0x6b
 4009 0f8f 05       		.uleb128 0x5
 4010 0f90 03       		.byte	0x3
 4011 0f91 00000000 		.4byte	CapSense_csdTrim1
 4012 0f95 1B       		.uleb128 0x1b
 4013 0f96 21010000 		.4byte	.LASF125
 4014 0f9a 04       		.byte	0x4
 4015 0f9b 4E       		.byte	0x4e
 4016 0f9c A60F0000 		.4byte	0xfa6
 4017 0fa0 1C       		.uleb128 0x1c
 4018 0fa1 6B000000 		.4byte	0x6b
 4019 0fa5 00       		.byte	0
 4020 0fa6 1D       		.uleb128 0x1d
 4021 0fa7 13050000 		.4byte	.LASF139
 4022 0fab 04       		.byte	0x4
 4023 0fac 46       		.byte	0x46
 4024 0fad C3000000 		.4byte	0xc3
 4025 0fb1 C00F0000 		.4byte	0xfc0
 4026 0fb5 1C       		.uleb128 0x1c
 4027 0fb6 6B000000 		.4byte	0x6b
 4028 0fba 1C       		.uleb128 0x1c
 4029 0fbb C3000000 		.4byte	0xc3
 4030 0fbf 00       		.byte	0
 4031 0fc0 1B       		.uleb128 0x1b
 4032 0fc1 00000000 		.4byte	.LASF126
 4033 0fc5 04       		.byte	0x4
 4034 0fc6 49       		.byte	0x49
 4035 0fc7 D60F0000 		.4byte	0xfd6
 4036 0fcb 1C       		.uleb128 0x1c
 4037 0fcc 6B000000 		.4byte	0x6b
 4038 0fd0 1C       		.uleb128 0x1c
 4039 0fd1 6B000000 		.4byte	0x6b
 4040 0fd5 00       		.byte	0
 4041 0fd6 1E       		.uleb128 0x1e
 4042 0fd7 A4060000 		.4byte	.LASF127
 4043 0fdb 05       		.byte	0x5
 4044 0fdc 27       		.byte	0x27
ARM GAS  C:\Users\kbuchi\AppData\Local\Temp\ccOUPaAd.s 			page 115


 4045 0fdd 1E       		.uleb128 0x1e
 4046 0fde 6C080000 		.4byte	.LASF128
 4047 0fe2 06       		.byte	0x6
 4048 0fe3 27       		.byte	0x27
 4049 0fe4 1B       		.uleb128 0x1b
 4050 0fe5 C9070000 		.4byte	.LASF129
 4051 0fe9 06       		.byte	0x6
 4052 0fea 29       		.byte	0x29
 4053 0feb FA0F0000 		.4byte	0xffa
 4054 0fef 1C       		.uleb128 0x1c
 4055 0ff0 76000000 		.4byte	0x76
 4056 0ff4 1C       		.uleb128 0x1c
 4057 0ff5 6B000000 		.4byte	0x6b
 4058 0ff9 00       		.byte	0
 4059 0ffa 1B       		.uleb128 0x1b
 4060 0ffb CB090000 		.4byte	.LASF130
 4061 0fff 05       		.byte	0x5
 4062 1000 29       		.byte	0x29
 4063 1001 10100000 		.4byte	0x1010
 4064 1005 1C       		.uleb128 0x1c
 4065 1006 76000000 		.4byte	0x76
 4066 100a 1C       		.uleb128 0x1c
 4067 100b 6B000000 		.4byte	0x6b
 4068 100f 00       		.byte	0
 4069 1010 1E       		.uleb128 0x1e
 4070 1011 60000000 		.4byte	.LASF131
 4071 1015 05       		.byte	0x5
 4072 1016 23       		.byte	0x23
 4073 1017 1E       		.uleb128 0x1e
 4074 1018 E4080000 		.4byte	.LASF132
 4075 101c 06       		.byte	0x6
 4076 101d 23       		.byte	0x23
 4077 101e 1B       		.uleb128 0x1b
 4078 101f FA090000 		.4byte	.LASF133
 4079 1023 04       		.byte	0x4
 4080 1024 4C       		.byte	0x4c
 4081 1025 2F100000 		.4byte	0x102f
 4082 1029 1C       		.uleb128 0x1c
 4083 102a 6B000000 		.4byte	0x6b
 4084 102e 00       		.byte	0
 4085 102f 1F       		.uleb128 0x1f
 4086 1030 210A0000 		.4byte	.LASF140
 4087 1034 04       		.byte	0x4
 4088 1035 5E       		.byte	0x5e
 4089 1036 6B000000 		.4byte	0x6b
 4090 103a 1B       		.uleb128 0x1b
 4091 103b B9040000 		.4byte	.LASF134
 4092 103f 04       		.byte	0x4
 4093 1040 5F       		.byte	0x5f
 4094 1041 4B100000 		.4byte	0x104b
 4095 1045 1C       		.uleb128 0x1c
 4096 1046 6B000000 		.4byte	0x6b
 4097 104a 00       		.byte	0
 4098 104b 20       		.uleb128 0x20
 4099 104c 04090000 		.4byte	.LASF135
 4100 1050 07       		.byte	0x7
 4101 1051 CA03     		.2byte	0x3ca
ARM GAS  C:\Users\kbuchi\AppData\Local\Temp\ccOUPaAd.s 			page 116


 4102 1053 21       		.uleb128 0x21
 4103 1054 CF040000 		.4byte	.LASF141
 4104 1058 04       		.byte	0x4
 4105 1059 5A       		.byte	0x5a
 4106 105a 1C       		.uleb128 0x1c
 4107 105b 81000000 		.4byte	0x81
 4108 105f 00       		.byte	0
 4109 1060 00       		.byte	0
 4110              		.section	.debug_abbrev,"",%progbits
 4111              	.Ldebug_abbrev0:
 4112 0000 01       		.uleb128 0x1
 4113 0001 11       		.uleb128 0x11
 4114 0002 01       		.byte	0x1
 4115 0003 25       		.uleb128 0x25
 4116 0004 0E       		.uleb128 0xe
 4117 0005 13       		.uleb128 0x13
 4118 0006 0B       		.uleb128 0xb
 4119 0007 03       		.uleb128 0x3
 4120 0008 0E       		.uleb128 0xe
 4121 0009 1B       		.uleb128 0x1b
 4122 000a 0E       		.uleb128 0xe
 4123 000b 55       		.uleb128 0x55
 4124 000c 17       		.uleb128 0x17
 4125 000d 11       		.uleb128 0x11
 4126 000e 01       		.uleb128 0x1
 4127 000f 10       		.uleb128 0x10
 4128 0010 17       		.uleb128 0x17
 4129 0011 00       		.byte	0
 4130 0012 00       		.byte	0
 4131 0013 02       		.uleb128 0x2
 4132 0014 24       		.uleb128 0x24
 4133 0015 00       		.byte	0
 4134 0016 0B       		.uleb128 0xb
 4135 0017 0B       		.uleb128 0xb
 4136 0018 3E       		.uleb128 0x3e
 4137 0019 0B       		.uleb128 0xb
 4138 001a 03       		.uleb128 0x3
 4139 001b 0E       		.uleb128 0xe
 4140 001c 00       		.byte	0
 4141 001d 00       		.byte	0
 4142 001e 03       		.uleb128 0x3
 4143 001f 24       		.uleb128 0x24
 4144 0020 00       		.byte	0
 4145 0021 0B       		.uleb128 0xb
 4146 0022 0B       		.uleb128 0xb
 4147 0023 3E       		.uleb128 0x3e
 4148 0024 0B       		.uleb128 0xb
 4149 0025 03       		.uleb128 0x3
 4150 0026 08       		.uleb128 0x8
 4151 0027 00       		.byte	0
 4152 0028 00       		.byte	0
 4153 0029 04       		.uleb128 0x4
 4154 002a 16       		.uleb128 0x16
 4155 002b 00       		.byte	0
 4156 002c 03       		.uleb128 0x3
 4157 002d 0E       		.uleb128 0xe
 4158 002e 3A       		.uleb128 0x3a
ARM GAS  C:\Users\kbuchi\AppData\Local\Temp\ccOUPaAd.s 			page 117


 4159 002f 0B       		.uleb128 0xb
 4160 0030 3B       		.uleb128 0x3b
 4161 0031 0B       		.uleb128 0xb
 4162 0032 49       		.uleb128 0x49
 4163 0033 13       		.uleb128 0x13
 4164 0034 00       		.byte	0
 4165 0035 00       		.byte	0
 4166 0036 05       		.uleb128 0x5
 4167 0037 16       		.uleb128 0x16
 4168 0038 00       		.byte	0
 4169 0039 03       		.uleb128 0x3
 4170 003a 0E       		.uleb128 0xe
 4171 003b 3A       		.uleb128 0x3a
 4172 003c 0B       		.uleb128 0xb
 4173 003d 3B       		.uleb128 0x3b
 4174 003e 05       		.uleb128 0x5
 4175 003f 49       		.uleb128 0x49
 4176 0040 13       		.uleb128 0x13
 4177 0041 00       		.byte	0
 4178 0042 00       		.byte	0
 4179 0043 06       		.uleb128 0x6
 4180 0044 35       		.uleb128 0x35
 4181 0045 00       		.byte	0
 4182 0046 49       		.uleb128 0x49
 4183 0047 13       		.uleb128 0x13
 4184 0048 00       		.byte	0
 4185 0049 00       		.byte	0
 4186 004a 07       		.uleb128 0x7
 4187 004b 0F       		.uleb128 0xf
 4188 004c 00       		.byte	0
 4189 004d 0B       		.uleb128 0xb
 4190 004e 0B       		.uleb128 0xb
 4191 004f 49       		.uleb128 0x49
 4192 0050 13       		.uleb128 0x13
 4193 0051 00       		.byte	0
 4194 0052 00       		.byte	0
 4195 0053 08       		.uleb128 0x8
 4196 0054 15       		.uleb128 0x15
 4197 0055 00       		.byte	0
 4198 0056 27       		.uleb128 0x27
 4199 0057 19       		.uleb128 0x19
 4200 0058 00       		.byte	0
 4201 0059 00       		.byte	0
 4202 005a 09       		.uleb128 0x9
 4203 005b 26       		.uleb128 0x26
 4204 005c 00       		.byte	0
 4205 005d 49       		.uleb128 0x49
 4206 005e 13       		.uleb128 0x13
 4207 005f 00       		.byte	0
 4208 0060 00       		.byte	0
 4209 0061 0A       		.uleb128 0xa
 4210 0062 2E       		.uleb128 0x2e
 4211 0063 01       		.byte	0x1
 4212 0064 3F       		.uleb128 0x3f
 4213 0065 19       		.uleb128 0x19
 4214 0066 03       		.uleb128 0x3
 4215 0067 0E       		.uleb128 0xe
ARM GAS  C:\Users\kbuchi\AppData\Local\Temp\ccOUPaAd.s 			page 118


 4216 0068 3A       		.uleb128 0x3a
 4217 0069 0B       		.uleb128 0xb
 4218 006a 3B       		.uleb128 0x3b
 4219 006b 05       		.uleb128 0x5
 4220 006c 27       		.uleb128 0x27
 4221 006d 19       		.uleb128 0x19
 4222 006e 11       		.uleb128 0x11
 4223 006f 01       		.uleb128 0x1
 4224 0070 12       		.uleb128 0x12
 4225 0071 06       		.uleb128 0x6
 4226 0072 40       		.uleb128 0x40
 4227 0073 18       		.uleb128 0x18
 4228 0074 9742     		.uleb128 0x2117
 4229 0076 19       		.uleb128 0x19
 4230 0077 01       		.uleb128 0x1
 4231 0078 13       		.uleb128 0x13
 4232 0079 00       		.byte	0
 4233 007a 00       		.byte	0
 4234 007b 0B       		.uleb128 0xb
 4235 007c 34       		.uleb128 0x34
 4236 007d 00       		.byte	0
 4237 007e 03       		.uleb128 0x3
 4238 007f 0E       		.uleb128 0xe
 4239 0080 3A       		.uleb128 0x3a
 4240 0081 0B       		.uleb128 0xb
 4241 0082 3B       		.uleb128 0x3b
 4242 0083 05       		.uleb128 0x5
 4243 0084 49       		.uleb128 0x49
 4244 0085 13       		.uleb128 0x13
 4245 0086 02       		.uleb128 0x2
 4246 0087 17       		.uleb128 0x17
 4247 0088 00       		.byte	0
 4248 0089 00       		.byte	0
 4249 008a 0C       		.uleb128 0xc
 4250 008b 898201   		.uleb128 0x4109
 4251 008e 01       		.byte	0x1
 4252 008f 11       		.uleb128 0x11
 4253 0090 01       		.uleb128 0x1
 4254 0091 31       		.uleb128 0x31
 4255 0092 13       		.uleb128 0x13
 4256 0093 01       		.uleb128 0x1
 4257 0094 13       		.uleb128 0x13
 4258 0095 00       		.byte	0
 4259 0096 00       		.byte	0
 4260 0097 0D       		.uleb128 0xd
 4261 0098 8A8201   		.uleb128 0x410a
 4262 009b 00       		.byte	0
 4263 009c 02       		.uleb128 0x2
 4264 009d 18       		.uleb128 0x18
 4265 009e 9142     		.uleb128 0x2111
 4266 00a0 18       		.uleb128 0x18
 4267 00a1 00       		.byte	0
 4268 00a2 00       		.byte	0
 4269 00a3 0E       		.uleb128 0xe
 4270 00a4 898201   		.uleb128 0x4109
 4271 00a7 01       		.byte	0x1
 4272 00a8 11       		.uleb128 0x11
ARM GAS  C:\Users\kbuchi\AppData\Local\Temp\ccOUPaAd.s 			page 119


 4273 00a9 01       		.uleb128 0x1
 4274 00aa 31       		.uleb128 0x31
 4275 00ab 13       		.uleb128 0x13
 4276 00ac 00       		.byte	0
 4277 00ad 00       		.byte	0
 4278 00ae 0F       		.uleb128 0xf
 4279 00af 898201   		.uleb128 0x4109
 4280 00b2 00       		.byte	0
 4281 00b3 11       		.uleb128 0x11
 4282 00b4 01       		.uleb128 0x1
 4283 00b5 31       		.uleb128 0x31
 4284 00b6 13       		.uleb128 0x13
 4285 00b7 00       		.byte	0
 4286 00b8 00       		.byte	0
 4287 00b9 10       		.uleb128 0x10
 4288 00ba 2E       		.uleb128 0x2e
 4289 00bb 00       		.byte	0
 4290 00bc 3F       		.uleb128 0x3f
 4291 00bd 19       		.uleb128 0x19
 4292 00be 03       		.uleb128 0x3
 4293 00bf 0E       		.uleb128 0xe
 4294 00c0 3A       		.uleb128 0x3a
 4295 00c1 0B       		.uleb128 0xb
 4296 00c2 3B       		.uleb128 0x3b
 4297 00c3 05       		.uleb128 0x5
 4298 00c4 27       		.uleb128 0x27
 4299 00c5 19       		.uleb128 0x19
 4300 00c6 49       		.uleb128 0x49
 4301 00c7 13       		.uleb128 0x13
 4302 00c8 11       		.uleb128 0x11
 4303 00c9 01       		.uleb128 0x1
 4304 00ca 12       		.uleb128 0x12
 4305 00cb 06       		.uleb128 0x6
 4306 00cc 40       		.uleb128 0x40
 4307 00cd 18       		.uleb128 0x18
 4308 00ce 9742     		.uleb128 0x2117
 4309 00d0 19       		.uleb128 0x19
 4310 00d1 00       		.byte	0
 4311 00d2 00       		.byte	0
 4312 00d3 11       		.uleb128 0x11
 4313 00d4 2E       		.uleb128 0x2e
 4314 00d5 01       		.byte	0x1
 4315 00d6 3F       		.uleb128 0x3f
 4316 00d7 19       		.uleb128 0x19
 4317 00d8 03       		.uleb128 0x3
 4318 00d9 0E       		.uleb128 0xe
 4319 00da 3A       		.uleb128 0x3a
 4320 00db 0B       		.uleb128 0xb
 4321 00dc 3B       		.uleb128 0x3b
 4322 00dd 05       		.uleb128 0x5
 4323 00de 27       		.uleb128 0x27
 4324 00df 19       		.uleb128 0x19
 4325 00e0 49       		.uleb128 0x49
 4326 00e1 13       		.uleb128 0x13
 4327 00e2 11       		.uleb128 0x11
 4328 00e3 01       		.uleb128 0x1
 4329 00e4 12       		.uleb128 0x12
ARM GAS  C:\Users\kbuchi\AppData\Local\Temp\ccOUPaAd.s 			page 120


 4330 00e5 06       		.uleb128 0x6
 4331 00e6 40       		.uleb128 0x40
 4332 00e7 18       		.uleb128 0x18
 4333 00e8 9742     		.uleb128 0x2117
 4334 00ea 19       		.uleb128 0x19
 4335 00eb 01       		.uleb128 0x1
 4336 00ec 13       		.uleb128 0x13
 4337 00ed 00       		.byte	0
 4338 00ee 00       		.byte	0
 4339 00ef 12       		.uleb128 0x12
 4340 00f0 05       		.uleb128 0x5
 4341 00f1 00       		.byte	0
 4342 00f2 03       		.uleb128 0x3
 4343 00f3 0E       		.uleb128 0xe
 4344 00f4 3A       		.uleb128 0x3a
 4345 00f5 0B       		.uleb128 0xb
 4346 00f6 3B       		.uleb128 0x3b
 4347 00f7 05       		.uleb128 0x5
 4348 00f8 49       		.uleb128 0x49
 4349 00f9 13       		.uleb128 0x13
 4350 00fa 02       		.uleb128 0x2
 4351 00fb 17       		.uleb128 0x17
 4352 00fc 00       		.byte	0
 4353 00fd 00       		.byte	0
 4354 00fe 13       		.uleb128 0x13
 4355 00ff 05       		.uleb128 0x5
 4356 0100 00       		.byte	0
 4357 0101 03       		.uleb128 0x3
 4358 0102 0E       		.uleb128 0xe
 4359 0103 3A       		.uleb128 0x3a
 4360 0104 0B       		.uleb128 0xb
 4361 0105 3B       		.uleb128 0x3b
 4362 0106 05       		.uleb128 0x5
 4363 0107 49       		.uleb128 0x49
 4364 0108 13       		.uleb128 0x13
 4365 0109 02       		.uleb128 0x2
 4366 010a 18       		.uleb128 0x18
 4367 010b 00       		.byte	0
 4368 010c 00       		.byte	0
 4369 010d 14       		.uleb128 0x14
 4370 010e 2E       		.uleb128 0x2e
 4371 010f 01       		.byte	0x1
 4372 0110 3F       		.uleb128 0x3f
 4373 0111 19       		.uleb128 0x19
 4374 0112 03       		.uleb128 0x3
 4375 0113 0E       		.uleb128 0xe
 4376 0114 3A       		.uleb128 0x3a
 4377 0115 0B       		.uleb128 0xb
 4378 0116 3B       		.uleb128 0x3b
 4379 0117 0B       		.uleb128 0xb
 4380 0118 27       		.uleb128 0x27
 4381 0119 19       		.uleb128 0x19
 4382 011a 11       		.uleb128 0x11
 4383 011b 01       		.uleb128 0x1
 4384 011c 12       		.uleb128 0x12
 4385 011d 06       		.uleb128 0x6
 4386 011e 40       		.uleb128 0x40
ARM GAS  C:\Users\kbuchi\AppData\Local\Temp\ccOUPaAd.s 			page 121


 4387 011f 18       		.uleb128 0x18
 4388 0120 9742     		.uleb128 0x2117
 4389 0122 19       		.uleb128 0x19
 4390 0123 01       		.uleb128 0x1
 4391 0124 13       		.uleb128 0x13
 4392 0125 00       		.byte	0
 4393 0126 00       		.byte	0
 4394 0127 15       		.uleb128 0x15
 4395 0128 34       		.uleb128 0x34
 4396 0129 00       		.byte	0
 4397 012a 03       		.uleb128 0x3
 4398 012b 0E       		.uleb128 0xe
 4399 012c 3A       		.uleb128 0x3a
 4400 012d 0B       		.uleb128 0xb
 4401 012e 3B       		.uleb128 0x3b
 4402 012f 0B       		.uleb128 0xb
 4403 0130 49       		.uleb128 0x49
 4404 0131 13       		.uleb128 0x13
 4405 0132 02       		.uleb128 0x2
 4406 0133 17       		.uleb128 0x17
 4407 0134 00       		.byte	0
 4408 0135 00       		.byte	0
 4409 0136 16       		.uleb128 0x16
 4410 0137 34       		.uleb128 0x34
 4411 0138 00       		.byte	0
 4412 0139 03       		.uleb128 0x3
 4413 013a 0E       		.uleb128 0xe
 4414 013b 3A       		.uleb128 0x3a
 4415 013c 0B       		.uleb128 0xb
 4416 013d 3B       		.uleb128 0x3b
 4417 013e 05       		.uleb128 0x5
 4418 013f 49       		.uleb128 0x49
 4419 0140 13       		.uleb128 0x13
 4420 0141 02       		.uleb128 0x2
 4421 0142 18       		.uleb128 0x18
 4422 0143 00       		.byte	0
 4423 0144 00       		.byte	0
 4424 0145 17       		.uleb128 0x17
 4425 0146 34       		.uleb128 0x34
 4426 0147 00       		.byte	0
 4427 0148 03       		.uleb128 0x3
 4428 0149 0E       		.uleb128 0xe
 4429 014a 3A       		.uleb128 0x3a
 4430 014b 0B       		.uleb128 0xb
 4431 014c 3B       		.uleb128 0x3b
 4432 014d 0B       		.uleb128 0xb
 4433 014e 49       		.uleb128 0x49
 4434 014f 13       		.uleb128 0x13
 4435 0150 3F       		.uleb128 0x3f
 4436 0151 19       		.uleb128 0x19
 4437 0152 02       		.uleb128 0x2
 4438 0153 18       		.uleb128 0x18
 4439 0154 00       		.byte	0
 4440 0155 00       		.byte	0
 4441 0156 18       		.uleb128 0x18
 4442 0157 01       		.uleb128 0x1
 4443 0158 01       		.byte	0x1
ARM GAS  C:\Users\kbuchi\AppData\Local\Temp\ccOUPaAd.s 			page 122


 4444 0159 49       		.uleb128 0x49
 4445 015a 13       		.uleb128 0x13
 4446 015b 01       		.uleb128 0x1
 4447 015c 13       		.uleb128 0x13
 4448 015d 00       		.byte	0
 4449 015e 00       		.byte	0
 4450 015f 19       		.uleb128 0x19
 4451 0160 21       		.uleb128 0x21
 4452 0161 00       		.byte	0
 4453 0162 49       		.uleb128 0x49
 4454 0163 13       		.uleb128 0x13
 4455 0164 2F       		.uleb128 0x2f
 4456 0165 0B       		.uleb128 0xb
 4457 0166 00       		.byte	0
 4458 0167 00       		.byte	0
 4459 0168 1A       		.uleb128 0x1a
 4460 0169 34       		.uleb128 0x34
 4461 016a 00       		.byte	0
 4462 016b 03       		.uleb128 0x3
 4463 016c 0E       		.uleb128 0xe
 4464 016d 3A       		.uleb128 0x3a
 4465 016e 0B       		.uleb128 0xb
 4466 016f 3B       		.uleb128 0x3b
 4467 0170 05       		.uleb128 0x5
 4468 0171 49       		.uleb128 0x49
 4469 0172 13       		.uleb128 0x13
 4470 0173 3F       		.uleb128 0x3f
 4471 0174 19       		.uleb128 0x19
 4472 0175 3C       		.uleb128 0x3c
 4473 0176 19       		.uleb128 0x19
 4474 0177 00       		.byte	0
 4475 0178 00       		.byte	0
 4476 0179 1B       		.uleb128 0x1b
 4477 017a 2E       		.uleb128 0x2e
 4478 017b 01       		.byte	0x1
 4479 017c 3F       		.uleb128 0x3f
 4480 017d 19       		.uleb128 0x19
 4481 017e 03       		.uleb128 0x3
 4482 017f 0E       		.uleb128 0xe
 4483 0180 3A       		.uleb128 0x3a
 4484 0181 0B       		.uleb128 0xb
 4485 0182 3B       		.uleb128 0x3b
 4486 0183 0B       		.uleb128 0xb
 4487 0184 27       		.uleb128 0x27
 4488 0185 19       		.uleb128 0x19
 4489 0186 3C       		.uleb128 0x3c
 4490 0187 19       		.uleb128 0x19
 4491 0188 01       		.uleb128 0x1
 4492 0189 13       		.uleb128 0x13
 4493 018a 00       		.byte	0
 4494 018b 00       		.byte	0
 4495 018c 1C       		.uleb128 0x1c
 4496 018d 05       		.uleb128 0x5
 4497 018e 00       		.byte	0
 4498 018f 49       		.uleb128 0x49
 4499 0190 13       		.uleb128 0x13
 4500 0191 00       		.byte	0
ARM GAS  C:\Users\kbuchi\AppData\Local\Temp\ccOUPaAd.s 			page 123


 4501 0192 00       		.byte	0
 4502 0193 1D       		.uleb128 0x1d
 4503 0194 2E       		.uleb128 0x2e
 4504 0195 01       		.byte	0x1
 4505 0196 3F       		.uleb128 0x3f
 4506 0197 19       		.uleb128 0x19
 4507 0198 03       		.uleb128 0x3
 4508 0199 0E       		.uleb128 0xe
 4509 019a 3A       		.uleb128 0x3a
 4510 019b 0B       		.uleb128 0xb
 4511 019c 3B       		.uleb128 0x3b
 4512 019d 0B       		.uleb128 0xb
 4513 019e 27       		.uleb128 0x27
 4514 019f 19       		.uleb128 0x19
 4515 01a0 49       		.uleb128 0x49
 4516 01a1 13       		.uleb128 0x13
 4517 01a2 3C       		.uleb128 0x3c
 4518 01a3 19       		.uleb128 0x19
 4519 01a4 01       		.uleb128 0x1
 4520 01a5 13       		.uleb128 0x13
 4521 01a6 00       		.byte	0
 4522 01a7 00       		.byte	0
 4523 01a8 1E       		.uleb128 0x1e
 4524 01a9 2E       		.uleb128 0x2e
 4525 01aa 00       		.byte	0
 4526 01ab 3F       		.uleb128 0x3f
 4527 01ac 19       		.uleb128 0x19
 4528 01ad 03       		.uleb128 0x3
 4529 01ae 0E       		.uleb128 0xe
 4530 01af 3A       		.uleb128 0x3a
 4531 01b0 0B       		.uleb128 0xb
 4532 01b1 3B       		.uleb128 0x3b
 4533 01b2 0B       		.uleb128 0xb
 4534 01b3 27       		.uleb128 0x27
 4535 01b4 19       		.uleb128 0x19
 4536 01b5 3C       		.uleb128 0x3c
 4537 01b6 19       		.uleb128 0x19
 4538 01b7 00       		.byte	0
 4539 01b8 00       		.byte	0
 4540 01b9 1F       		.uleb128 0x1f
 4541 01ba 2E       		.uleb128 0x2e
 4542 01bb 00       		.byte	0
 4543 01bc 3F       		.uleb128 0x3f
 4544 01bd 19       		.uleb128 0x19
 4545 01be 03       		.uleb128 0x3
 4546 01bf 0E       		.uleb128 0xe
 4547 01c0 3A       		.uleb128 0x3a
 4548 01c1 0B       		.uleb128 0xb
 4549 01c2 3B       		.uleb128 0x3b
 4550 01c3 0B       		.uleb128 0xb
 4551 01c4 27       		.uleb128 0x27
 4552 01c5 19       		.uleb128 0x19
 4553 01c6 49       		.uleb128 0x49
 4554 01c7 13       		.uleb128 0x13
 4555 01c8 3C       		.uleb128 0x3c
 4556 01c9 19       		.uleb128 0x19
 4557 01ca 00       		.byte	0
ARM GAS  C:\Users\kbuchi\AppData\Local\Temp\ccOUPaAd.s 			page 124


 4558 01cb 00       		.byte	0
 4559 01cc 20       		.uleb128 0x20
 4560 01cd 2E       		.uleb128 0x2e
 4561 01ce 00       		.byte	0
 4562 01cf 3F       		.uleb128 0x3f
 4563 01d0 19       		.uleb128 0x19
 4564 01d1 03       		.uleb128 0x3
 4565 01d2 0E       		.uleb128 0xe
 4566 01d3 3A       		.uleb128 0x3a
 4567 01d4 0B       		.uleb128 0xb
 4568 01d5 3B       		.uleb128 0x3b
 4569 01d6 05       		.uleb128 0x5
 4570 01d7 27       		.uleb128 0x27
 4571 01d8 19       		.uleb128 0x19
 4572 01d9 3C       		.uleb128 0x3c
 4573 01da 19       		.uleb128 0x19
 4574 01db 00       		.byte	0
 4575 01dc 00       		.byte	0
 4576 01dd 21       		.uleb128 0x21
 4577 01de 2E       		.uleb128 0x2e
 4578 01df 01       		.byte	0x1
 4579 01e0 3F       		.uleb128 0x3f
 4580 01e1 19       		.uleb128 0x19
 4581 01e2 03       		.uleb128 0x3
 4582 01e3 0E       		.uleb128 0xe
 4583 01e4 3A       		.uleb128 0x3a
 4584 01e5 0B       		.uleb128 0xb
 4585 01e6 3B       		.uleb128 0x3b
 4586 01e7 0B       		.uleb128 0xb
 4587 01e8 27       		.uleb128 0x27
 4588 01e9 19       		.uleb128 0x19
 4589 01ea 3C       		.uleb128 0x3c
 4590 01eb 19       		.uleb128 0x19
 4591 01ec 00       		.byte	0
 4592 01ed 00       		.byte	0
 4593 01ee 00       		.byte	0
 4594              		.section	.debug_loc,"",%progbits
 4595              	.Ldebug_loc0:
 4596              	.LLST0:
 4597 0000 0C000000 		.4byte	.LVL0
 4598 0004 12000000 		.4byte	.LVL1
 4599 0008 0100     		.2byte	0x1
 4600 000a 51       		.byte	0x51
 4601 000b 12000000 		.4byte	.LVL1
 4602 000f 1C000000 		.4byte	.LVL2
 4603 0013 0100     		.2byte	0x1
 4604 0015 54       		.byte	0x54
 4605 0016 1C000000 		.4byte	.LVL2
 4606 001a 26000000 		.4byte	.LVL4
 4607 001e 0100     		.2byte	0x1
 4608 0020 50       		.byte	0x50
 4609 0021 26000000 		.4byte	.LVL4
 4610 0025 3C000000 		.4byte	.LVL6
 4611 0029 0100     		.2byte	0x1
 4612 002b 51       		.byte	0x51
 4613 002c 3C000000 		.4byte	.LVL6
 4614 0030 49000000 		.4byte	.LVL8-1
ARM GAS  C:\Users\kbuchi\AppData\Local\Temp\ccOUPaAd.s 			page 125


 4615 0034 0100     		.2byte	0x1
 4616 0036 52       		.byte	0x52
 4617 0037 00000000 		.4byte	0
 4618 003b 00000000 		.4byte	0
 4619              	.LLST1:
 4620 003f 26000000 		.4byte	.LVL17
 4621 0043 31000000 		.4byte	.LVL19-1
 4622 0047 0100     		.2byte	0x1
 4623 0049 52       		.byte	0x52
 4624 004a 00000000 		.4byte	0
 4625 004e 00000000 		.4byte	0
 4626              	.LLST2:
 4627 0052 00000000 		.4byte	.LVL23
 4628 0056 02000000 		.4byte	.LVL24
 4629 005a 0100     		.2byte	0x1
 4630 005c 50       		.byte	0x50
 4631 005d 02000000 		.4byte	.LVL24
 4632 0061 10000000 		.4byte	.LFE43
 4633 0065 0400     		.2byte	0x4
 4634 0067 F3       		.byte	0xf3
 4635 0068 01       		.uleb128 0x1
 4636 0069 50       		.byte	0x50
 4637 006a 9F       		.byte	0x9f
 4638 006b 00000000 		.4byte	0
 4639 006f 00000000 		.4byte	0
 4640              	.LLST3:
 4641 0073 00000000 		.4byte	.LVL25
 4642 0077 02000000 		.4byte	.LVL26
 4643 007b 0100     		.2byte	0x1
 4644 007d 50       		.byte	0x50
 4645 007e 02000000 		.4byte	.LVL26
 4646 0082 10000000 		.4byte	.LFE44
 4647 0086 0400     		.2byte	0x4
 4648 0088 F3       		.byte	0xf3
 4649 0089 01       		.uleb128 0x1
 4650 008a 50       		.byte	0x50
 4651 008b 9F       		.byte	0x9f
 4652 008c 00000000 		.4byte	0
 4653 0090 00000000 		.4byte	0
 4654              	.LLST4:
 4655 0094 00000000 		.4byte	.LVL27
 4656 0098 02000000 		.4byte	.LVL28
 4657 009c 0100     		.2byte	0x1
 4658 009e 50       		.byte	0x50
 4659 009f 02000000 		.4byte	.LVL28
 4660 00a3 0C000000 		.4byte	.LFE45
 4661 00a7 0400     		.2byte	0x4
 4662 00a9 F3       		.byte	0xf3
 4663 00aa 01       		.uleb128 0x1
 4664 00ab 50       		.byte	0x50
 4665 00ac 9F       		.byte	0x9f
 4666 00ad 00000000 		.4byte	0
 4667 00b1 00000000 		.4byte	0
 4668              	.LLST5:
 4669 00b5 00000000 		.4byte	.LVL29
 4670 00b9 02000000 		.4byte	.LVL30
 4671 00bd 0100     		.2byte	0x1
ARM GAS  C:\Users\kbuchi\AppData\Local\Temp\ccOUPaAd.s 			page 126


 4672 00bf 50       		.byte	0x50
 4673 00c0 02000000 		.4byte	.LVL30
 4674 00c4 0C000000 		.4byte	.LFE46
 4675 00c8 0400     		.2byte	0x4
 4676 00ca F3       		.byte	0xf3
 4677 00cb 01       		.uleb128 0x1
 4678 00cc 50       		.byte	0x50
 4679 00cd 9F       		.byte	0x9f
 4680 00ce 00000000 		.4byte	0
 4681 00d2 00000000 		.4byte	0
 4682              	.LLST6:
 4683 00d6 00000000 		.4byte	.LVL31
 4684 00da 08000000 		.4byte	.LVL33
 4685 00de 0100     		.2byte	0x1
 4686 00e0 50       		.byte	0x50
 4687 00e1 08000000 		.4byte	.LVL33
 4688 00e5 48000000 		.4byte	.LFE48
 4689 00e9 0400     		.2byte	0x4
 4690 00eb F3       		.byte	0xf3
 4691 00ec 01       		.uleb128 0x1
 4692 00ed 50       		.byte	0x50
 4693 00ee 9F       		.byte	0x9f
 4694 00ef 00000000 		.4byte	0
 4695 00f3 00000000 		.4byte	0
 4696              	.LLST7:
 4697 00f7 10000000 		.4byte	.LVL34
 4698 00fb 40000000 		.4byte	.LVL45
 4699 00ff 0100     		.2byte	0x1
 4700 0101 56       		.byte	0x56
 4701 0102 40000000 		.4byte	.LVL45
 4702 0106 48000000 		.4byte	.LFE48
 4703 010a 2000     		.2byte	0x20
 4704 010c F3       		.byte	0xf3
 4705 010d 01       		.uleb128 0x1
 4706 010e 50       		.byte	0x50
 4707 010f 03       		.byte	0x3
 4708 0110 08000000 		.4byte	.LANCHOR2+8
 4709 0114 22       		.byte	0x22
 4710 0115 94       		.byte	0x94
 4711 0116 01       		.byte	0x1
 4712 0117 08       		.byte	0x8
 4713 0118 FF       		.byte	0xff
 4714 0119 1A       		.byte	0x1a
 4715 011a 31       		.byte	0x31
 4716 011b 24       		.byte	0x24
 4717 011c F3       		.byte	0xf3
 4718 011d 01       		.uleb128 0x1
 4719 011e 50       		.byte	0x50
 4720 011f 03       		.byte	0x3
 4721 0120 08000000 		.4byte	.LANCHOR2+8
 4722 0124 22       		.byte	0x22
 4723 0125 94       		.byte	0x94
 4724 0126 01       		.byte	0x1
 4725 0127 08       		.byte	0x8
 4726 0128 FF       		.byte	0xff
 4727 0129 1A       		.byte	0x1a
 4728 012a 22       		.byte	0x22
ARM GAS  C:\Users\kbuchi\AppData\Local\Temp\ccOUPaAd.s 			page 127


 4729 012b 9F       		.byte	0x9f
 4730 012c 00000000 		.4byte	0
 4731 0130 00000000 		.4byte	0
 4732              	.LLST8:
 4733 0134 14000000 		.4byte	.LVL35
 4734 0138 17000000 		.4byte	.LVL36-1
 4735 013c 0100     		.2byte	0x1
 4736 013e 53       		.byte	0x53
 4737 013f 17000000 		.4byte	.LVL36-1
 4738 0143 2C000000 		.4byte	.LVL41
 4739 0147 0100     		.2byte	0x1
 4740 0149 55       		.byte	0x55
 4741 014a 2C000000 		.4byte	.LVL41
 4742 014e 48000000 		.4byte	.LFE48
 4743 0152 0E00     		.2byte	0xe
 4744 0154 F3       		.byte	0xf3
 4745 0155 01       		.uleb128 0x1
 4746 0156 50       		.byte	0x50
 4747 0157 03       		.byte	0x3
 4748 0158 08000000 		.4byte	.LANCHOR2+8
 4749 015c 22       		.byte	0x22
 4750 015d 94       		.byte	0x94
 4751 015e 01       		.byte	0x1
 4752 015f 32       		.byte	0x32
 4753 0160 24       		.byte	0x24
 4754 0161 9F       		.byte	0x9f
 4755 0162 00000000 		.4byte	0
 4756 0166 00000000 		.4byte	0
 4757              	.LLST9:
 4758 016a 18000000 		.4byte	.LVL36
 4759 016e 3F000000 		.4byte	.LVL43-1
 4760 0172 0100     		.2byte	0x1
 4761 0174 50       		.byte	0x50
 4762 0175 00000000 		.4byte	0
 4763 0179 00000000 		.4byte	0
 4764              	.LLST10:
 4765 017d 20000000 		.4byte	.LVL39
 4766 0181 2E000000 		.4byte	.LVL42
 4767 0185 0100     		.2byte	0x1
 4768 0187 51       		.byte	0x51
 4769 0188 2E000000 		.4byte	.LVL42
 4770 018c 40000000 		.4byte	.LVL44
 4771 0190 0100     		.2byte	0x1
 4772 0192 55       		.byte	0x55
 4773 0193 00000000 		.4byte	0
 4774 0197 00000000 		.4byte	0
 4775              	.LLST11:
 4776 019b 06000000 		.4byte	.LVL32
 4777 019f 1A000000 		.4byte	.LVL37
 4778 01a3 0100     		.2byte	0x1
 4779 01a5 57       		.byte	0x57
 4780 01a6 1A000000 		.4byte	.LVL37
 4781 01aa 1C000000 		.4byte	.LVL38
 4782 01ae 0C00     		.2byte	0xc
 4783 01b0 74       		.byte	0x74
 4784 01b1 00       		.sleb128 0
 4785 01b2 F3       		.byte	0xf3
ARM GAS  C:\Users\kbuchi\AppData\Local\Temp\ccOUPaAd.s 			page 128


 4786 01b3 01       		.uleb128 0x1
 4787 01b4 50       		.byte	0x50
 4788 01b5 22       		.byte	0x22
 4789 01b6 94       		.byte	0x94
 4790 01b7 01       		.byte	0x1
 4791 01b8 08       		.byte	0x8
 4792 01b9 FF       		.byte	0xff
 4793 01ba 1A       		.byte	0x1a
 4794 01bb 9F       		.byte	0x9f
 4795 01bc 1C000000 		.4byte	.LVL38
 4796 01c0 48000000 		.4byte	.LFE48
 4797 01c4 0F00     		.2byte	0xf
 4798 01c6 F3       		.byte	0xf3
 4799 01c7 01       		.uleb128 0x1
 4800 01c8 50       		.byte	0x50
 4801 01c9 03       		.byte	0x3
 4802 01ca 00000000 		.4byte	.LANCHOR2
 4803 01ce 22       		.byte	0x22
 4804 01cf 94       		.byte	0x94
 4805 01d0 01       		.byte	0x1
 4806 01d1 08       		.byte	0x8
 4807 01d2 FF       		.byte	0xff
 4808 01d3 1A       		.byte	0x1a
 4809 01d4 9F       		.byte	0x9f
 4810 01d5 00000000 		.4byte	0
 4811 01d9 00000000 		.4byte	0
 4812              	.LLST12:
 4813 01dd 00000000 		.4byte	.LVL46
 4814 01e1 22000000 		.4byte	.LVL51
 4815 01e5 0100     		.2byte	0x1
 4816 01e7 50       		.byte	0x50
 4817 01e8 22000000 		.4byte	.LVL51
 4818 01ec 70000000 		.4byte	.LFE49
 4819 01f0 0400     		.2byte	0x4
 4820 01f2 F3       		.byte	0xf3
 4821 01f3 01       		.uleb128 0x1
 4822 01f4 50       		.byte	0x50
 4823 01f5 9F       		.byte	0x9f
 4824 01f6 00000000 		.4byte	0
 4825 01fa 00000000 		.4byte	0
 4826              	.LLST13:
 4827 01fe 3C000000 		.4byte	.LVL55
 4828 0202 57000000 		.4byte	.LVL64-1
 4829 0206 0100     		.2byte	0x1
 4830 0208 50       		.byte	0x50
 4831 0209 00000000 		.4byte	0
 4832 020d 00000000 		.4byte	0
 4833              	.LLST14:
 4834 0211 46000000 		.4byte	.LVL59
 4835 0215 52000000 		.4byte	.LVL63
 4836 0219 0100     		.2byte	0x1
 4837 021b 52       		.byte	0x52
 4838 021c 52000000 		.4byte	.LVL63
 4839 0220 64000000 		.4byte	.LVL66
 4840 0224 0100     		.2byte	0x1
 4841 0226 56       		.byte	0x56
 4842 0227 00000000 		.4byte	0
ARM GAS  C:\Users\kbuchi\AppData\Local\Temp\ccOUPaAd.s 			page 129


 4843 022b 00000000 		.4byte	0
 4844              	.LLST15:
 4845 022f 06000000 		.4byte	.LVL47
 4846 0233 3E000000 		.4byte	.LVL56
 4847 0237 0100     		.2byte	0x1
 4848 0239 55       		.byte	0x55
 4849 023a 3E000000 		.4byte	.LVL56
 4850 023e 40000000 		.4byte	.LVL57
 4851 0242 0F00     		.2byte	0xf
 4852 0244 F3       		.byte	0xf3
 4853 0245 01       		.uleb128 0x1
 4854 0246 50       		.byte	0x50
 4855 0247 03       		.byte	0x3
 4856 0248 00000000 		.4byte	.LANCHOR2
 4857 024c 22       		.byte	0x22
 4858 024d 94       		.byte	0x94
 4859 024e 01       		.byte	0x1
 4860 024f 08       		.byte	0x8
 4861 0250 FF       		.byte	0xff
 4862 0251 1A       		.byte	0x1a
 4863 0252 9F       		.byte	0x9f
 4864 0253 40000000 		.4byte	.LVL57
 4865 0257 44000000 		.4byte	.LVL58
 4866 025b 0C00     		.2byte	0xc
 4867 025d 73       		.byte	0x73
 4868 025e 00       		.sleb128 0
 4869 025f F3       		.byte	0xf3
 4870 0260 01       		.uleb128 0x1
 4871 0261 50       		.byte	0x50
 4872 0262 22       		.byte	0x22
 4873 0263 94       		.byte	0x94
 4874 0264 01       		.byte	0x1
 4875 0265 08       		.byte	0x8
 4876 0266 FF       		.byte	0xff
 4877 0267 1A       		.byte	0x1a
 4878 0268 9F       		.byte	0x9f
 4879 0269 44000000 		.4byte	.LVL58
 4880 026d 70000000 		.4byte	.LFE49
 4881 0271 0F00     		.2byte	0xf
 4882 0273 F3       		.byte	0xf3
 4883 0274 01       		.uleb128 0x1
 4884 0275 50       		.byte	0x50
 4885 0276 03       		.byte	0x3
 4886 0277 00000000 		.4byte	.LANCHOR2
 4887 027b 22       		.byte	0x22
 4888 027c 94       		.byte	0x94
 4889 027d 01       		.byte	0x1
 4890 027e 08       		.byte	0x8
 4891 027f FF       		.byte	0xff
 4892 0280 1A       		.byte	0x1a
 4893 0281 9F       		.byte	0x9f
 4894 0282 00000000 		.4byte	0
 4895 0286 00000000 		.4byte	0
 4896              	.LLST16:
 4897 028a 0E000000 		.4byte	.LVL48
 4898 028e 34000000 		.4byte	.LVL53
 4899 0292 0100     		.2byte	0x1
ARM GAS  C:\Users\kbuchi\AppData\Local\Temp\ccOUPaAd.s 			page 130


 4900 0294 57       		.byte	0x57
 4901 0295 34000000 		.4byte	.LVL53
 4902 0299 64000000 		.4byte	.LVL65
 4903 029d 0500     		.2byte	0x5
 4904 029f 74       		.byte	0x74
 4905 02a0 00       		.sleb128 0
 4906 02a1 32       		.byte	0x32
 4907 02a2 24       		.byte	0x24
 4908 02a3 9F       		.byte	0x9f
 4909 02a4 64000000 		.4byte	.LVL65
 4910 02a8 70000000 		.4byte	.LFE49
 4911 02ac 0E00     		.2byte	0xe
 4912 02ae F3       		.byte	0xf3
 4913 02af 01       		.uleb128 0x1
 4914 02b0 50       		.byte	0x50
 4915 02b1 03       		.byte	0x3
 4916 02b2 08000000 		.4byte	.LANCHOR2+8
 4917 02b6 22       		.byte	0x22
 4918 02b7 94       		.byte	0x94
 4919 02b8 01       		.byte	0x1
 4920 02b9 32       		.byte	0x32
 4921 02ba 24       		.byte	0x24
 4922 02bb 9F       		.byte	0x9f
 4923 02bc 00000000 		.4byte	0
 4924 02c0 00000000 		.4byte	0
 4925              	.LLST17:
 4926 02c4 14000000 		.4byte	.LVL49
 4927 02c8 50000000 		.4byte	.LVL62
 4928 02cc 0100     		.2byte	0x1
 4929 02ce 56       		.byte	0x56
 4930 02cf 50000000 		.4byte	.LVL62
 4931 02d3 64000000 		.4byte	.LVL65
 4932 02d7 0800     		.2byte	0x8
 4933 02d9 74       		.byte	0x74
 4934 02da 00       		.sleb128 0
 4935 02db 31       		.byte	0x31
 4936 02dc 24       		.byte	0x24
 4937 02dd 74       		.byte	0x74
 4938 02de 00       		.sleb128 0
 4939 02df 22       		.byte	0x22
 4940 02e0 9F       		.byte	0x9f
 4941 02e1 64000000 		.4byte	.LVL65
 4942 02e5 70000000 		.4byte	.LFE49
 4943 02e9 2000     		.2byte	0x20
 4944 02eb F3       		.byte	0xf3
 4945 02ec 01       		.uleb128 0x1
 4946 02ed 50       		.byte	0x50
 4947 02ee 03       		.byte	0x3
 4948 02ef 08000000 		.4byte	.LANCHOR2+8
 4949 02f3 22       		.byte	0x22
 4950 02f4 94       		.byte	0x94
 4951 02f5 01       		.byte	0x1
 4952 02f6 08       		.byte	0x8
 4953 02f7 FF       		.byte	0xff
 4954 02f8 1A       		.byte	0x1a
 4955 02f9 31       		.byte	0x31
 4956 02fa 24       		.byte	0x24
ARM GAS  C:\Users\kbuchi\AppData\Local\Temp\ccOUPaAd.s 			page 131


 4957 02fb F3       		.byte	0xf3
 4958 02fc 01       		.uleb128 0x1
 4959 02fd 50       		.byte	0x50
 4960 02fe 03       		.byte	0x3
 4961 02ff 08000000 		.4byte	.LANCHOR2+8
 4962 0303 22       		.byte	0x22
 4963 0304 94       		.byte	0x94
 4964 0305 01       		.byte	0x1
 4965 0306 08       		.byte	0x8
 4966 0307 FF       		.byte	0xff
 4967 0308 1A       		.byte	0x1a
 4968 0309 22       		.byte	0x22
 4969 030a 9F       		.byte	0x9f
 4970 030b 00000000 		.4byte	0
 4971 030f 00000000 		.4byte	0
 4972              	.LLST18:
 4973 0313 14000000 		.4byte	.LVL49
 4974 0317 38000000 		.4byte	.LVL54
 4975 031b 0200     		.2byte	0x2
 4976 031d 30       		.byte	0x30
 4977 031e 9F       		.byte	0x9f
 4978 031f 38000000 		.4byte	.LVL54
 4979 0323 4E000000 		.4byte	.LVL61
 4980 0327 0100     		.2byte	0x1
 4981 0329 57       		.byte	0x57
 4982 032a 00000000 		.4byte	0
 4983 032e 00000000 		.4byte	0
 4984              	.LLST19:
 4985 0332 18000000 		.4byte	.LVL50
 4986 0336 3B000000 		.4byte	.LVL55-1
 4987 033a 0100     		.2byte	0x1
 4988 033c 52       		.byte	0x52
 4989 033d 00000000 		.4byte	0
 4990 0341 00000000 		.4byte	0
 4991              	.LLST20:
 4992 0345 02000000 		.4byte	.LVL67
 4993 0349 06000000 		.4byte	.LVL68
 4994 034d 0200     		.2byte	0x2
 4995 034f 30       		.byte	0x30
 4996 0350 9F       		.byte	0x9f
 4997 0351 06000000 		.4byte	.LVL68
 4998 0355 12000000 		.4byte	.LVL71
 4999 0359 0100     		.2byte	0x1
 5000 035b 54       		.byte	0x54
 5001 035c 00000000 		.4byte	0
 5002 0360 00000000 		.4byte	0
 5003              	.LLST21:
 5004 0364 00000000 		.4byte	.LVL72
 5005 0368 18000000 		.4byte	.LVL77
 5006 036c 0100     		.2byte	0x1
 5007 036e 50       		.byte	0x50
 5008 036f 18000000 		.4byte	.LVL77
 5009 0373 24000000 		.4byte	.LFE52
 5010 0377 0400     		.2byte	0x4
 5011 0379 F3       		.byte	0xf3
 5012 037a 01       		.uleb128 0x1
 5013 037b 50       		.byte	0x50
ARM GAS  C:\Users\kbuchi\AppData\Local\Temp\ccOUPaAd.s 			page 132


 5014 037c 9F       		.byte	0x9f
 5015 037d 00000000 		.4byte	0
 5016 0381 00000000 		.4byte	0
 5017              	.LLST22:
 5018 0385 00000000 		.4byte	.LVL72
 5019 0389 06000000 		.4byte	.LVL73
 5020 038d 0100     		.2byte	0x1
 5021 038f 51       		.byte	0x51
 5022 0390 06000000 		.4byte	.LVL73
 5023 0394 24000000 		.4byte	.LFE52
 5024 0398 0400     		.2byte	0x4
 5025 039a F3       		.byte	0xf3
 5026 039b 01       		.uleb128 0x1
 5027 039c 51       		.byte	0x51
 5028 039d 9F       		.byte	0x9f
 5029 039e 00000000 		.4byte	0
 5030 03a2 00000000 		.4byte	0
 5031              	.LLST23:
 5032 03a6 00000000 		.4byte	.LVL72
 5033 03aa 08000000 		.4byte	.LVL74
 5034 03ae 0100     		.2byte	0x1
 5035 03b0 52       		.byte	0x52
 5036 03b1 08000000 		.4byte	.LVL74
 5037 03b5 24000000 		.4byte	.LFE52
 5038 03b9 0400     		.2byte	0x4
 5039 03bb F3       		.byte	0xf3
 5040 03bc 01       		.uleb128 0x1
 5041 03bd 52       		.byte	0x52
 5042 03be 9F       		.byte	0x9f
 5043 03bf 00000000 		.4byte	0
 5044 03c3 00000000 		.4byte	0
 5045              	.LLST24:
 5046 03c7 06000000 		.4byte	.LVL73
 5047 03cb 1A000000 		.4byte	.LVL78
 5048 03cf 0100     		.2byte	0x1
 5049 03d1 51       		.byte	0x51
 5050 03d2 1A000000 		.4byte	.LVL78
 5051 03d6 24000000 		.4byte	.LFE52
 5052 03da 0A00     		.2byte	0xa
 5053 03dc F3       		.byte	0xf3
 5054 03dd 01       		.uleb128 0x1
 5055 03de 51       		.byte	0x51
 5056 03df 31       		.byte	0x31
 5057 03e0 24       		.byte	0x24
 5058 03e1 F3       		.byte	0xf3
 5059 03e2 01       		.uleb128 0x1
 5060 03e3 51       		.byte	0x51
 5061 03e4 22       		.byte	0x22
 5062 03e5 9F       		.byte	0x9f
 5063 03e6 00000000 		.4byte	0
 5064 03ea 00000000 		.4byte	0
 5065              	.LLST25:
 5066 03ee 10000000 		.4byte	.LVL75
 5067 03f2 1C000000 		.4byte	.LVL79
 5068 03f6 0100     		.2byte	0x1
 5069 03f8 52       		.byte	0x52
 5070 03f9 1C000000 		.4byte	.LVL79
ARM GAS  C:\Users\kbuchi\AppData\Local\Temp\ccOUPaAd.s 			page 133


 5071 03fd 24000000 		.4byte	.LFE52
 5072 0401 0100     		.2byte	0x1
 5073 0403 51       		.byte	0x51
 5074 0404 00000000 		.4byte	0
 5075 0408 00000000 		.4byte	0
 5076              	.LLST26:
 5077 040c 00000000 		.4byte	.LVL80
 5078 0410 0A000000 		.4byte	.LVL82
 5079 0414 0100     		.2byte	0x1
 5080 0416 50       		.byte	0x50
 5081 0417 0A000000 		.4byte	.LVL82
 5082 041b 28000000 		.4byte	.LVL90
 5083 041f 0100     		.2byte	0x1
 5084 0421 56       		.byte	0x56
 5085 0422 28000000 		.4byte	.LVL90
 5086 0426 30000000 		.4byte	.LFE50
 5087 042a 0400     		.2byte	0x4
 5088 042c F3       		.byte	0xf3
 5089 042d 01       		.uleb128 0x1
 5090 042e 50       		.byte	0x50
 5091 042f 9F       		.byte	0x9f
 5092 0430 00000000 		.4byte	0
 5093 0434 00000000 		.4byte	0
 5094              	.LLST27:
 5095 0438 04000000 		.4byte	.LVL81
 5096 043c 0A000000 		.4byte	.LVL82
 5097 0440 0200     		.2byte	0x2
 5098 0442 30       		.byte	0x30
 5099 0443 9F       		.byte	0x9f
 5100 0444 0A000000 		.4byte	.LVL82
 5101 0448 18000000 		.4byte	.LVL86
 5102 044c 0100     		.2byte	0x1
 5103 044e 54       		.byte	0x54
 5104 044f 18000000 		.4byte	.LVL86
 5105 0453 1A000000 		.4byte	.LVL87
 5106 0457 0300     		.2byte	0x3
 5107 0459 74       		.byte	0x74
 5108 045a 7F       		.sleb128 -1
 5109 045b 9F       		.byte	0x9f
 5110 045c 1A000000 		.4byte	.LVL87
 5111 0460 28000000 		.4byte	.LVL89
 5112 0464 0100     		.2byte	0x1
 5113 0466 54       		.byte	0x54
 5114 0467 00000000 		.4byte	0
 5115 046b 00000000 		.4byte	0
 5116              	.LLST28:
 5117 046f 0C000000 		.4byte	.LVL83
 5118 0473 15000000 		.4byte	.LVL85-1
 5119 0477 0100     		.2byte	0x1
 5120 0479 52       		.byte	0x52
 5121 047a 15000000 		.4byte	.LVL85-1
 5122 047e 18000000 		.4byte	.LVL86
 5123 0482 0B00     		.2byte	0xb
 5124 0484 75       		.byte	0x75
 5125 0485 00       		.sleb128 0
 5126 0486 74       		.byte	0x74
 5127 0487 00       		.sleb128 0
ARM GAS  C:\Users\kbuchi\AppData\Local\Temp\ccOUPaAd.s 			page 134


 5128 0488 22       		.byte	0x22
 5129 0489 94       		.byte	0x94
 5130 048a 01       		.byte	0x1
 5131 048b 08       		.byte	0x8
 5132 048c FF       		.byte	0xff
 5133 048d 1A       		.byte	0x1a
 5134 048e 9F       		.byte	0x9f
 5135 048f 18000000 		.4byte	.LVL86
 5136 0493 1A000000 		.4byte	.LVL87
 5137 0497 0D00     		.2byte	0xd
 5138 0499 75       		.byte	0x75
 5139 049a 00       		.sleb128 0
 5140 049b 74       		.byte	0x74
 5141 049c 00       		.sleb128 0
 5142 049d 22       		.byte	0x22
 5143 049e 31       		.byte	0x31
 5144 049f 1C       		.byte	0x1c
 5145 04a0 94       		.byte	0x94
 5146 04a1 01       		.byte	0x1
 5147 04a2 08       		.byte	0x8
 5148 04a3 FF       		.byte	0xff
 5149 04a4 1A       		.byte	0x1a
 5150 04a5 9F       		.byte	0x9f
 5151 04a6 00000000 		.4byte	0
 5152 04aa 00000000 		.4byte	0
 5153              	.LLST29:
 5154 04ae 10000000 		.4byte	.LVL84
 5155 04b2 15000000 		.4byte	.LVL85-1
 5156 04b6 0100     		.2byte	0x1
 5157 04b8 51       		.byte	0x51
 5158 04b9 15000000 		.4byte	.LVL85-1
 5159 04bd 18000000 		.4byte	.LVL86
 5160 04c1 0D00     		.2byte	0xd
 5161 04c3 75       		.byte	0x75
 5162 04c4 00       		.sleb128 0
 5163 04c5 74       		.byte	0x74
 5164 04c6 00       		.sleb128 0
 5165 04c7 22       		.byte	0x22
 5166 04c8 23       		.byte	0x23
 5167 04c9 08       		.uleb128 0x8
 5168 04ca 94       		.byte	0x94
 5169 04cb 01       		.byte	0x1
 5170 04cc 08       		.byte	0x8
 5171 04cd FF       		.byte	0xff
 5172 04ce 1A       		.byte	0x1a
 5173 04cf 9F       		.byte	0x9f
 5174 04d0 18000000 		.4byte	.LVL86
 5175 04d4 1A000000 		.4byte	.LVL87
 5176 04d8 0D00     		.2byte	0xd
 5177 04da 75       		.byte	0x75
 5178 04db 00       		.sleb128 0
 5179 04dc 74       		.byte	0x74
 5180 04dd 00       		.sleb128 0
 5181 04de 22       		.byte	0x22
 5182 04df 23       		.byte	0x23
 5183 04e0 07       		.uleb128 0x7
 5184 04e1 94       		.byte	0x94
ARM GAS  C:\Users\kbuchi\AppData\Local\Temp\ccOUPaAd.s 			page 135


 5185 04e2 01       		.byte	0x1
 5186 04e3 08       		.byte	0x8
 5187 04e4 FF       		.byte	0xff
 5188 04e5 1A       		.byte	0x1a
 5189 04e6 9F       		.byte	0x9f
 5190 04e7 00000000 		.4byte	0
 5191 04eb 00000000 		.4byte	0
 5192              	.LLST30:
 5193 04ef 0C000000 		.4byte	.LVL92
 5194 04f3 10000000 		.4byte	.LVL93
 5195 04f7 0100     		.2byte	0x1
 5196 04f9 51       		.byte	0x51
 5197 04fa 10000000 		.4byte	.LVL93
 5198 04fe 24000000 		.4byte	.LFE51
 5199 0502 0100     		.2byte	0x1
 5200 0504 52       		.byte	0x52
 5201 0505 00000000 		.4byte	0
 5202 0509 00000000 		.4byte	0
 5203              	.LLST31:
 5204 050d 00000000 		.4byte	.LVL95
 5205 0511 1E000000 		.4byte	.LVL98
 5206 0515 0100     		.2byte	0x1
 5207 0517 50       		.byte	0x50
 5208 0518 1E000000 		.4byte	.LVL98
 5209 051c 34000000 		.4byte	.LFE55
 5210 0520 0400     		.2byte	0x4
 5211 0522 F3       		.byte	0xf3
 5212 0523 01       		.uleb128 0x1
 5213 0524 50       		.byte	0x50
 5214 0525 9F       		.byte	0x9f
 5215 0526 00000000 		.4byte	0
 5216 052a 00000000 		.4byte	0
 5217              	.LLST32:
 5218 052e 00000000 		.4byte	.LVL95
 5219 0532 04000000 		.4byte	.LVL96
 5220 0536 0100     		.2byte	0x1
 5221 0538 51       		.byte	0x51
 5222 0539 04000000 		.4byte	.LVL96
 5223 053d 34000000 		.4byte	.LFE55
 5224 0541 0400     		.2byte	0x4
 5225 0543 F3       		.byte	0xf3
 5226 0544 01       		.uleb128 0x1
 5227 0545 51       		.byte	0x51
 5228 0546 9F       		.byte	0x9f
 5229 0547 00000000 		.4byte	0
 5230 054b 00000000 		.4byte	0
 5231              	.LLST33:
 5232 054f 1C000000 		.4byte	.LVL97
 5233 0553 2C000000 		.4byte	.LVL100
 5234 0557 0100     		.2byte	0x1
 5235 0559 52       		.byte	0x52
 5236 055a 2C000000 		.4byte	.LVL100
 5237 055e 34000000 		.4byte	.LFE55
 5238 0562 0100     		.2byte	0x1
 5239 0564 50       		.byte	0x50
 5240 0565 00000000 		.4byte	0
 5241 0569 00000000 		.4byte	0
ARM GAS  C:\Users\kbuchi\AppData\Local\Temp\ccOUPaAd.s 			page 136


 5242              	.LLST34:
 5243 056d 00000000 		.4byte	.LVL101
 5244 0571 04000000 		.4byte	.LVL102
 5245 0575 0100     		.2byte	0x1
 5246 0577 50       		.byte	0x50
 5247 0578 04000000 		.4byte	.LVL102
 5248 057c 0A000000 		.4byte	.LVL104
 5249 0580 0100     		.2byte	0x1
 5250 0582 50       		.byte	0x50
 5251 0583 0A000000 		.4byte	.LVL104
 5252 0587 14000000 		.4byte	.LFE56
 5253 058b 0600     		.2byte	0x6
 5254 058d F3       		.byte	0xf3
 5255 058e 01       		.uleb128 0x1
 5256 058f 50       		.byte	0x50
 5257 0590 33       		.byte	0x33
 5258 0591 1A       		.byte	0x1a
 5259 0592 9F       		.byte	0x9f
 5260 0593 00000000 		.4byte	0
 5261 0597 00000000 		.4byte	0
 5262              	.LLST35:
 5263 059b 08000000 		.4byte	.LVL103
 5264 059f 0C000000 		.4byte	.LVL105
 5265 05a3 0100     		.2byte	0x1
 5266 05a5 52       		.byte	0x52
 5267 05a6 0C000000 		.4byte	.LVL105
 5268 05aa 14000000 		.4byte	.LFE56
 5269 05ae 0100     		.2byte	0x1
 5270 05b0 50       		.byte	0x50
 5271 05b1 00000000 		.4byte	0
 5272 05b5 00000000 		.4byte	0
 5273              	.LLST36:
 5274 05b9 02000000 		.4byte	.LVL106
 5275 05bd 0A000000 		.4byte	.LVL107
 5276 05c1 0200     		.2byte	0x2
 5277 05c3 30       		.byte	0x30
 5278 05c4 9F       		.byte	0x9f
 5279 05c5 0A000000 		.4byte	.LVL107
 5280 05c9 15000000 		.4byte	.LVL109-1
 5281 05cd 0100     		.2byte	0x1
 5282 05cf 53       		.byte	0x53
 5283 05d0 00000000 		.4byte	0
 5284 05d4 00000000 		.4byte	0
 5285              	.LLST37:
 5286 05d8 00000000 		.4byte	.LVL115
 5287 05dc 12000000 		.4byte	.LVL120
 5288 05e0 0100     		.2byte	0x1
 5289 05e2 50       		.byte	0x50
 5290 05e3 12000000 		.4byte	.LVL120
 5291 05e7 14000000 		.4byte	.LVL121
 5292 05eb 0400     		.2byte	0x4
 5293 05ed F3       		.byte	0xf3
 5294 05ee 01       		.uleb128 0x1
 5295 05ef 50       		.byte	0x50
 5296 05f0 9F       		.byte	0x9f
 5297 05f1 14000000 		.4byte	.LVL121
 5298 05f5 16000000 		.4byte	.LVL122
ARM GAS  C:\Users\kbuchi\AppData\Local\Temp\ccOUPaAd.s 			page 137


 5299 05f9 0100     		.2byte	0x1
 5300 05fb 50       		.byte	0x50
 5301 05fc 16000000 		.4byte	.LVL122
 5302 0600 18000000 		.4byte	.LFE58
 5303 0604 0400     		.2byte	0x4
 5304 0606 F3       		.byte	0xf3
 5305 0607 01       		.uleb128 0x1
 5306 0608 50       		.byte	0x50
 5307 0609 9F       		.byte	0x9f
 5308 060a 00000000 		.4byte	0
 5309 060e 00000000 		.4byte	0
 5310              	.LLST38:
 5311 0612 00000000 		.4byte	.LVL115
 5312 0616 06000000 		.4byte	.LVL117
 5313 061a 0100     		.2byte	0x1
 5314 061c 51       		.byte	0x51
 5315 061d 06000000 		.4byte	.LVL117
 5316 0621 18000000 		.4byte	.LFE58
 5317 0625 0400     		.2byte	0x4
 5318 0627 F3       		.byte	0xf3
 5319 0628 01       		.uleb128 0x1
 5320 0629 51       		.byte	0x51
 5321 062a 9F       		.byte	0x9f
 5322 062b 00000000 		.4byte	0
 5323 062f 00000000 		.4byte	0
 5324              	.LLST39:
 5325 0633 02000000 		.4byte	.LVL116
 5326 0637 0C000000 		.4byte	.LVL119
 5327 063b 0100     		.2byte	0x1
 5328 063d 53       		.byte	0x53
 5329 063e 0C000000 		.4byte	.LVL119
 5330 0642 18000000 		.4byte	.LFE58
 5331 0646 0600     		.2byte	0x6
 5332 0648 F3       		.byte	0xf3
 5333 0649 01       		.uleb128 0x1
 5334 064a 51       		.byte	0x51
 5335 064b 33       		.byte	0x33
 5336 064c 25       		.byte	0x25
 5337 064d 9F       		.byte	0x9f
 5338 064e 00000000 		.4byte	0
 5339 0652 00000000 		.4byte	0
 5340              	.LLST40:
 5341 0656 00000000 		.4byte	.LVL123
 5342 065a 08000000 		.4byte	.LVL124
 5343 065e 0100     		.2byte	0x1
 5344 0660 50       		.byte	0x50
 5345 0661 08000000 		.4byte	.LVL124
 5346 0665 0A000000 		.4byte	.LVL125
 5347 0669 0100     		.2byte	0x1
 5348 066b 54       		.byte	0x54
 5349 066c 0A000000 		.4byte	.LVL125
 5350 0670 0C000000 		.4byte	.LVL126
 5351 0674 0300     		.2byte	0x3
 5352 0676 74       		.byte	0x74
 5353 0677 7F       		.sleb128 -1
 5354 0678 9F       		.byte	0x9f
 5355 0679 0C000000 		.4byte	.LVL126
ARM GAS  C:\Users\kbuchi\AppData\Local\Temp\ccOUPaAd.s 			page 138


 5356 067d 1E000000 		.4byte	.LVL129
 5357 0681 0100     		.2byte	0x1
 5358 0683 54       		.byte	0x54
 5359 0684 1E000000 		.4byte	.LVL129
 5360 0688 24000000 		.4byte	.LFE38
 5361 068c 0100     		.2byte	0x1
 5362 068e 50       		.byte	0x50
 5363 068f 00000000 		.4byte	0
 5364 0693 00000000 		.4byte	0
 5365              	.LLST41:
 5366 0697 18000000 		.4byte	.LVL127
 5367 069b 1C000000 		.4byte	.LVL128
 5368 069f 0100     		.2byte	0x1
 5369 06a1 50       		.byte	0x50
 5370 06a2 00000000 		.4byte	0
 5371 06a6 00000000 		.4byte	0
 5372              	.LLST42:
 5373 06aa 00000000 		.4byte	.LVL130
 5374 06ae 12000000 		.4byte	.LVL134
 5375 06b2 0100     		.2byte	0x1
 5376 06b4 50       		.byte	0x50
 5377 06b5 12000000 		.4byte	.LVL134
 5378 06b9 80000000 		.4byte	.LVL151
 5379 06bd 0100     		.2byte	0x1
 5380 06bf 54       		.byte	0x54
 5381 06c0 80000000 		.4byte	.LVL151
 5382 06c4 CC000000 		.4byte	.LFE53
 5383 06c8 0400     		.2byte	0x4
 5384 06ca F3       		.byte	0xf3
 5385 06cb 01       		.uleb128 0x1
 5386 06cc 50       		.byte	0x50
 5387 06cd 9F       		.byte	0x9f
 5388 06ce 00000000 		.4byte	0
 5389 06d2 00000000 		.4byte	0
 5390              	.LLST43:
 5391 06d6 0A000000 		.4byte	.LVL131
 5392 06da 0E000000 		.4byte	.LVL132
 5393 06de 0500     		.2byte	0x5
 5394 06e0 73       		.byte	0x73
 5395 06e1 00       		.sleb128 0
 5396 06e2 70       		.byte	0x70
 5397 06e3 00       		.sleb128 0
 5398 06e4 22       		.byte	0x22
 5399 06e5 0E000000 		.4byte	.LVL132
 5400 06e9 12000000 		.4byte	.LVL134
 5401 06ed 0800     		.2byte	0x8
 5402 06ef 70       		.byte	0x70
 5403 06f0 00       		.sleb128 0
 5404 06f1 03       		.byte	0x3
 5405 06f2 4C000000 		.4byte	.LANCHOR2+76
 5406 06f6 22       		.byte	0x22
 5407 06f7 12000000 		.4byte	.LVL134
 5408 06fb 80000000 		.4byte	.LVL151
 5409 06ff 0800     		.2byte	0x8
 5410 0701 74       		.byte	0x74
 5411 0702 00       		.sleb128 0
 5412 0703 03       		.byte	0x3
ARM GAS  C:\Users\kbuchi\AppData\Local\Temp\ccOUPaAd.s 			page 139


 5413 0704 4C000000 		.4byte	.LANCHOR2+76
 5414 0708 22       		.byte	0x22
 5415 0709 80000000 		.4byte	.LVL151
 5416 070d CC000000 		.4byte	.LFE53
 5417 0711 0900     		.2byte	0x9
 5418 0713 F3       		.byte	0xf3
 5419 0714 01       		.uleb128 0x1
 5420 0715 50       		.byte	0x50
 5421 0716 03       		.byte	0x3
 5422 0717 4C000000 		.4byte	.LANCHOR2+76
 5423 071b 22       		.byte	0x22
 5424 071c 00000000 		.4byte	0
 5425 0720 00000000 		.4byte	0
 5426              	.LLST44:
 5427 0724 80000000 		.4byte	.LVL151
 5428 0728 84000000 		.4byte	.LVL152
 5429 072c 0100     		.2byte	0x1
 5430 072e 50       		.byte	0x50
 5431 072f 84000000 		.4byte	.LVL152
 5432 0733 92000000 		.4byte	.LVL155
 5433 0737 0100     		.2byte	0x1
 5434 0739 54       		.byte	0x54
 5435 073a 00000000 		.4byte	0
 5436 073e 00000000 		.4byte	0
 5437              	.LLST45:
 5438 0742 4E000000 		.4byte	.LVL142
 5439 0746 60000000 		.4byte	.LVL144
 5440 074a 0100     		.2byte	0x1
 5441 074c 51       		.byte	0x51
 5442 074d 60000000 		.4byte	.LVL144
 5443 0751 66000000 		.4byte	.LVL145
 5444 0755 0100     		.2byte	0x1
 5445 0757 52       		.byte	0x52
 5446 0758 66000000 		.4byte	.LVL145
 5447 075c 92000000 		.4byte	.LVL157
 5448 0760 0100     		.2byte	0x1
 5449 0762 57       		.byte	0x57
 5450 0763 00000000 		.4byte	0
 5451 0767 00000000 		.4byte	0
 5452              	.LLST46:
 5453 076b 10000000 		.4byte	.LVL133
 5454 076f 20000000 		.4byte	.LVL136
 5455 0773 0100     		.2byte	0x1
 5456 0775 55       		.byte	0x55
 5457 0776 22000000 		.4byte	.LVL137
 5458 077a 28000000 		.4byte	.LVL138
 5459 077e 0100     		.2byte	0x1
 5460 0780 50       		.byte	0x50
 5461 0781 28000000 		.4byte	.LVL138
 5462 0785 92000000 		.4byte	.LVL156
 5463 0789 0100     		.2byte	0x1
 5464 078b 55       		.byte	0x55
 5465 078c 00000000 		.4byte	0
 5466 0790 00000000 		.4byte	0
 5467              	.LLST47:
 5468 0794 18000000 		.4byte	.LVL135
 5469 0798 22000000 		.4byte	.LVL137
ARM GAS  C:\Users\kbuchi\AppData\Local\Temp\ccOUPaAd.s 			page 140


 5470 079c 0100     		.2byte	0x1
 5471 079e 50       		.byte	0x50
 5472 079f 00000000 		.4byte	0
 5473 07a3 00000000 		.4byte	0
 5474              	.LLST48:
 5475 07a7 00000000 		.4byte	.LVL158
 5476 07ab 13000000 		.4byte	.LVL159-1
 5477 07af 0100     		.2byte	0x1
 5478 07b1 50       		.byte	0x50
 5479 07b2 13000000 		.4byte	.LVL159-1
 5480 07b6 1C000000 		.4byte	.LFE39
 5481 07ba 0400     		.2byte	0x4
 5482 07bc F3       		.byte	0xf3
 5483 07bd 01       		.uleb128 0x1
 5484 07be 50       		.byte	0x50
 5485 07bf 9F       		.byte	0x9f
 5486 07c0 00000000 		.4byte	0
 5487 07c4 00000000 		.4byte	0
 5488              	.LLST49:
 5489 07c8 00000000 		.4byte	.LVL162
 5490 07cc 26000000 		.4byte	.LVL166
 5491 07d0 0100     		.2byte	0x1
 5492 07d2 50       		.byte	0x50
 5493 07d3 26000000 		.4byte	.LVL166
 5494 07d7 62000000 		.4byte	.LVL177
 5495 07db 0100     		.2byte	0x1
 5496 07dd 54       		.byte	0x54
 5497 07de 62000000 		.4byte	.LVL177
 5498 07e2 8C000000 		.4byte	.LFE54
 5499 07e6 0400     		.2byte	0x4
 5500 07e8 F3       		.byte	0xf3
 5501 07e9 01       		.uleb128 0x1
 5502 07ea 50       		.byte	0x50
 5503 07eb 9F       		.byte	0x9f
 5504 07ec 00000000 		.4byte	0
 5505 07f0 00000000 		.4byte	0
 5506              	.LLST50:
 5507 07f4 46000000 		.4byte	.LVL171
 5508 07f8 4A000000 		.4byte	.LVL172
 5509 07fc 0100     		.2byte	0x1
 5510 07fe 51       		.byte	0x51
 5511 07ff 4A000000 		.4byte	.LVL172
 5512 0803 58000000 		.4byte	.LVL174
 5513 0807 0100     		.2byte	0x1
 5514 0809 52       		.byte	0x52
 5515 080a 58000000 		.4byte	.LVL174
 5516 080e 5C000000 		.4byte	.LVL175
 5517 0812 0500     		.2byte	0x5
 5518 0814 0C       		.byte	0xc
 5519 0815 04000840 		.4byte	0x40080004
 5520 0819 00000000 		.4byte	0
 5521 081d 00000000 		.4byte	0
 5522              	.LLST51:
 5523 0821 2C000000 		.4byte	.LVL167
 5524 0825 36000000 		.4byte	.LVL168
 5525 0829 0100     		.2byte	0x1
 5526 082b 50       		.byte	0x50
ARM GAS  C:\Users\kbuchi\AppData\Local\Temp\ccOUPaAd.s 			page 141


 5527 082c 00000000 		.4byte	0
 5528 0830 00000000 		.4byte	0
 5529              	.LLST52:
 5530 0834 18000000 		.4byte	.LVL163
 5531 0838 1A000000 		.4byte	.LVL164
 5532 083c 0100     		.2byte	0x1
 5533 083e 52       		.byte	0x52
 5534 083f 1A000000 		.4byte	.LVL164
 5535 0843 1C000000 		.4byte	.LVL165
 5536 0847 0B00     		.2byte	0xb
 5537 0849 73       		.byte	0x73
 5538 084a 00       		.sleb128 0
 5539 084b 70       		.byte	0x70
 5540 084c 00       		.sleb128 0
 5541 084d 22       		.byte	0x22
 5542 084e 94       		.byte	0x94
 5543 084f 01       		.byte	0x1
 5544 0850 08       		.byte	0x8
 5545 0851 FF       		.byte	0xff
 5546 0852 1A       		.byte	0x1a
 5547 0853 9F       		.byte	0x9f
 5548 0854 1C000000 		.4byte	.LVL165
 5549 0858 26000000 		.4byte	.LVL166
 5550 085c 0E00     		.2byte	0xe
 5551 085e 70       		.byte	0x70
 5552 085f 00       		.sleb128 0
 5553 0860 03       		.byte	0x3
 5554 0861 4C000000 		.4byte	.LANCHOR2+76
 5555 0865 22       		.byte	0x22
 5556 0866 94       		.byte	0x94
 5557 0867 01       		.byte	0x1
 5558 0868 08       		.byte	0x8
 5559 0869 FF       		.byte	0xff
 5560 086a 1A       		.byte	0x1a
 5561 086b 9F       		.byte	0x9f
 5562 086c 26000000 		.4byte	.LVL166
 5563 0870 62000000 		.4byte	.LVL177
 5564 0874 0E00     		.2byte	0xe
 5565 0876 74       		.byte	0x74
 5566 0877 00       		.sleb128 0
 5567 0878 03       		.byte	0x3
 5568 0879 4C000000 		.4byte	.LANCHOR2+76
 5569 087d 22       		.byte	0x22
 5570 087e 94       		.byte	0x94
 5571 087f 01       		.byte	0x1
 5572 0880 08       		.byte	0x8
 5573 0881 FF       		.byte	0xff
 5574 0882 1A       		.byte	0x1a
 5575 0883 9F       		.byte	0x9f
 5576 0884 62000000 		.4byte	.LVL177
 5577 0888 8C000000 		.4byte	.LFE54
 5578 088c 0F00     		.2byte	0xf
 5579 088e F3       		.byte	0xf3
 5580 088f 01       		.uleb128 0x1
 5581 0890 50       		.byte	0x50
 5582 0891 03       		.byte	0x3
 5583 0892 4C000000 		.4byte	.LANCHOR2+76
ARM GAS  C:\Users\kbuchi\AppData\Local\Temp\ccOUPaAd.s 			page 142


 5584 0896 22       		.byte	0x22
 5585 0897 94       		.byte	0x94
 5586 0898 01       		.byte	0x1
 5587 0899 08       		.byte	0x8
 5588 089a FF       		.byte	0xff
 5589 089b 1A       		.byte	0x1a
 5590 089c 9F       		.byte	0x9f
 5591 089d 00000000 		.4byte	0
 5592 08a1 00000000 		.4byte	0
 5593              	.LLST53:
 5594 08a5 00000000 		.4byte	.LVL178
 5595 08a9 14000000 		.4byte	.LVL182
 5596 08ad 0100     		.2byte	0x1
 5597 08af 50       		.byte	0x50
 5598 08b0 14000000 		.4byte	.LVL182
 5599 08b4 1C000000 		.4byte	.LVL184
 5600 08b8 0400     		.2byte	0x4
 5601 08ba F3       		.byte	0xf3
 5602 08bb 01       		.uleb128 0x1
 5603 08bc 50       		.byte	0x50
 5604 08bd 9F       		.byte	0x9f
 5605 08be 1C000000 		.4byte	.LVL184
 5606 08c2 1E000000 		.4byte	.LVL185
 5607 08c6 0100     		.2byte	0x1
 5608 08c8 50       		.byte	0x50
 5609 08c9 1E000000 		.4byte	.LVL185
 5610 08cd 26000000 		.4byte	.LFE59
 5611 08d1 0400     		.2byte	0x4
 5612 08d3 F3       		.byte	0xf3
 5613 08d4 01       		.uleb128 0x1
 5614 08d5 50       		.byte	0x50
 5615 08d6 9F       		.byte	0x9f
 5616 08d7 00000000 		.4byte	0
 5617 08db 00000000 		.4byte	0
 5618              	.LLST54:
 5619 08df 00000000 		.4byte	.LVL178
 5620 08e3 08000000 		.4byte	.LVL180
 5621 08e7 0100     		.2byte	0x1
 5622 08e9 51       		.byte	0x51
 5623 08ea 08000000 		.4byte	.LVL180
 5624 08ee 26000000 		.4byte	.LFE59
 5625 08f2 0400     		.2byte	0x4
 5626 08f4 F3       		.byte	0xf3
 5627 08f5 01       		.uleb128 0x1
 5628 08f6 51       		.byte	0x51
 5629 08f7 9F       		.byte	0x9f
 5630 08f8 00000000 		.4byte	0
 5631 08fc 00000000 		.4byte	0
 5632              	.LLST55:
 5633 0900 04000000 		.4byte	.LVL179
 5634 0904 16000000 		.4byte	.LVL183
 5635 0908 0100     		.2byte	0x1
 5636 090a 53       		.byte	0x53
 5637 090b 16000000 		.4byte	.LVL183
 5638 090f 1C000000 		.4byte	.LVL184
 5639 0913 0600     		.2byte	0x6
 5640 0915 F3       		.byte	0xf3
ARM GAS  C:\Users\kbuchi\AppData\Local\Temp\ccOUPaAd.s 			page 143


 5641 0916 01       		.uleb128 0x1
 5642 0917 51       		.byte	0x51
 5643 0918 33       		.byte	0x33
 5644 0919 25       		.byte	0x25
 5645 091a 9F       		.byte	0x9f
 5646 091b 1C000000 		.4byte	.LVL184
 5647 091f 20000000 		.4byte	.LVL186
 5648 0923 0100     		.2byte	0x1
 5649 0925 53       		.byte	0x53
 5650 0926 20000000 		.4byte	.LVL186
 5651 092a 26000000 		.4byte	.LFE59
 5652 092e 0600     		.2byte	0x6
 5653 0930 F3       		.byte	0xf3
 5654 0931 01       		.uleb128 0x1
 5655 0932 51       		.byte	0x51
 5656 0933 33       		.byte	0x33
 5657 0934 25       		.byte	0x25
 5658 0935 9F       		.byte	0x9f
 5659 0936 00000000 		.4byte	0
 5660 093a 00000000 		.4byte	0
 5661              	.LLST56:
 5662 093e 0E000000 		.4byte	.LVL181
 5663 0942 24000000 		.4byte	.LVL187
 5664 0946 0100     		.2byte	0x1
 5665 0948 54       		.byte	0x54
 5666 0949 24000000 		.4byte	.LVL187
 5667 094d 26000000 		.4byte	.LFE59
 5668 0951 0800     		.2byte	0x8
 5669 0953 31       		.byte	0x31
 5670 0954 F3       		.byte	0xf3
 5671 0955 01       		.uleb128 0x1
 5672 0956 51       		.byte	0x51
 5673 0957 37       		.byte	0x37
 5674 0958 1A       		.byte	0x1a
 5675 0959 24       		.byte	0x24
 5676 095a 9F       		.byte	0x9f
 5677 095b 00000000 		.4byte	0
 5678 095f 00000000 		.4byte	0
 5679              	.LLST57:
 5680 0963 00000000 		.4byte	.LVL188
 5681 0967 3C000000 		.4byte	.LVL195
 5682 096b 0100     		.2byte	0x1
 5683 096d 50       		.byte	0x50
 5684 096e 3C000000 		.4byte	.LVL195
 5685 0972 98000000 		.4byte	.LFE40
 5686 0976 0400     		.2byte	0x4
 5687 0978 F3       		.byte	0xf3
 5688 0979 01       		.uleb128 0x1
 5689 097a 50       		.byte	0x50
 5690 097b 9F       		.byte	0x9f
 5691 097c 00000000 		.4byte	0
 5692 0980 00000000 		.4byte	0
 5693              	.LLST58:
 5694 0984 12000000 		.4byte	.LVL189
 5695 0988 1E000000 		.4byte	.LVL192
 5696 098c 0100     		.2byte	0x1
 5697 098e 53       		.byte	0x53
ARM GAS  C:\Users\kbuchi\AppData\Local\Temp\ccOUPaAd.s 			page 144


 5698 098f 00000000 		.4byte	0
 5699 0993 00000000 		.4byte	0
 5700              	.LLST59:
 5701 0997 1C000000 		.4byte	.LVL191
 5702 099b 7C000000 		.4byte	.LVL201
 5703 099f 0100     		.2byte	0x1
 5704 09a1 57       		.byte	0x57
 5705 09a2 00000000 		.4byte	0
 5706 09a6 00000000 		.4byte	0
 5707              	.LLST60:
 5708 09aa 1C000000 		.4byte	.LVL191
 5709 09ae 20000000 		.4byte	.LVL193
 5710 09b2 0200     		.2byte	0x2
 5711 09b4 30       		.byte	0x30
 5712 09b5 9F       		.byte	0x9f
 5713 09b6 20000000 		.4byte	.LVL193
 5714 09ba 3C000000 		.4byte	.LVL195
 5715 09be 0100     		.2byte	0x1
 5716 09c0 53       		.byte	0x53
 5717 09c1 3C000000 		.4byte	.LVL195
 5718 09c5 7C000000 		.4byte	.LVL200
 5719 09c9 0100     		.2byte	0x1
 5720 09cb 54       		.byte	0x54
 5721 09cc 00000000 		.4byte	0
 5722 09d0 00000000 		.4byte	0
 5723              	.LLST61:
 5724 09d4 00000000 		.4byte	.LVL202
 5725 09d8 04000000 		.4byte	.LVL203
 5726 09dc 0100     		.2byte	0x1
 5727 09de 50       		.byte	0x50
 5728 09df 04000000 		.4byte	.LVL203
 5729 09e3 0C000000 		.4byte	.LFE60
 5730 09e7 0400     		.2byte	0x4
 5731 09e9 F3       		.byte	0xf3
 5732 09ea 01       		.uleb128 0x1
 5733 09eb 50       		.byte	0x50
 5734 09ec 9F       		.byte	0x9f
 5735 09ed 00000000 		.4byte	0
 5736 09f1 00000000 		.4byte	0
 5737              	.LLST62:
 5738 09f5 00000000 		.4byte	.LVL205
 5739 09f9 04000000 		.4byte	.LVL206
 5740 09fd 0100     		.2byte	0x1
 5741 09ff 50       		.byte	0x50
 5742 0a00 04000000 		.4byte	.LVL206
 5743 0a04 0C000000 		.4byte	.LFE62
 5744 0a08 0400     		.2byte	0x4
 5745 0a0a F3       		.byte	0xf3
 5746 0a0b 01       		.uleb128 0x1
 5747 0a0c 50       		.byte	0x50
 5748 0a0d 9F       		.byte	0x9f
 5749 0a0e 00000000 		.4byte	0
 5750 0a12 00000000 		.4byte	0
 5751              	.LLST63:
 5752 0a16 00000000 		.4byte	.LVL208
 5753 0a1a 04000000 		.4byte	.LVL209
 5754 0a1e 0100     		.2byte	0x1
ARM GAS  C:\Users\kbuchi\AppData\Local\Temp\ccOUPaAd.s 			page 145


 5755 0a20 50       		.byte	0x50
 5756 0a21 04000000 		.4byte	.LVL209
 5757 0a25 0C000000 		.4byte	.LFE64
 5758 0a29 0400     		.2byte	0x4
 5759 0a2b F3       		.byte	0xf3
 5760 0a2c 01       		.uleb128 0x1
 5761 0a2d 50       		.byte	0x50
 5762 0a2e 9F       		.byte	0x9f
 5763 0a2f 00000000 		.4byte	0
 5764 0a33 00000000 		.4byte	0
 5765              	.LLST64:
 5766 0a37 00000000 		.4byte	.LVL211
 5767 0a3b 04000000 		.4byte	.LVL212
 5768 0a3f 0100     		.2byte	0x1
 5769 0a41 50       		.byte	0x50
 5770 0a42 04000000 		.4byte	.LVL212
 5771 0a46 0C000000 		.4byte	.LFE66
 5772 0a4a 0400     		.2byte	0x4
 5773 0a4c F3       		.byte	0xf3
 5774 0a4d 01       		.uleb128 0x1
 5775 0a4e 50       		.byte	0x50
 5776 0a4f 9F       		.byte	0x9f
 5777 0a50 00000000 		.4byte	0
 5778 0a54 00000000 		.4byte	0
 5779              	.LLST65:
 5780 0a58 00000000 		.4byte	.LVL215
 5781 0a5c 0A000000 		.4byte	.LVL217
 5782 0a60 0100     		.2byte	0x1
 5783 0a62 50       		.byte	0x50
 5784 0a63 0A000000 		.4byte	.LVL217
 5785 0a67 28000000 		.4byte	.LVL225
 5786 0a6b 0100     		.2byte	0x1
 5787 0a6d 56       		.byte	0x56
 5788 0a6e 28000000 		.4byte	.LVL225
 5789 0a72 2A000000 		.4byte	.LFE70
 5790 0a76 0400     		.2byte	0x4
 5791 0a78 F3       		.byte	0xf3
 5792 0a79 01       		.uleb128 0x1
 5793 0a7a 50       		.byte	0x50
 5794 0a7b 9F       		.byte	0x9f
 5795 0a7c 00000000 		.4byte	0
 5796 0a80 00000000 		.4byte	0
 5797              	.LLST66:
 5798 0a84 04000000 		.4byte	.LVL216
 5799 0a88 0A000000 		.4byte	.LVL217
 5800 0a8c 0200     		.2byte	0x2
 5801 0a8e 30       		.byte	0x30
 5802 0a8f 9F       		.byte	0x9f
 5803 0a90 0A000000 		.4byte	.LVL217
 5804 0a94 28000000 		.4byte	.LVL223
 5805 0a98 0100     		.2byte	0x1
 5806 0a9a 54       		.byte	0x54
 5807 0a9b 00000000 		.4byte	0
 5808 0a9f 00000000 		.4byte	0
 5809              	.LLST67:
 5810 0aa3 04000000 		.4byte	.LVL216
 5811 0aa7 0A000000 		.4byte	.LVL217
ARM GAS  C:\Users\kbuchi\AppData\Local\Temp\ccOUPaAd.s 			page 146


 5812 0aab 0200     		.2byte	0x2
 5813 0aad 30       		.byte	0x30
 5814 0aae 9F       		.byte	0x9f
 5815 0aaf 0A000000 		.4byte	.LVL217
 5816 0ab3 28000000 		.4byte	.LVL224
 5817 0ab7 0100     		.2byte	0x1
 5818 0ab9 55       		.byte	0x55
 5819 0aba 00000000 		.4byte	0
 5820 0abe 00000000 		.4byte	0
 5821              	.LLST68:
 5822 0ac2 02000000 		.4byte	.LVL228
 5823 0ac6 08000000 		.4byte	.LVL229
 5824 0aca 0200     		.2byte	0x2
 5825 0acc 30       		.byte	0x30
 5826 0acd 9F       		.byte	0x9f
 5827 0ace 08000000 		.4byte	.LVL229
 5828 0ad2 3A000000 		.4byte	.LVL241
 5829 0ad6 0100     		.2byte	0x1
 5830 0ad8 57       		.byte	0x57
 5831 0ad9 00000000 		.4byte	0
 5832 0add 00000000 		.4byte	0
 5833              	.LLST69:
 5834 0ae1 10000000 		.4byte	.LVL231
 5835 0ae5 18000000 		.4byte	.LVL233
 5836 0ae9 0100     		.2byte	0x1
 5837 0aeb 53       		.byte	0x53
 5838 0aec 18000000 		.4byte	.LVL233
 5839 0af0 28000000 		.4byte	.LVL236
 5840 0af4 0100     		.2byte	0x1
 5841 0af6 52       		.byte	0x52
 5842 0af7 28000000 		.4byte	.LVL236
 5843 0afb 2E000000 		.4byte	.LVL238
 5844 0aff 0100     		.2byte	0x1
 5845 0b01 53       		.byte	0x53
 5846 0b02 2E000000 		.4byte	.LVL238
 5847 0b06 30000000 		.4byte	.LVL239
 5848 0b0a 0100     		.2byte	0x1
 5849 0b0c 52       		.byte	0x52
 5850 0b0d 30000000 		.4byte	.LVL239
 5851 0b11 36000000 		.4byte	.LVL240
 5852 0b15 0100     		.2byte	0x1
 5853 0b17 53       		.byte	0x53
 5854 0b18 00000000 		.4byte	0
 5855 0b1c 00000000 		.4byte	0
 5856              	.LLST70:
 5857 0b20 12000000 		.4byte	.LVL232
 5858 0b24 36000000 		.4byte	.LVL240
 5859 0b28 0100     		.2byte	0x1
 5860 0b2a 55       		.byte	0x55
 5861 0b2b 00000000 		.4byte	0
 5862 0b2f 00000000 		.4byte	0
 5863              	.LLST71:
 5864 0b33 0C000000 		.4byte	.LVL230
 5865 0b37 12000000 		.4byte	.LVL232
 5866 0b3b 0100     		.2byte	0x1
 5867 0b3d 55       		.byte	0x55
 5868 0b3e 12000000 		.4byte	.LVL232
ARM GAS  C:\Users\kbuchi\AppData\Local\Temp\ccOUPaAd.s 			page 147


 5869 0b42 36000000 		.4byte	.LVL240
 5870 0b46 0800     		.2byte	0x8
 5871 0b48 77       		.byte	0x77
 5872 0b49 00       		.sleb128 0
 5873 0b4a 94       		.byte	0x94
 5874 0b4b 01       		.byte	0x1
 5875 0b4c 08       		.byte	0x8
 5876 0b4d FF       		.byte	0xff
 5877 0b4e 1A       		.byte	0x1a
 5878 0b4f 9F       		.byte	0x9f
 5879 0b50 00000000 		.4byte	0
 5880 0b54 00000000 		.4byte	0
 5881              	.LLST72:
 5882 0b58 08000000 		.4byte	.LVL229
 5883 0b5c 18000000 		.4byte	.LVL233
 5884 0b60 0200     		.2byte	0x2
 5885 0b62 30       		.byte	0x30
 5886 0b63 9F       		.byte	0x9f
 5887 0b64 18000000 		.4byte	.LVL233
 5888 0b68 28000000 		.4byte	.LVL236
 5889 0b6c 0100     		.2byte	0x1
 5890 0b6e 56       		.byte	0x56
 5891 0b6f 2E000000 		.4byte	.LVL238
 5892 0b73 30000000 		.4byte	.LVL239
 5893 0b77 0100     		.2byte	0x1
 5894 0b79 56       		.byte	0x56
 5895 0b7a 00000000 		.4byte	0
 5896 0b7e 00000000 		.4byte	0
 5897              		.section	.debug_aranges,"",%progbits
 5898 0000 54010000 		.4byte	0x154
 5899 0004 0200     		.2byte	0x2
 5900 0006 00000000 		.4byte	.Ldebug_info0
 5901 000a 04       		.byte	0x4
 5902 000b 00       		.byte	0
 5903 000c 0000     		.2byte	0
 5904 000e 0000     		.2byte	0
 5905 0010 00000000 		.4byte	.LFB34
 5906 0014 84000000 		.4byte	.LFE34-.LFB34
 5907 0018 00000000 		.4byte	.LFB35
 5908 001c 3C000000 		.4byte	.LFE35-.LFB35
 5909 0020 00000000 		.4byte	.LFB37
 5910 0024 2C000000 		.4byte	.LFE37-.LFB37
 5911 0028 00000000 		.4byte	.LFB42
 5912 002c 10000000 		.4byte	.LFE42-.LFB42
 5913 0030 00000000 		.4byte	.LFB43
 5914 0034 10000000 		.4byte	.LFE43-.LFB43
 5915 0038 00000000 		.4byte	.LFB44
 5916 003c 10000000 		.4byte	.LFE44-.LFB44
 5917 0040 00000000 		.4byte	.LFB45
 5918 0044 0C000000 		.4byte	.LFE45-.LFB45
 5919 0048 00000000 		.4byte	.LFB46
 5920 004c 0C000000 		.4byte	.LFE46-.LFB46
 5921 0050 00000000 		.4byte	.LFB48
 5922 0054 48000000 		.4byte	.LFE48-.LFB48
 5923 0058 00000000 		.4byte	.LFB49
 5924 005c 70000000 		.4byte	.LFE49-.LFB49
 5925 0060 00000000 		.4byte	.LFB47
ARM GAS  C:\Users\kbuchi\AppData\Local\Temp\ccOUPaAd.s 			page 148


 5926 0064 14000000 		.4byte	.LFE47-.LFB47
 5927 0068 00000000 		.4byte	.LFB52
 5928 006c 24000000 		.4byte	.LFE52-.LFB52
 5929 0070 00000000 		.4byte	.LFB50
 5930 0074 30000000 		.4byte	.LFE50-.LFB50
 5931 0078 00000000 		.4byte	.LFB51
 5932 007c 24000000 		.4byte	.LFE51-.LFB51
 5933 0080 00000000 		.4byte	.LFB55
 5934 0084 34000000 		.4byte	.LFE55-.LFB55
 5935 0088 00000000 		.4byte	.LFB56
 5936 008c 14000000 		.4byte	.LFE56-.LFB56
 5937 0090 00000000 		.4byte	.LFB33
 5938 0094 28000000 		.4byte	.LFE33-.LFB33
 5939 0098 00000000 		.4byte	.LFB36
 5940 009c 38000000 		.4byte	.LFE36-.LFB36
 5941 00a0 00000000 		.4byte	.LFB57
 5942 00a4 1C000000 		.4byte	.LFE57-.LFB57
 5943 00a8 00000000 		.4byte	.LFB58
 5944 00ac 18000000 		.4byte	.LFE58-.LFB58
 5945 00b0 00000000 		.4byte	.LFB38
 5946 00b4 24000000 		.4byte	.LFE38-.LFB38
 5947 00b8 00000000 		.4byte	.LFB53
 5948 00bc CC000000 		.4byte	.LFE53-.LFB53
 5949 00c0 00000000 		.4byte	.LFB39
 5950 00c4 1C000000 		.4byte	.LFE39-.LFB39
 5951 00c8 00000000 		.4byte	.LFB41
 5952 00cc 34000000 		.4byte	.LFE41-.LFB41
 5953 00d0 00000000 		.4byte	.LFB54
 5954 00d4 8C000000 		.4byte	.LFE54-.LFB54
 5955 00d8 00000000 		.4byte	.LFB59
 5956 00dc 26000000 		.4byte	.LFE59-.LFB59
 5957 00e0 00000000 		.4byte	.LFB40
 5958 00e4 98000000 		.4byte	.LFE40-.LFB40
 5959 00e8 00000000 		.4byte	.LFB60
 5960 00ec 0C000000 		.4byte	.LFE60-.LFB60
 5961 00f0 00000000 		.4byte	.LFB61
 5962 00f4 0C000000 		.4byte	.LFE61-.LFB61
 5963 00f8 00000000 		.4byte	.LFB62
 5964 00fc 0C000000 		.4byte	.LFE62-.LFB62
 5965 0100 00000000 		.4byte	.LFB63
 5966 0104 0C000000 		.4byte	.LFE63-.LFB63
 5967 0108 00000000 		.4byte	.LFB64
 5968 010c 0C000000 		.4byte	.LFE64-.LFB64
 5969 0110 00000000 		.4byte	.LFB65
 5970 0114 0C000000 		.4byte	.LFE65-.LFB65
 5971 0118 00000000 		.4byte	.LFB66
 5972 011c 0C000000 		.4byte	.LFE66-.LFB66
 5973 0120 00000000 		.4byte	.LFB67
 5974 0124 0C000000 		.4byte	.LFE67-.LFB67
 5975 0128 00000000 		.4byte	.LFB68
 5976 012c 14000000 		.4byte	.LFE68-.LFB68
 5977 0130 00000000 		.4byte	.LFB69
 5978 0134 28000000 		.4byte	.LFE69-.LFB69
 5979 0138 00000000 		.4byte	.LFB70
 5980 013c 2A000000 		.4byte	.LFE70-.LFB70
 5981 0140 00000000 		.4byte	.LFB71
 5982 0144 0C000000 		.4byte	.LFE71-.LFB71
ARM GAS  C:\Users\kbuchi\AppData\Local\Temp\ccOUPaAd.s 			page 149


 5983 0148 00000000 		.4byte	.LFB72
 5984 014c 44000000 		.4byte	.LFE72-.LFB72
 5985 0150 00000000 		.4byte	0
 5986 0154 00000000 		.4byte	0
 5987              		.section	.debug_ranges,"",%progbits
 5988              	.Ldebug_ranges0:
 5989 0000 00000000 		.4byte	.LFB34
 5990 0004 84000000 		.4byte	.LFE34
 5991 0008 00000000 		.4byte	.LFB35
 5992 000c 3C000000 		.4byte	.LFE35
 5993 0010 00000000 		.4byte	.LFB37
 5994 0014 2C000000 		.4byte	.LFE37
 5995 0018 00000000 		.4byte	.LFB42
 5996 001c 10000000 		.4byte	.LFE42
 5997 0020 00000000 		.4byte	.LFB43
 5998 0024 10000000 		.4byte	.LFE43
 5999 0028 00000000 		.4byte	.LFB44
 6000 002c 10000000 		.4byte	.LFE44
 6001 0030 00000000 		.4byte	.LFB45
 6002 0034 0C000000 		.4byte	.LFE45
 6003 0038 00000000 		.4byte	.LFB46
 6004 003c 0C000000 		.4byte	.LFE46
 6005 0040 00000000 		.4byte	.LFB48
 6006 0044 48000000 		.4byte	.LFE48
 6007 0048 00000000 		.4byte	.LFB49
 6008 004c 70000000 		.4byte	.LFE49
 6009 0050 00000000 		.4byte	.LFB47
 6010 0054 14000000 		.4byte	.LFE47
 6011 0058 00000000 		.4byte	.LFB52
 6012 005c 24000000 		.4byte	.LFE52
 6013 0060 00000000 		.4byte	.LFB50
 6014 0064 30000000 		.4byte	.LFE50
 6015 0068 00000000 		.4byte	.LFB51
 6016 006c 24000000 		.4byte	.LFE51
 6017 0070 00000000 		.4byte	.LFB55
 6018 0074 34000000 		.4byte	.LFE55
 6019 0078 00000000 		.4byte	.LFB56
 6020 007c 14000000 		.4byte	.LFE56
 6021 0080 00000000 		.4byte	.LFB33
 6022 0084 28000000 		.4byte	.LFE33
 6023 0088 00000000 		.4byte	.LFB36
 6024 008c 38000000 		.4byte	.LFE36
 6025 0090 00000000 		.4byte	.LFB57
 6026 0094 1C000000 		.4byte	.LFE57
 6027 0098 00000000 		.4byte	.LFB58
 6028 009c 18000000 		.4byte	.LFE58
 6029 00a0 00000000 		.4byte	.LFB38
 6030 00a4 24000000 		.4byte	.LFE38
 6031 00a8 00000000 		.4byte	.LFB53
 6032 00ac CC000000 		.4byte	.LFE53
 6033 00b0 00000000 		.4byte	.LFB39
 6034 00b4 1C000000 		.4byte	.LFE39
 6035 00b8 00000000 		.4byte	.LFB41
 6036 00bc 34000000 		.4byte	.LFE41
 6037 00c0 00000000 		.4byte	.LFB54
 6038 00c4 8C000000 		.4byte	.LFE54
 6039 00c8 00000000 		.4byte	.LFB59
ARM GAS  C:\Users\kbuchi\AppData\Local\Temp\ccOUPaAd.s 			page 150


 6040 00cc 26000000 		.4byte	.LFE59
 6041 00d0 00000000 		.4byte	.LFB40
 6042 00d4 98000000 		.4byte	.LFE40
 6043 00d8 00000000 		.4byte	.LFB60
 6044 00dc 0C000000 		.4byte	.LFE60
 6045 00e0 00000000 		.4byte	.LFB61
 6046 00e4 0C000000 		.4byte	.LFE61
 6047 00e8 00000000 		.4byte	.LFB62
 6048 00ec 0C000000 		.4byte	.LFE62
 6049 00f0 00000000 		.4byte	.LFB63
 6050 00f4 0C000000 		.4byte	.LFE63
 6051 00f8 00000000 		.4byte	.LFB64
 6052 00fc 0C000000 		.4byte	.LFE64
 6053 0100 00000000 		.4byte	.LFB65
 6054 0104 0C000000 		.4byte	.LFE65
 6055 0108 00000000 		.4byte	.LFB66
 6056 010c 0C000000 		.4byte	.LFE66
 6057 0110 00000000 		.4byte	.LFB67
 6058 0114 0C000000 		.4byte	.LFE67
 6059 0118 00000000 		.4byte	.LFB68
 6060 011c 14000000 		.4byte	.LFE68
 6061 0120 00000000 		.4byte	.LFB69
 6062 0124 28000000 		.4byte	.LFE69
 6063 0128 00000000 		.4byte	.LFB70
 6064 012c 2A000000 		.4byte	.LFE70
 6065 0130 00000000 		.4byte	.LFB71
 6066 0134 0C000000 		.4byte	.LFE71
 6067 0138 00000000 		.4byte	.LFB72
 6068 013c 44000000 		.4byte	.LFE72
 6069 0140 00000000 		.4byte	0
 6070 0144 00000000 		.4byte	0
 6071              		.section	.debug_line,"",%progbits
 6072              	.Ldebug_line0:
 6073 0000 F6040000 		.section	.debug_str,"MS",%progbits,1
 6073      0200A200 
 6073      00000201 
 6073      FB0E0D00 
 6073      01010101 
 6074              	.LASF126:
 6075 0000 4379496E 		.ascii	"CyIntSetPriority\000"
 6075      74536574 
 6075      5072696F 
 6075      72697479 
 6075      00
 6076              	.LASF102:
 6077 0011 7363616E 		.ascii	"scanSpeedTbl\000"
 6077      53706565 
 6077      6454626C 
 6077      00
 6078              	.LASF71:
 6079 001e 43617053 		.ascii	"CapSense_PostScan\000"
 6079      656E7365 
 6079      5F506F73 
 6079      74536361 
 6079      6E00
 6080              	.LASF103:
 6081 0030 43617053 		.ascii	"CapSense_csdStatusVar\000"
ARM GAS  C:\Users\kbuchi\AppData\Local\Temp\ccOUPaAd.s 			page 151


 6081      656E7365 
 6081      5F637364 
 6081      53746174 
 6081      75735661 
 6082              	.LASF110:
 6083 0046 43617053 		.ascii	"CapSense_compensationIDAC\000"
 6083      656E7365 
 6083      5F636F6D 
 6083      70656E73 
 6083      6174696F 
 6084              	.LASF131:
 6085 0060 43617053 		.ascii	"CapSense_SenseClk_Start\000"
 6085      656E7365 
 6085      5F53656E 
 6085      7365436C 
 6085      6B5F5374 
 6086              	.LASF120:
 6087 0078 43617053 		.ascii	"CapSense_maskTable\000"
 6087      656E7365 
 6087      5F6D6173 
 6087      6B546162 
 6087      6C6500
 6088              	.LASF8:
 6089 008b 756E7369 		.ascii	"unsigned int\000"
 6089      676E6564 
 6089      20696E74 
 6089      00
 6090              	.LASF113:
 6091 0098 43617053 		.ascii	"CapSense_sampleClkDividerVal\000"
 6091      656E7365 
 6091      5F73616D 
 6091      706C6543 
 6091      6C6B4469 
 6092              	.LASF34:
 6093 00b5 696E7465 		.ascii	"interruptState\000"
 6093      72727570 
 6093      74537461 
 6093      746500
 6094              	.LASF15:
 6095 00c4 72656738 		.ascii	"reg8\000"
 6095      00
 6096              	.LASF96:
 6097 00c9 77696467 		.ascii	"widgetsNum\000"
 6097      6574734E 
 6097      756D00
 6098              	.LASF55:
 6099 00d4 43617053 		.ascii	"CapSense_Start\000"
 6099      656E7365 
 6099      5F537461 
 6099      727400
 6100              	.LASF73:
 6101 00e3 43617053 		.ascii	"CapSense_ScanWidget\000"
 6101      656E7365 
 6101      5F536361 
 6101      6E576964 
 6101      67657400 
 6102              	.LASF33:
ARM GAS  C:\Users\kbuchi\AppData\Local\Temp\ccOUPaAd.s 			page 152


 6103 00f7 70696E48 		.ascii	"pinHSIOMShift\000"
 6103      53494F4D 
 6103      53686966 
 6103      7400
 6104              	.LASF77:
 6105 0105 43617053 		.ascii	"CapSense_SetSenseClkDivider\000"
 6105      656E7365 
 6105      5F536574 
 6105      53656E73 
 6105      65436C6B 
 6106              	.LASF125:
 6107 0121 4379496E 		.ascii	"CyIntDisable\000"
 6107      74446973 
 6107      61626C65 
 6107      00
 6108              	.LASF93:
 6109 012e 61766756 		.ascii	"avgVal\000"
 6109      616C00
 6110              	.LASF57:
 6111 0135 43617053 		.ascii	"CapSense_IsBusy\000"
 6111      656E7365 
 6111      5F497342 
 6111      75737900 
 6112              	.LASF32:
 6113 0145 70696E4D 		.ascii	"pinModeShift\000"
 6113      6F646553 
 6113      68696674 
 6113      00
 6114              	.LASF86:
 6115 0152 43617053 		.ascii	"CapSense_SetCompensationIDAC\000"
 6115      656E7365 
 6115      5F536574 
 6115      436F6D70 
 6115      656E7361 
 6116              	.LASF122:
 6117 016f 43617053 		.ascii	"CapSense_rawDataIndex\000"
 6117      656E7365 
 6117      5F726177 
 6117      44617461 
 6117      496E6465 
 6118              	.LASF37:
 6119 0185 43617053 		.ascii	"CapSense_DisableSensor\000"
 6119      656E7365 
 6119      5F446973 
 6119      61626C65 
 6119      53656E73 
 6120              	.LASF19:
 6121 019c 43617053 		.ascii	"CapSense_CsdHwBlockInit\000"
 6121      656E7365 
 6121      5F437364 
 6121      4877426C 
 6121      6F636B49 
 6122              	.LASF38:
 6123 01b4 696E6163 		.ascii	"inactiveConnect\000"
 6123      74697665 
 6123      436F6E6E 
 6123      65637400 
ARM GAS  C:\Users\kbuchi\AppData\Local\Temp\ccOUPaAd.s 			page 153


 6124              	.LASF124:
 6125 01c4 43617053 		.ascii	"CapSense_csdTrim1\000"
 6125      656E7365 
 6125      5F637364 
 6125      5472696D 
 6125      3100
 6126              	.LASF22:
 6127 01d6 43617053 		.ascii	"CapSense_Stop\000"
 6127      656E7365 
 6127      5F53746F 
 6127      7000
 6128              	.LASF137:
 6129 01e4 2E5C4765 		.ascii	".\\Generated_Source\\PSoC4\\CapSense.c\000"
 6129      6E657261 
 6129      7465645F 
 6129      536F7572 
 6129      63655C50 
 6130              	.LASF115:
 6131 0208 43617053 		.ascii	"CapSense_prtSelTbl\000"
 6131      656E7365 
 6131      5F707274 
 6131      53656C54 
 6131      626C00
 6132              	.LASF40:
 6133 021b 43617053 		.ascii	"CapSense_ClearSensors\000"
 6133      656E7365 
 6133      5F436C65 
 6133      61725365 
 6133      6E736F72 
 6134              	.LASF117:
 6135 0231 43617053 		.ascii	"CapSense_prtDRTbl\000"
 6135      656E7365 
 6135      5F707274 
 6135      44525462 
 6135      6C00
 6136              	.LASF51:
 6137 0243 43617053 		.ascii	"CapSense_EnableShieldElectrode\000"
 6137      656E7365 
 6137      5F456E61 
 6137      626C6553 
 6137      6869656C 
 6138              	.LASF12:
 6139 0262 666C6F61 		.ascii	"float\000"
 6139      7400
 6140              	.LASF7:
 6141 0268 6C6F6E67 		.ascii	"long long unsigned int\000"
 6141      206C6F6E 
 6141      6720756E 
 6141      7369676E 
 6141      65642069 
 6142              	.LASF104:
 6143 027f 43617053 		.ascii	"CapSense_sensorIndex\000"
 6143      656E7365 
 6143      5F73656E 
 6143      736F7249 
 6143      6E646578 
 6144              	.LASF27:
ARM GAS  C:\Users\kbuchi\AppData\Local\Temp\ccOUPaAd.s 			page 154


 6145 0294 77696467 		.ascii	"widget\000"
 6145      657400
 6146              	.LASF52:
 6147 029b 43617053 		.ascii	"CapSense_SetShieldDelay\000"
 6147      656E7365 
 6147      5F536574 
 6147      53686965 
 6147      6C644465 
 6148              	.LASF114:
 6149 02b3 43617053 		.ascii	"CapSense_widgetNumber\000"
 6149      656E7365 
 6149      5F776964 
 6149      6765744E 
 6149      756D6265 
 6150              	.LASF116:
 6151 02c9 43617053 		.ascii	"CapSense_prtCfgTbl\000"
 6151      656E7365 
 6151      5F707274 
 6151      43666754 
 6151      626C00
 6152              	.LASF30:
 6153 02dc 43617053 		.ascii	"CapSense_GetScanResolution\000"
 6153      656E7365 
 6153      5F476574 
 6153      5363616E 
 6153      5265736F 
 6154              	.LASF95:
 6155 02f7 43617053 		.ascii	"CapSense_NormalizeWidgets\000"
 6155      656E7365 
 6155      5F4E6F72 
 6155      6D616C69 
 6155      7A655769 
 6156              	.LASF81:
 6157 0311 6D6F6475 		.ascii	"modulatorClk\000"
 6157      6C61746F 
 6157      72436C6B 
 6157      00
 6158              	.LASF25:
 6159 031e 76616C75 		.ascii	"value\000"
 6159      6500
 6160              	.LASF35:
 6161 0324 6E657752 		.ascii	"newRegisterValue\000"
 6161      65676973 
 6161      74657256 
 6161      616C7565 
 6161      00
 6162              	.LASF23:
 6163 0335 43617053 		.ascii	"CapSense_WriteSensorRaw\000"
 6163      656E7365 
 6163      5F577269 
 6163      74655365 
 6163      6E736F72 
 6164              	.LASF112:
 6165 034d 43617053 		.ascii	"CapSense_senseClkDividerVal\000"
 6165      656E7365 
 6165      5F73656E 
 6165      7365436C 
ARM GAS  C:\Users\kbuchi\AppData\Local\Temp\ccOUPaAd.s 			page 155


 6165      6B446976 
 6166              	.LASF20:
 6167 0369 43617053 		.ascii	"CapSense_Enable\000"
 6167      656E7365 
 6167      5F456E61 
 6167      626C6500 
 6168              	.LASF39:
 6169 0379 73656E73 		.ascii	"sensorState\000"
 6169      6F725374 
 6169      61746500 
 6170              	.LASF66:
 6171 0385 43617053 		.ascii	"CapSense_PreScan\000"
 6171      656E7365 
 6171      5F507265 
 6171      5363616E 
 6171      00
 6172              	.LASF62:
 6173 0396 6F666673 		.ascii	"offset\000"
 6173      657400
 6174              	.LASF26:
 6175 039d 43617053 		.ascii	"CapSense_SetScanResolution\000"
 6175      656E7365 
 6175      5F536574 
 6175      5363616E 
 6175      5265736F 
 6176              	.LASF69:
 6177 03b8 43617053 		.ascii	"CapSense_ScanSensor\000"
 6177      656E7365 
 6177      5F536361 
 6177      6E53656E 
 6177      736F7200 
 6178              	.LASF48:
 6179 03cc 7072744E 		.ascii	"prtNumberTmp\000"
 6179      756D6265 
 6179      72546D70 
 6179      00
 6180              	.LASF74:
 6181 03d9 73656E73 		.ascii	"sensorsPerWidget\000"
 6181      6F727350 
 6181      65725769 
 6181      64676574 
 6181      00
 6182              	.LASF136:
 6183 03ea 474E5520 		.ascii	"GNU C 4.8.4 20140526 (release) [ARM/embedded-4_8-br"
 6183      4320342E 
 6183      382E3420 
 6183      32303134 
 6183      30353236 
 6184 041d 616E6368 		.ascii	"anch revision 211358] -mcpu=cortex-m0 -mthumb -g -O"
 6184      20726576 
 6184      6973696F 
 6184      6E203231 
 6184      31333538 
 6185 0450 67202D66 		.ascii	"g -ffunction-sections\000"
 6185      66756E63 
 6185      74696F6E 
 6185      2D736563 
ARM GAS  C:\Users\kbuchi\AppData\Local\Temp\ccOUPaAd.s 			page 156


 6185      74696F6E 
 6186              	.LASF56:
 6187 0466 43617053 		.ascii	"CapSense_initVar\000"
 6187      656E7365 
 6187      5F696E69 
 6187      74566172 
 6187      00
 6188              	.LASF123:
 6189 0477 43617053 		.ascii	"CapSense_numberOfSensors\000"
 6189      656E7365 
 6189      5F6E756D 
 6189      6265724F 
 6189      6653656E 
 6190              	.LASF92:
 6191 0490 63757253 		.ascii	"curSample\000"
 6191      616D706C 
 6191      6500
 6192              	.LASF24:
 6193 049a 73656E73 		.ascii	"sensor\000"
 6193      6F7200
 6194              	.LASF105:
 6195 04a1 43617053 		.ascii	"CapSense_sensorRaw\000"
 6195      656E7365 
 6195      5F73656E 
 6195      736F7252 
 6195      617700
 6196              	.LASF14:
 6197 04b4 63686172 		.ascii	"char\000"
 6197      00
 6198              	.LASF134:
 6199 04b9 43794578 		.ascii	"CyExitCriticalSection\000"
 6199      69744372 
 6199      69746963 
 6199      616C5365 
 6199      6374696F 
 6200              	.LASF141:
 6201 04cf 43794465 		.ascii	"CyDelayCycles\000"
 6201      6C617943 
 6201      79636C65 
 6201      7300
 6202              	.LASF60:
 6203 04dd 7461626C 		.ascii	"table\000"
 6203      6500
 6204              	.LASF64:
 6205 04e3 43617053 		.ascii	"CapSense_FindNextSensor\000"
 6205      656E7365 
 6205      5F46696E 
 6205      644E6578 
 6205      7453656E 
 6206              	.LASF118:
 6207 04fb 43617053 		.ascii	"CapSense_pcTable\000"
 6207      656E7365 
 6207      5F706354 
 6207      61626C65 
 6207      00
 6208              	.LASF10:
 6209 050c 75696E74 		.ascii	"uint16\000"
ARM GAS  C:\Users\kbuchi\AppData\Local\Temp\ccOUPaAd.s 			page 157


 6209      313600
 6210              	.LASF139:
 6211 0513 4379496E 		.ascii	"CyIntSetVector\000"
 6211      74536574 
 6211      56656374 
 6211      6F7200
 6212              	.LASF28:
 6213 0522 7265736F 		.ascii	"resolution\000"
 6213      6C757469 
 6213      6F6E00
 6214              	.LASF111:
 6215 052d 43617053 		.ascii	"CapSense_widgetResolution\000"
 6215      656E7365 
 6215      5F776964 
 6215      67657452 
 6215      65736F6C 
 6216              	.LASF49:
 6217 0547 70696E4E 		.ascii	"pinNumberTmp\000"
 6217      756D6265 
 6217      72546D70 
 6217      00
 6218              	.LASF88:
 6219 0554 43617053 		.ascii	"CapSense_GetIDACRange\000"
 6219      656E7365 
 6219      5F476574 
 6219      49444143 
 6219      52616E67 
 6220              	.LASF70:
 6221 056a 43617053 		.ascii	"CapSense_ScanEnabledWidgets\000"
 6221      656E7365 
 6221      5F536361 
 6221      6E456E61 
 6221      626C6564 
 6222              	.LASF109:
 6223 0586 43617053 		.ascii	"CapSense_modulationIDAC\000"
 6223      656E7365 
 6223      5F6D6F64 
 6223      756C6174 
 6223      696F6E49 
 6224              	.LASF6:
 6225 059e 6C6F6E67 		.ascii	"long long int\000"
 6225      206C6F6E 
 6225      6720696E 
 6225      7400
 6226              	.LASF65:
 6227 05ac 656E6162 		.ascii	"enableFlag\000"
 6227      6C65466C 
 6227      616700
 6228              	.LASF121:
 6229 05b7 43617053 		.ascii	"CapSense_pinShiftTbl\000"
 6229      656E7365 
 6229      5F70696E 
 6229      53686966 
 6229      7454626C 
 6230              	.LASF98:
 6231 05cc 63757272 		.ascii	"currentWidget\000"
 6231      656E7457 
ARM GAS  C:\Users\kbuchi\AppData\Local\Temp\ccOUPaAd.s 			page 158


 6231      69646765 
 6231      7400
 6232              	.LASF31:
 6233 05da 43617053 		.ascii	"CapSense_EnableSensor\000"
 6233      656E7365 
 6233      5F456E61 
 6233      626C6553 
 6233      656E736F 
 6234              	.LASF80:
 6235 05f0 43617053 		.ascii	"CapSense_SetModulatorClkDivider\000"
 6235      656E7365 
 6235      5F536574 
 6235      4D6F6475 
 6235      6C61746F 
 6236              	.LASF106:
 6237 0610 43617053 		.ascii	"CapSense_unscannedSnsDriveMode\000"
 6237      656E7365 
 6237      5F756E73 
 6237      63616E6E 
 6237      6564536E 
 6238              	.LASF17:
 6239 062f 63796973 		.ascii	"cyisraddress\000"
 6239      72616464 
 6239      72657373 
 6239      00
 6240              	.LASF76:
 6241 063c 43617053 		.ascii	"CapSense_GetSenseClkDivider\000"
 6241      656E7365 
 6241      5F476574 
 6241      53656E73 
 6241      65436C6B 
 6242              	.LASF11:
 6243 0658 75696E74 		.ascii	"uint32\000"
 6243      333200
 6244              	.LASF44:
 6245 065f 70696E4E 		.ascii	"pinNumber\000"
 6245      756D6265 
 6245      7200
 6246              	.LASF41:
 6247 0669 736E7349 		.ascii	"snsIndex\000"
 6247      6E646578 
 6247      00
 6248              	.LASF75:
 6249 0672 6C617374 		.ascii	"lastSensor\000"
 6249      53656E73 
 6249      6F7200
 6250              	.LASF16:
 6251 067d 72656733 		.ascii	"reg32\000"
 6251      3200
 6252              	.LASF50:
 6253 0683 43617053 		.ascii	"CapSense_RestoreDriveModeAllPins\000"
 6253      656E7365 
 6253      5F526573 
 6253      746F7265 
 6253      44726976 
 6254              	.LASF127:
 6255 06a4 43617053 		.ascii	"CapSense_SenseClk_Stop\000"
ARM GAS  C:\Users\kbuchi\AppData\Local\Temp\ccOUPaAd.s 			page 159


 6255      656E7365 
 6255      5F53656E 
 6255      7365436C 
 6255      6B5F5374 
 6256              	.LASF89:
 6257 06bb 43617053 		.ascii	"CapSense_SetIDACRange\000"
 6257      656E7365 
 6257      5F536574 
 6257      49444143 
 6257      52616E67 
 6258              	.LASF45:
 6259 06d1 706F7274 		.ascii	"portNumber\000"
 6259      4E756D62 
 6259      657200
 6260              	.LASF100:
 6261 06dc 6D617850 		.ascii	"maxPerWidget\000"
 6261      65725769 
 6261      64676574 
 6261      00
 6262              	.LASF91:
 6263 06e9 43617053 		.ascii	"CapSense_GetSensorRaw\000"
 6263      656E7365 
 6263      5F476574 
 6263      53656E73 
 6263      6F725261 
 6264              	.LASF54:
 6265 06ff 43617053 		.ascii	"CapSense_Init\000"
 6265      656E7365 
 6265      5F496E69 
 6265      7400
 6266              	.LASF78:
 6267 070d 73656E73 		.ascii	"senseClk\000"
 6267      65436C6B 
 6267      00
 6268              	.LASF42:
 6269 0716 43617053 		.ascii	"CapSense_SetPinDriveMode\000"
 6269      656E7365 
 6269      5F536574 
 6269      50696E44 
 6269      72697665 
 6270              	.LASF2:
 6271 072f 73686F72 		.ascii	"short int\000"
 6271      7420696E 
 6271      7400
 6272              	.LASF4:
 6273 0739 6C6F6E67 		.ascii	"long int\000"
 6273      20696E74 
 6273      00
 6274              	.LASF53:
 6275 0742 64656C61 		.ascii	"delay\000"
 6275      7900
 6276              	.LASF58:
 6277 0748 43617053 		.ascii	"CapSense_ReadCurrentScanningSensor\000"
 6277      656E7365 
 6277      5F526561 
 6277      64437572 
 6277      72656E74 
ARM GAS  C:\Users\kbuchi\AppData\Local\Temp\ccOUPaAd.s 			page 160


 6278              	.LASF46:
 6279 076b 43617053 		.ascii	"CapSense_SetDriveModeAllPins\000"
 6279      656E7365 
 6279      5F536574 
 6279      44726976 
 6279      654D6F64 
 6280              	.LASF107:
 6281 0788 43617053 		.ascii	"CapSense_sensorEnableMaskBackup\000"
 6281      656E7365 
 6281      5F73656E 
 6281      736F7245 
 6281      6E61626C 
 6282              	.LASF94:
 6283 07a8 43617053 		.ascii	"CapSense_SetUnscannedSensorState\000"
 6283      656E7365 
 6283      5F536574 
 6283      556E7363 
 6283      616E6E65 
 6284              	.LASF129:
 6285 07c9 43617053 		.ascii	"CapSense_SampleClk_SetFractionalDividerRegister\000"
 6285      656E7365 
 6285      5F53616D 
 6285      706C6543 
 6285      6C6B5F53 
 6286              	.LASF79:
 6287 07f9 43617053 		.ascii	"CapSense_GetModulatorClkDivider\000"
 6287      656E7365 
 6287      5F476574 
 6287      4D6F6475 
 6287      6C61746F 
 6288              	.LASF108:
 6289 0819 43617053 		.ascii	"CapSense_sensorEnableMask\000"
 6289      656E7365 
 6289      5F73656E 
 6289      736F7245 
 6289      6E61626C 
 6290              	.LASF90:
 6291 0833 69446163 		.ascii	"iDacRange\000"
 6291      52616E67 
 6291      6500
 6292              	.LASF119:
 6293 083d 43617053 		.ascii	"CapSense_portTable\000"
 6293      656E7365 
 6293      5F706F72 
 6293      74546162 
 6293      6C6500
 6294              	.LASF99:
 6295 0850 63757272 		.ascii	"currentSensor\000"
 6295      656E7453 
 6295      656E736F 
 6295      7200
 6296              	.LASF87:
 6297 085e 636F6D70 		.ascii	"compIdacValue\000"
 6297      49646163 
 6297      56616C75 
 6297      6500
 6298              	.LASF128:
ARM GAS  C:\Users\kbuchi\AppData\Local\Temp\ccOUPaAd.s 			page 161


 6299 086c 43617053 		.ascii	"CapSense_SampleClk_Stop\000"
 6299      656E7365 
 6299      5F53616D 
 6299      706C6543 
 6299      6C6B5F53 
 6300              	.LASF84:
 6301 0884 6D6F6449 		.ascii	"modIdacValue\000"
 6301      64616356 
 6301      616C7565 
 6301      00
 6302              	.LASF18:
 6303 0891 73697A65 		.ascii	"sizetype\000"
 6303      74797065 
 6303      00
 6304              	.LASF5:
 6305 089a 6C6F6E67 		.ascii	"long unsigned int\000"
 6305      20756E73 
 6305      69676E65 
 6305      6420696E 
 6305      7400
 6306              	.LASF138:
 6307 08ac 433A5C57 		.ascii	"C:\\WORKS\\WS\\WS_E2\\psoc\\D-21_s-7#1\\D-21_s-7#1."
 6307      4F524B53 
 6307      5C57535C 
 6307      57535F45 
 6307      325C7073 
 6308 08d9 63796473 		.ascii	"cydsn\000"
 6308      6E00
 6309              	.LASF36:
 6310 08df 706F7274 		.ascii	"port\000"
 6310      00
 6311              	.LASF132:
 6312 08e4 43617053 		.ascii	"CapSense_SampleClk_Start\000"
 6312      656E7365 
 6312      5F53616D 
 6312      706C6543 
 6312      6C6B5F53 
 6313              	.LASF63:
 6314 08fd 656E4D61 		.ascii	"enMask\000"
 6314      736B00
 6315              	.LASF135:
 6316 0904 43617053 		.ascii	"CapSense_AutoTune\000"
 6316      656E7365 
 6316      5F417574 
 6316      6F54756E 
 6316      6500
 6317              	.LASF1:
 6318 0916 756E7369 		.ascii	"unsigned char\000"
 6318      676E6564 
 6318      20636861 
 6318      7200
 6319              	.LASF67:
 6320 0924 636F756E 		.ascii	"counterResolution\000"
 6320      74657252 
 6320      65736F6C 
 6320      7574696F 
 6320      6E00
ARM GAS  C:\Users\kbuchi\AppData\Local\Temp\ccOUPaAd.s 			page 162


 6321              	.LASF29:
 6322 0936 43617053 		.ascii	"CapSense_ReadSensorRaw\000"
 6322      656E7365 
 6322      5F526561 
 6322      6453656E 
 6322      736F7252 
 6323              	.LASF83:
 6324 094d 43617053 		.ascii	"CapSense_SetModulationIDAC\000"
 6324      656E7365 
 6324      5F536574 
 6324      4D6F6475 
 6324      6C617469 
 6325              	.LASF72:
 6326 0968 43617053 		.ascii	"CapSense_SetBitValue\000"
 6326      656E7365 
 6326      5F536574 
 6326      42697456 
 6326      616C7565 
 6327              	.LASF59:
 6328 097d 43617053 		.ascii	"CapSense_GetBitValue\000"
 6328      656E7365 
 6328      5F476574 
 6328      42697456 
 6328      616C7565 
 6329              	.LASF85:
 6330 0992 43617053 		.ascii	"CapSense_GetCompensationIDAC\000"
 6330      656E7365 
 6330      5F476574 
 6330      436F6D70 
 6330      656E7361 
 6331              	.LASF101:
 6332 09af 43617053 		.ascii	"CapSense_lowLevelTuningDone\000"
 6332      656E7365 
 6332      5F6C6F77 
 6332      4C657665 
 6332      6C54756E 
 6333              	.LASF130:
 6334 09cb 43617053 		.ascii	"CapSense_SenseClk_SetFractionalDividerRegister\000"
 6334      656E7365 
 6334      5F53656E 
 6334      7365436C 
 6334      6B5F5365 
 6335              	.LASF133:
 6336 09fa 4379496E 		.ascii	"CyIntEnable\000"
 6336      74456E61 
 6336      626C6500 
 6337              	.LASF82:
 6338 0a06 43617053 		.ascii	"CapSense_GetModulationIDAC\000"
 6338      656E7365 
 6338      5F476574 
 6338      4D6F6475 
 6338      6C617469 
 6339              	.LASF140:
 6340 0a21 4379456E 		.ascii	"CyEnterCriticalSection\000"
 6340      74657243 
 6340      72697469 
 6340      63616C53 
ARM GAS  C:\Users\kbuchi\AppData\Local\Temp\ccOUPaAd.s 			page 163


 6340      65637469 
 6341              	.LASF0:
 6342 0a38 7369676E 		.ascii	"signed char\000"
 6342      65642063 
 6342      68617200 
 6343              	.LASF97:
 6344 0a44 64617461 		.ascii	"dataPtr\000"
 6344      50747200 
 6345              	.LASF3:
 6346 0a4c 73686F72 		.ascii	"short unsigned int\000"
 6346      7420756E 
 6346      7369676E 
 6346      65642069 
 6346      6E7400
 6347              	.LASF21:
 6348 0a5f 6E657752 		.ascii	"newRegValue\000"
 6348      65675661 
 6348      6C756500 
 6349              	.LASF9:
 6350 0a6b 75696E74 		.ascii	"uint8\000"
 6350      3800
 6351              	.LASF13:
 6352 0a71 646F7562 		.ascii	"double\000"
 6352      6C6500
 6353              	.LASF47:
 6354 0a78 63757253 		.ascii	"curSensor\000"
 6354      656E736F 
 6354      7200
 6355              	.LASF68:
 6356 0a82 6F766572 		.ascii	"oversamplingFactor\000"
 6356      73616D70 
 6356      6C696E67 
 6356      46616374 
 6356      6F7200
 6357              	.LASF43:
 6358 0a95 64726976 		.ascii	"driveMode\000"
 6358      654D6F64 
 6358      6500
 6359              	.LASF61:
 6360 0a9f 706F7369 		.ascii	"position\000"
 6360      74696F6E 
 6360      00
 6361              		.ident	"GCC: (GNU Tools for ARM Embedded Processors) 4.8.4 20140526 (release) [ARM/embedded-4_8-br
