ARM GAS  C:\Users\kbuchi\AppData\Local\Temp\ccOUPaAd.s 			page 1


   1              		.cpu cortex-m0
   2              		.fpu softvfp
   3              		.eabi_attribute 20, 1
   4              		.eabi_attribute 21, 1
   5              		.eabi_attribute 23, 3
   6              		.eabi_attribute 24, 1
   7              		.eabi_attribute 25, 1
   8              		.eabi_attribute 26, 1
   9              		.eabi_attribute 30, 1
  10              		.eabi_attribute 34, 0
  11              		.eabi_attribute 18, 4
  12              		.code	16
  13              		.file	"CapSense.c"
  14              		.text
  15              	.Ltext0:
  16              		.cfi_sections	.debug_frame
  17              		.section	.text.CapSense_CsdHwBlockInit,"ax",%progbits
  18              		.align	2
  19              		.global	CapSense_CsdHwBlockInit
  20              		.code	16
  21              		.thumb_func
  22              		.type	CapSense_CsdHwBlockInit, %function
  23              	CapSense_CsdHwBlockInit:
  24              	.LFB34:
  25              		.file 1 ".\\Generated_Source\\PSoC4\\CapSense.c"
   1:.\Generated_Source\PSoC4/CapSense.c **** /*******************************************************************************
   2:.\Generated_Source\PSoC4/CapSense.c **** * File Name: CapSense.c
   3:.\Generated_Source\PSoC4/CapSense.c **** * Version 2.20
   4:.\Generated_Source\PSoC4/CapSense.c **** *
   5:.\Generated_Source\PSoC4/CapSense.c **** * Description:
   6:.\Generated_Source\PSoC4/CapSense.c **** *  This file provides the source code for scanning APIs for the CapSense CSD 
   7:.\Generated_Source\PSoC4/CapSense.c **** *  component.
   8:.\Generated_Source\PSoC4/CapSense.c **** *
   9:.\Generated_Source\PSoC4/CapSense.c **** * Note:
  10:.\Generated_Source\PSoC4/CapSense.c **** *
  11:.\Generated_Source\PSoC4/CapSense.c **** ********************************************************************************
  12:.\Generated_Source\PSoC4/CapSense.c **** * Copyright 2014, Cypress Semiconductor Corporation.  All rights reserved.
  13:.\Generated_Source\PSoC4/CapSense.c **** * You may use this file only in accordance with the license, terms, conditions,
  14:.\Generated_Source\PSoC4/CapSense.c **** * disclaimers, and limitations in the end user license agreement accompanying
  15:.\Generated_Source\PSoC4/CapSense.c **** * the software package with which this file was provided.
  16:.\Generated_Source\PSoC4/CapSense.c **** *******************************************************************************/
  17:.\Generated_Source\PSoC4/CapSense.c **** 
  18:.\Generated_Source\PSoC4/CapSense.c **** #include "CapSense.h"
  19:.\Generated_Source\PSoC4/CapSense.c **** #include "CapSense_PVT.h"
  20:.\Generated_Source\PSoC4/CapSense.c **** #include "cypins.h"
  21:.\Generated_Source\PSoC4/CapSense.c **** 
  22:.\Generated_Source\PSoC4/CapSense.c **** #if(0u != CapSense_CSHL_API_GENERATE)
  23:.\Generated_Source\PSoC4/CapSense.c **** 	#include "CapSense_CSHL.h"
  24:.\Generated_Source\PSoC4/CapSense.c **** #endif /* (0u != CapSense_CSHL_API_GENERATE) */
  25:.\Generated_Source\PSoC4/CapSense.c **** 
  26:.\Generated_Source\PSoC4/CapSense.c **** /* This definition is intended to prevent unexpected linker error. 
  27:.\Generated_Source\PSoC4/CapSense.c ****    For more details please see the IAR Technical Note 49981 */
  28:.\Generated_Source\PSoC4/CapSense.c **** #if defined(__ICCARM__)
  29:.\Generated_Source\PSoC4/CapSense.c **** 	extern void CapSense_EnableSensor(uint32 sensor);
  30:.\Generated_Source\PSoC4/CapSense.c **** 	extern void CapSense_DisableSensor(uint32 sensor);
  31:.\Generated_Source\PSoC4/CapSense.c **** #endif /* (__ICCARM__) */	
  32:.\Generated_Source\PSoC4/CapSense.c **** 
ARM GAS  C:\Users\kbuchi\AppData\Local\Temp\ccOUPaAd.s 			page 2


  33:.\Generated_Source\PSoC4/CapSense.c **** /* SmartSense functions */
  34:.\Generated_Source\PSoC4/CapSense.c **** #if (CapSense_TUNING_METHOD == CapSense__TUNING_AUTO)
  35:.\Generated_Source\PSoC4/CapSense.c ****     uint8 CapSense_lowLevelTuningDone = 0u;
  36:.\Generated_Source\PSoC4/CapSense.c **** 	uint8 scanSpeedTbl[((CapSense_TOTAL_SENSOR_COUNT - 1u) / 8u) + 1u];
  37:.\Generated_Source\PSoC4/CapSense.c **** #endif /* (CapSense_TUNING_METHOD == CapSense__TUNING_AUTO) */
  38:.\Generated_Source\PSoC4/CapSense.c **** 
  39:.\Generated_Source\PSoC4/CapSense.c **** #if(CapSense_PRS_OPTIONS != CapSense__PRS_NONE)
  40:.\Generated_Source\PSoC4/CapSense.c **** 	uint8 CapSense_prescalersTuningDone = 0u;
  41:.\Generated_Source\PSoC4/CapSense.c **** #endif /* (CapSense_PRS_OPTIONS == CapSense__PRS_NONE) */
  42:.\Generated_Source\PSoC4/CapSense.c ****             
  43:.\Generated_Source\PSoC4/CapSense.c **** /* Global software variables */
  44:.\Generated_Source\PSoC4/CapSense.c **** volatile uint8 CapSense_csdStatusVar = 0u;   /* CapSense CSD status, variable */
  45:.\Generated_Source\PSoC4/CapSense.c **** volatile uint8 CapSense_sensorIndex = 0u;    /* Index of scannig sensor */
  46:.\Generated_Source\PSoC4/CapSense.c **** 
  47:.\Generated_Source\PSoC4/CapSense.c **** /* Global array of Raw Counts */
  48:.\Generated_Source\PSoC4/CapSense.c **** uint16 CapSense_sensorRaw[CapSense_TOTAL_SENSOR_COUNT] = {0u};
  49:.\Generated_Source\PSoC4/CapSense.c **** 
  50:.\Generated_Source\PSoC4/CapSense.c **** /* Backup variables for trim registers*/
  51:.\Generated_Source\PSoC4/CapSense.c **** #if (CapSense_IDAC1_POLARITY == CapSense__IDAC_SINK)
  52:.\Generated_Source\PSoC4/CapSense.c **** 	uint8 CapSense_csdTrim2;   
  53:.\Generated_Source\PSoC4/CapSense.c **** #else
  54:.\Generated_Source\PSoC4/CapSense.c ****     uint8 CapSense_csdTrim1;	
  55:.\Generated_Source\PSoC4/CapSense.c **** #endif /* (CapSense_IDAC1_POLARITY == CapSense__IDAC_SINK) */
  56:.\Generated_Source\PSoC4/CapSense.c **** 
  57:.\Generated_Source\PSoC4/CapSense.c **** /* Global array of un-scanned sensors state */
  58:.\Generated_Source\PSoC4/CapSense.c **** uint8 CapSense_unscannedSnsDriveMode[CapSense_TOTAL_SENSOR_COUNT];
  59:.\Generated_Source\PSoC4/CapSense.c **** 
  60:.\Generated_Source\PSoC4/CapSense.c **** /* Backup array for CapSense_sensorEnableMask */
  61:.\Generated_Source\PSoC4/CapSense.c **** uint8 CapSense_sensorEnableMaskBackup[(((CapSense_TOTAL_SENSOR_COUNT - 1u) / 8u) + 1u)];
  62:.\Generated_Source\PSoC4/CapSense.c **** 
  63:.\Generated_Source\PSoC4/CapSense.c **** /* Configured constants and arrays by Customizer */
  64:.\Generated_Source\PSoC4/CapSense.c **** uint8 CapSense_sensorEnableMask[(((CapSense_TOTAL_SENSOR_COUNT - 1u) / 8u) + 1u)] = {
  65:.\Generated_Source\PSoC4/CapSense.c **** 0x1Fu, };
  66:.\Generated_Source\PSoC4/CapSense.c **** 
  67:.\Generated_Source\PSoC4/CapSense.c **** reg32 * CapSense_pcTable[] = {
  68:.\Generated_Source\PSoC4/CapSense.c ****     (reg32 *)CapSense_Sns__LinearSlider0_e0__LS__PC, 
  69:.\Generated_Source\PSoC4/CapSense.c ****     (reg32 *)CapSense_Sns__LinearSlider0_e1__LS__PC, 
  70:.\Generated_Source\PSoC4/CapSense.c ****     (reg32 *)CapSense_Sns__LinearSlider0_e2__LS__PC, 
  71:.\Generated_Source\PSoC4/CapSense.c ****     (reg32 *)CapSense_Sns__LinearSlider0_e3__LS__PC, 
  72:.\Generated_Source\PSoC4/CapSense.c ****     (reg32 *)CapSense_Sns__LinearSlider0_e4__LS__PC, 
  73:.\Generated_Source\PSoC4/CapSense.c **** };
  74:.\Generated_Source\PSoC4/CapSense.c **** 
  75:.\Generated_Source\PSoC4/CapSense.c **** const uint8 CapSense_portTable[] = {
  76:.\Generated_Source\PSoC4/CapSense.c ****     CapSense_Sns__LinearSlider0_e0__LS__PORT, 
  77:.\Generated_Source\PSoC4/CapSense.c ****     CapSense_Sns__LinearSlider0_e1__LS__PORT, 
  78:.\Generated_Source\PSoC4/CapSense.c ****     CapSense_Sns__LinearSlider0_e2__LS__PORT, 
  79:.\Generated_Source\PSoC4/CapSense.c ****     CapSense_Sns__LinearSlider0_e3__LS__PORT, 
  80:.\Generated_Source\PSoC4/CapSense.c ****     CapSense_Sns__LinearSlider0_e4__LS__PORT, 
  81:.\Generated_Source\PSoC4/CapSense.c **** };
  82:.\Generated_Source\PSoC4/CapSense.c **** 
  83:.\Generated_Source\PSoC4/CapSense.c **** const uint32 CapSense_maskTable[] = {
  84:.\Generated_Source\PSoC4/CapSense.c ****     CapSense_Sns__LinearSlider0_e0__LS__MASK, 
  85:.\Generated_Source\PSoC4/CapSense.c ****     CapSense_Sns__LinearSlider0_e1__LS__MASK, 
  86:.\Generated_Source\PSoC4/CapSense.c ****     CapSense_Sns__LinearSlider0_e2__LS__MASK, 
  87:.\Generated_Source\PSoC4/CapSense.c ****     CapSense_Sns__LinearSlider0_e3__LS__MASK, 
  88:.\Generated_Source\PSoC4/CapSense.c ****     CapSense_Sns__LinearSlider0_e4__LS__MASK, 
  89:.\Generated_Source\PSoC4/CapSense.c **** };
ARM GAS  C:\Users\kbuchi\AppData\Local\Temp\ccOUPaAd.s 			page 3


  90:.\Generated_Source\PSoC4/CapSense.c **** 
  91:.\Generated_Source\PSoC4/CapSense.c **** const uint8 CapSense_pinShiftTbl[] = {
  92:.\Generated_Source\PSoC4/CapSense.c ****     (uint8) CapSense_Sns__LinearSlider0_e0__LS__SHIFT, 
  93:.\Generated_Source\PSoC4/CapSense.c ****     (uint8) CapSense_Sns__LinearSlider0_e1__LS__SHIFT, 
  94:.\Generated_Source\PSoC4/CapSense.c ****     (uint8) CapSense_Sns__LinearSlider0_e2__LS__SHIFT, 
  95:.\Generated_Source\PSoC4/CapSense.c ****     (uint8) CapSense_Sns__LinearSlider0_e3__LS__SHIFT, 
  96:.\Generated_Source\PSoC4/CapSense.c ****     (uint8) CapSense_Sns__LinearSlider0_e4__LS__SHIFT, 
  97:.\Generated_Source\PSoC4/CapSense.c **** };
  98:.\Generated_Source\PSoC4/CapSense.c **** 
  99:.\Generated_Source\PSoC4/CapSense.c **** uint8 CapSense_modulationIDAC[CapSense_TOTAL_SENSOR_COUNT];
 100:.\Generated_Source\PSoC4/CapSense.c **** uint8 CapSense_compensationIDAC[CapSense_TOTAL_SENSOR_COUNT];
 101:.\Generated_Source\PSoC4/CapSense.c **** 
 102:.\Generated_Source\PSoC4/CapSense.c **** uint32 CapSense_widgetResolution[CapSense_RESOLUTIONS_TBL_SIZE] = {
 103:.\Generated_Source\PSoC4/CapSense.c ****     CapSense_RESOLUTION_12_BITS,
 104:.\Generated_Source\PSoC4/CapSense.c **** };
 105:.\Generated_Source\PSoC4/CapSense.c **** 
 106:.\Generated_Source\PSoC4/CapSense.c **** uint8 CapSense_senseClkDividerVal[CapSense_TOTAL_SCANSLOT_COUNT];
 107:.\Generated_Source\PSoC4/CapSense.c **** uint8 CapSense_sampleClkDividerVal[CapSense_TOTAL_SCANSLOT_COUNT];
 108:.\Generated_Source\PSoC4/CapSense.c **** 
 109:.\Generated_Source\PSoC4/CapSense.c **** const uint8 CapSense_widgetNumber[CapSense_TOTAL_SENSOR_COUNT] = {
 110:.\Generated_Source\PSoC4/CapSense.c ****     0u, 0u, 0u, 0u, 0u, /* LinearSlider0__LS */
 111:.\Generated_Source\PSoC4/CapSense.c **** };
 112:.\Generated_Source\PSoC4/CapSense.c **** 
 113:.\Generated_Source\PSoC4/CapSense.c **** 
 114:.\Generated_Source\PSoC4/CapSense.c **** 
 115:.\Generated_Source\PSoC4/CapSense.c **** reg32* const CapSense_prtSelTbl[] = {
 116:.\Generated_Source\PSoC4/CapSense.c **** /* CY_PSOC4_4000 is default*/
 117:.\Generated_Source\PSoC4/CapSense.c **** 	((reg32 *) CYREG_HSIOM_PORT_SEL0),
 118:.\Generated_Source\PSoC4/CapSense.c **** 	((reg32 *) CYREG_HSIOM_PORT_SEL1),
 119:.\Generated_Source\PSoC4/CapSense.c **** 	((reg32 *) CYREG_HSIOM_PORT_SEL2),
 120:.\Generated_Source\PSoC4/CapSense.c **** 	((reg32 *) CYREG_HSIOM_PORT_SEL3),
 121:.\Generated_Source\PSoC4/CapSense.c **** #if (CapSense_CFG_REG_TBL_SIZE == 5u)
 122:.\Generated_Source\PSoC4/CapSense.c **** 	((reg32 *) CYREG_HSIOM_PORT_SEL4)
 123:.\Generated_Source\PSoC4/CapSense.c **** #elif(CapSense_CFG_REG_TBL_SIZE == 6u)
 124:.\Generated_Source\PSoC4/CapSense.c **** 	((reg32 *) CYREG_HSIOM_PORT_SEL4),
 125:.\Generated_Source\PSoC4/CapSense.c **** 	((reg32 *) CYREG_HSIOM_PORT_SEL5)
 126:.\Generated_Source\PSoC4/CapSense.c **** #elif(CapSense_CFG_REG_TBL_SIZE == 8u)
 127:.\Generated_Source\PSoC4/CapSense.c **** 	((reg32 *) CYREG_HSIOM_PORT_SEL4),
 128:.\Generated_Source\PSoC4/CapSense.c **** 	((reg32 *) CYREG_HSIOM_PORT_SEL5),
 129:.\Generated_Source\PSoC4/CapSense.c **** 	((reg32 *) CYREG_HSIOM_PORT_SEL6),
 130:.\Generated_Source\PSoC4/CapSense.c **** 	((reg32 *) CYREG_HSIOM_PORT_SEL7)
 131:.\Generated_Source\PSoC4/CapSense.c **** #endif /* (CY_PSOC4_4200) */
 132:.\Generated_Source\PSoC4/CapSense.c **** };
 133:.\Generated_Source\PSoC4/CapSense.c **** 
 134:.\Generated_Source\PSoC4/CapSense.c **** reg32* const CapSense_prtCfgTbl[] = {
 135:.\Generated_Source\PSoC4/CapSense.c **** /* CY_PSOC4_4000 is default*/
 136:.\Generated_Source\PSoC4/CapSense.c **** 	((reg32 *) CYREG_PRT0_PC),
 137:.\Generated_Source\PSoC4/CapSense.c **** 	((reg32 *) CYREG_PRT1_PC),
 138:.\Generated_Source\PSoC4/CapSense.c **** 	((reg32 *) CYREG_PRT2_PC),
 139:.\Generated_Source\PSoC4/CapSense.c **** 	((reg32 *) CYREG_PRT3_PC),
 140:.\Generated_Source\PSoC4/CapSense.c **** #if (CapSense_CFG_REG_TBL_SIZE == 5u)
 141:.\Generated_Source\PSoC4/CapSense.c **** 	((reg32 *) CYREG_PRT4_PC)
 142:.\Generated_Source\PSoC4/CapSense.c **** #elif(CapSense_CFG_REG_TBL_SIZE == 6u)
 143:.\Generated_Source\PSoC4/CapSense.c **** 	((reg32 *) CYREG_PRT4_PC),
 144:.\Generated_Source\PSoC4/CapSense.c **** 	((reg32 *) CYREG_PRT5_PC)
 145:.\Generated_Source\PSoC4/CapSense.c **** #elif(CapSense_CFG_REG_TBL_SIZE == 8u)
 146:.\Generated_Source\PSoC4/CapSense.c **** 	((reg32 *) CYREG_PRT4_PC),
ARM GAS  C:\Users\kbuchi\AppData\Local\Temp\ccOUPaAd.s 			page 4


 147:.\Generated_Source\PSoC4/CapSense.c **** 	((reg32 *) CYREG_PRT5_PC),
 148:.\Generated_Source\PSoC4/CapSense.c **** 	((reg32 *) CYREG_PRT6_PC),
 149:.\Generated_Source\PSoC4/CapSense.c **** 	((reg32 *) CYREG_PRT7_PC)
 150:.\Generated_Source\PSoC4/CapSense.c **** #endif /* (CY_PSOC4_4200) */	
 151:.\Generated_Source\PSoC4/CapSense.c **** };
 152:.\Generated_Source\PSoC4/CapSense.c **** 
 153:.\Generated_Source\PSoC4/CapSense.c **** reg32* const CapSense_prtDRTbl[] = {
 154:.\Generated_Source\PSoC4/CapSense.c **** /* CY_PSOC4_4000 is default*/
 155:.\Generated_Source\PSoC4/CapSense.c **** 	((reg32 *) CYREG_PRT0_DR),
 156:.\Generated_Source\PSoC4/CapSense.c **** 	((reg32 *) CYREG_PRT1_DR),
 157:.\Generated_Source\PSoC4/CapSense.c **** 	((reg32 *) CYREG_PRT2_DR),
 158:.\Generated_Source\PSoC4/CapSense.c **** 	((reg32 *) CYREG_PRT3_DR),
 159:.\Generated_Source\PSoC4/CapSense.c **** #if (CapSense_CFG_REG_TBL_SIZE == 5u)
 160:.\Generated_Source\PSoC4/CapSense.c **** 	((reg32 *) CYREG_PRT4_DR)
 161:.\Generated_Source\PSoC4/CapSense.c **** #elif(CapSense_CFG_REG_TBL_SIZE == 6u)
 162:.\Generated_Source\PSoC4/CapSense.c **** 	((reg32 *) CYREG_PRT4_DR),
 163:.\Generated_Source\PSoC4/CapSense.c **** 	((reg32 *) CYREG_PRT5_DR),
 164:.\Generated_Source\PSoC4/CapSense.c **** #elif(CapSense_CFG_REG_TBL_SIZE == 8u)
 165:.\Generated_Source\PSoC4/CapSense.c **** 	((reg32 *) CYREG_PRT4_DR),
 166:.\Generated_Source\PSoC4/CapSense.c **** 	((reg32 *) CYREG_PRT5_DR),
 167:.\Generated_Source\PSoC4/CapSense.c **** 	((reg32 *) CYREG_PRT6_DR),
 168:.\Generated_Source\PSoC4/CapSense.c **** 	((reg32 *) CYREG_PRT7_DR),
 169:.\Generated_Source\PSoC4/CapSense.c **** #endif /* (CY_PSOC4_4200) */	
 170:.\Generated_Source\PSoC4/CapSense.c **** };
 171:.\Generated_Source\PSoC4/CapSense.c ****     
 172:.\Generated_Source\PSoC4/CapSense.c **** 
 173:.\Generated_Source\PSoC4/CapSense.c **** /*******************************************************************************
 174:.\Generated_Source\PSoC4/CapSense.c **** * Function Name: CapSense_Init
 175:.\Generated_Source\PSoC4/CapSense.c **** ********************************************************************************
 176:.\Generated_Source\PSoC4/CapSense.c **** *
 177:.\Generated_Source\PSoC4/CapSense.c **** * Summary:
 178:.\Generated_Source\PSoC4/CapSense.c **** *  API initializes default CapSense configuration provided by the customizer that defines 
 179:.\Generated_Source\PSoC4/CapSense.c **** *  the mode of component operations and resets all the sensors to an inactive state.
 180:.\Generated_Source\PSoC4/CapSense.c **** *
 181:.\Generated_Source\PSoC4/CapSense.c **** * Parameters:
 182:.\Generated_Source\PSoC4/CapSense.c **** *  None
 183:.\Generated_Source\PSoC4/CapSense.c **** *
 184:.\Generated_Source\PSoC4/CapSense.c **** * Return:
 185:.\Generated_Source\PSoC4/CapSense.c **** *  None
 186:.\Generated_Source\PSoC4/CapSense.c **** *
 187:.\Generated_Source\PSoC4/CapSense.c **** * Global Variables:
 188:.\Generated_Source\PSoC4/CapSense.c **** *  CapSense_immunityIndex - defines immunity level.
 189:.\Generated_Source\PSoC4/CapSense.c **** *
 190:.\Generated_Source\PSoC4/CapSense.c **** * Side Effects:
 191:.\Generated_Source\PSoC4/CapSense.c **** *  None
 192:.\Generated_Source\PSoC4/CapSense.c **** * 
 193:.\Generated_Source\PSoC4/CapSense.c **** *******************************************************************************/
 194:.\Generated_Source\PSoC4/CapSense.c **** void CapSense_Init(void)
 195:.\Generated_Source\PSoC4/CapSense.c **** {   
 196:.\Generated_Source\PSoC4/CapSense.c **** 	uint32 curSensor;
 197:.\Generated_Source\PSoC4/CapSense.c **** 	
 198:.\Generated_Source\PSoC4/CapSense.c **** 	#if(CapSense_IS_SHIELD_ENABLE)
 199:.\Generated_Source\PSoC4/CapSense.c **** 		
 200:.\Generated_Source\PSoC4/CapSense.c **** 		#if((CapSense_CSH_TANK_PREGARGE_OPTION == CapSense__CAPPRIOBUF) || (0u != CapSense_CSH_TANK_ENABL
 201:.\Generated_Source\PSoC4/CapSense.c **** 			uint32 newRegValue;
 202:.\Generated_Source\PSoC4/CapSense.c **** 			
 203:.\Generated_Source\PSoC4/CapSense.c **** 			newRegValue = CapSense_CTANK_CONNECTION_REG;
ARM GAS  C:\Users\kbuchi\AppData\Local\Temp\ccOUPaAd.s 			page 5


 204:.\Generated_Source\PSoC4/CapSense.c **** 	        newRegValue &= ~(CapSense_CSD_CTANK_CONNECTION_MASK);
 205:.\Generated_Source\PSoC4/CapSense.c **** 			newRegValue |= CapSense_CSD_CTANK_TO_AMUXBUS_B;
 206:.\Generated_Source\PSoC4/CapSense.c **** 	        CapSense_CTANK_CONNECTION_REG = newRegValue;
 207:.\Generated_Source\PSoC4/CapSense.c **** 			
 208:.\Generated_Source\PSoC4/CapSense.c **** 			#if(CapSense_CSH_TANK_PREGARGE_OPTION == CapSense__CAPPRIOBUF)
 209:.\Generated_Source\PSoC4/CapSense.c **** 				newRegValue = CapSense_CTANK_PORT_PC_REG;
 210:.\Generated_Source\PSoC4/CapSense.c **** 		        newRegValue &= ~(CapSense_CSD_CTANK_PC_MASK);
 211:.\Generated_Source\PSoC4/CapSense.c **** 				newRegValue |= CapSense_CTANK_PC_STRONG_MODE;
 212:.\Generated_Source\PSoC4/CapSense.c **** 		        CapSense_CTANK_PORT_PC_REG = newRegValue;
 213:.\Generated_Source\PSoC4/CapSense.c **** 				
 214:.\Generated_Source\PSoC4/CapSense.c **** 				newRegValue = CapSense_CTANK_PORT_DR_REG;
 215:.\Generated_Source\PSoC4/CapSense.c **** 		        newRegValue &= ~(CapSense_CTANK_DR_MASK);
 216:.\Generated_Source\PSoC4/CapSense.c **** 				newRegValue |= CapSense_CTANK_DR_CONFIG;
 217:.\Generated_Source\PSoC4/CapSense.c **** 		        CapSense_CTANK_PORT_DR_REG = newRegValue;
 218:.\Generated_Source\PSoC4/CapSense.c **** 			#endif /* (CapSense_CSH_TANK_PREGARGE_OPTION == CapSense__CAPPRIOBUF) */
 219:.\Generated_Source\PSoC4/CapSense.c **** 	        
 220:.\Generated_Source\PSoC4/CapSense.c **** 		#endif /* ((CapSense_CSH_TANK_PREGARGE_OPTION == CapSense__CAPPRIOBUF) || (CapSense_CSH_TANK_ENAB
 221:.\Generated_Source\PSoC4/CapSense.c **** 		
 222:.\Generated_Source\PSoC4/CapSense.c **** 		CapSense_EnableShieldElectrode((uint32)CapSense_SHIELD_PIN_NUMBER, (uint32)CapSense_SHIELD_PORT_N
 223:.\Generated_Source\PSoC4/CapSense.c **** 		
 224:.\Generated_Source\PSoC4/CapSense.c **** 	#endif /* (CapSense_IS_SHIELD_ENABLE) */
 225:.\Generated_Source\PSoC4/CapSense.c **** 	
 226:.\Generated_Source\PSoC4/CapSense.c **** 	for(curSensor = 0u; curSensor < CapSense_TOTAL_SENSOR_COUNT; curSensor++)
 227:.\Generated_Source\PSoC4/CapSense.c **** 	{
 228:.\Generated_Source\PSoC4/CapSense.c **** 		CapSense_unscannedSnsDriveMode[curSensor] = CapSense_CONNECT_INACTIVE_SNS;
 229:.\Generated_Source\PSoC4/CapSense.c **** 	}
 230:.\Generated_Source\PSoC4/CapSense.c ****     
 231:.\Generated_Source\PSoC4/CapSense.c **** 	CapSense_CsdHwBlockInit();
 232:.\Generated_Source\PSoC4/CapSense.c ****     CapSense_SetShieldDelay(CapSense_SHIELD_DELAY );
 233:.\Generated_Source\PSoC4/CapSense.c **** 	
 234:.\Generated_Source\PSoC4/CapSense.c **** 	/* Clear all sensors */
 235:.\Generated_Source\PSoC4/CapSense.c ****     CapSense_ClearSensors();
 236:.\Generated_Source\PSoC4/CapSense.c **** }
 237:.\Generated_Source\PSoC4/CapSense.c **** 
 238:.\Generated_Source\PSoC4/CapSense.c **** /*******************************************************************************
 239:.\Generated_Source\PSoC4/CapSense.c **** * Function Name: CapSense_CsdHwBlockInit
 240:.\Generated_Source\PSoC4/CapSense.c **** ********************************************************************************
 241:.\Generated_Source\PSoC4/CapSense.c **** *
 242:.\Generated_Source\PSoC4/CapSense.c **** * Summary:
 243:.\Generated_Source\PSoC4/CapSense.c **** *  Initialises the hardware parameters of the CSD block 
 244:.\Generated_Source\PSoC4/CapSense.c **** *
 245:.\Generated_Source\PSoC4/CapSense.c **** * Parameters:
 246:.\Generated_Source\PSoC4/CapSense.c **** *  None
 247:.\Generated_Source\PSoC4/CapSense.c **** *
 248:.\Generated_Source\PSoC4/CapSense.c **** * Return:
 249:.\Generated_Source\PSoC4/CapSense.c **** *  None
 250:.\Generated_Source\PSoC4/CapSense.c **** *
 251:.\Generated_Source\PSoC4/CapSense.c **** * Global Variables:
 252:.\Generated_Source\PSoC4/CapSense.c **** *  CapSense_csdTrim1 - Contains IDAC trim register value for Sourcing Mode.
 253:.\Generated_Source\PSoC4/CapSense.c **** *  CapSense_csdTrim2 - Contains IDAC trim register value for Sinking Mode.
 254:.\Generated_Source\PSoC4/CapSense.c **** *
 255:.\Generated_Source\PSoC4/CapSense.c **** * Side Effects:
 256:.\Generated_Source\PSoC4/CapSense.c **** *  None
 257:.\Generated_Source\PSoC4/CapSense.c **** * 
 258:.\Generated_Source\PSoC4/CapSense.c **** *******************************************************************************/
 259:.\Generated_Source\PSoC4/CapSense.c **** void CapSense_CsdHwBlockInit(void)
 260:.\Generated_Source\PSoC4/CapSense.c **** {
ARM GAS  C:\Users\kbuchi\AppData\Local\Temp\ccOUPaAd.s 			page 6


  26              		.loc 1 260 0
  27              		.cfi_startproc
  28 0000 38B5     		push	{r3, r4, r5, lr}
  29              		.cfi_def_cfa_offset 16
  30              		.cfi_offset 3, -16
  31              		.cfi_offset 4, -12
  32              		.cfi_offset 5, -8
  33              		.cfi_offset 14, -4
 261:.\Generated_Source\PSoC4/CapSense.c **** 	uint32 newRegValue;
 262:.\Generated_Source\PSoC4/CapSense.c **** 	
 263:.\Generated_Source\PSoC4/CapSense.c **** 	    /* Set trim registers for CSD Mode */
 264:.\Generated_Source\PSoC4/CapSense.c ****     #if (CapSense_IDAC1_POLARITY == CapSense__IDAC_SINK)
 265:.\Generated_Source\PSoC4/CapSense.c **** 		/* iDAC1 Sinking Mode */ 
 266:.\Generated_Source\PSoC4/CapSense.c **** 		CapSense_csdTrim2 = (uint8)CapSense_CSD_TRIM2_REG;
 267:.\Generated_Source\PSoC4/CapSense.c **** 		newRegValue = CapSense_csdTrim2;
 268:.\Generated_Source\PSoC4/CapSense.c **** 		newRegValue &= CapSense_CSD_IDAC1_TRIM_MASK;
 269:.\Generated_Source\PSoC4/CapSense.c **** 		newRegValue |= (uint32)((uint32)CapSense_SFLASH_CSD_TRIM2_REG & (uint32)CapSense_CSFLASH_TRIM_IDA
 270:.\Generated_Source\PSoC4/CapSense.c **** 		
 271:.\Generated_Source\PSoC4/CapSense.c **** 		#if (CapSense_IDAC_CNT == 2u)
 272:.\Generated_Source\PSoC4/CapSense.c **** 		    /* iDAC2 Sinking Mode */ 
 273:.\Generated_Source\PSoC4/CapSense.c **** 			newRegValue &= CapSense_CSD_IDAC2_TRIM_MASK;
 274:.\Generated_Source\PSoC4/CapSense.c **** 			newRegValue |= (uint32)((uint32)CapSense_SFLASH_CSD_TRIM2_REG & (uint32)CapSense_CSFLASH_TRIM_ID
 275:.\Generated_Source\PSoC4/CapSense.c **** 		#endif /* (CapSense_IDAC_CNT == 2u) */
 276:.\Generated_Source\PSoC4/CapSense.c **** 		CapSense_CSD_TRIM2_REG = newRegValue;
 277:.\Generated_Source\PSoC4/CapSense.c ****     #else   
 278:.\Generated_Source\PSoC4/CapSense.c **** 		/* iDAC1 Sourcing Mode */ 
 279:.\Generated_Source\PSoC4/CapSense.c **** 		CapSense_csdTrim1 = (uint8)CapSense_CSD_TRIM1_REG;
  34              		.loc 1 279 0
  35 0002 164B     		ldr	r3, .L2
  36 0004 1968     		ldr	r1, [r3]
  37 0006 C9B2     		uxtb	r1, r1
  38 0008 154A     		ldr	r2, .L2+4
  39 000a 1170     		strb	r1, [r2]
  40              	.LVL0:
 280:.\Generated_Source\PSoC4/CapSense.c **** 		newRegValue = CapSense_csdTrim1;
 281:.\Generated_Source\PSoC4/CapSense.c **** 		newRegValue &= CapSense_CSD_IDAC1_TRIM_MASK;
  41              		.loc 1 281 0
  42 000c 0F22     		mov	r2, #15
  43 000e 0C1C     		mov	r4, r1
  44 0010 9443     		bic	r4, r2
  45              	.LVL1:
 282:.\Generated_Source\PSoC4/CapSense.c **** 		newRegValue |= (uint32)((uint32)CapSense_SFLASH_CSD_TRIM1_REG & (uint32)CapSense_CSFLASH_TRIM_IDA
  46              		.loc 1 282 0
  47 0012 1449     		ldr	r1, .L2+8
  48 0014 0D78     		ldrb	r5, [r1]
  49 0016 0F20     		mov	r0, #15
  50 0018 2840     		and	r0, r5
  51 001a 2043     		orr	r0, r4
  52              	.LVL2:
 283:.\Generated_Source\PSoC4/CapSense.c **** 		#if (CapSense_IDAC_CNT == 2u)
 284:.\Generated_Source\PSoC4/CapSense.c **** 		     /* iDAC2 Sourcing Mode */ 
 285:.\Generated_Source\PSoC4/CapSense.c **** 			newRegValue &= CapSense_CSD_IDAC2_TRIM_MASK;
  53              		.loc 1 285 0
  54 001c F024     		mov	r4, #240
  55 001e A043     		bic	r0, r4
  56              	.LVL3:
 286:.\Generated_Source\PSoC4/CapSense.c **** 			newRegValue |= (uint32)((uint32)CapSense_SFLASH_CSD_TRIM1_REG & (uint32)CapSense_CSFLASH_TRIM_ID
ARM GAS  C:\Users\kbuchi\AppData\Local\Temp\ccOUPaAd.s 			page 7


  57              		.loc 1 286 0
  58 0020 0978     		ldrb	r1, [r1]
  59 0022 9143     		bic	r1, r2
  60 0024 0143     		orr	r1, r0
  61              	.LVL4:
 287:.\Generated_Source\PSoC4/CapSense.c **** 		#endif		
 288:.\Generated_Source\PSoC4/CapSense.c **** 		CapSense_CSD_TRIM1_REG = newRegValue;
  62              		.loc 1 288 0
  63 0026 1960     		str	r1, [r3]
 289:.\Generated_Source\PSoC4/CapSense.c ****     #endif /* (CapSense_IDAC1_POLARITY == CapSense__IDAC_SINK) */
 290:.\Generated_Source\PSoC4/CapSense.c **** 	
 291:.\Generated_Source\PSoC4/CapSense.c **** 	/* Configure CSD and IDAC */
 292:.\Generated_Source\PSoC4/CapSense.c **** 	#if (CapSense_IDAC_CNT > 1u)
 293:.\Generated_Source\PSoC4/CapSense.c **** 		CapSense_CSD_IDAC_REG = CapSense_DEFAULT_CSD_IDAC_CONFIG;
  64              		.loc 1 293 0
  65 0028 0F4A     		ldr	r2, .L2+12
  66 002a 104B     		ldr	r3, .L2+16
  67 002c 1A60     		str	r2, [r3]
 294:.\Generated_Source\PSoC4/CapSense.c **** 		CapSense_CSD_CFG_REG = CapSense_DEFAULT_CSD_CONFIG;
  68              		.loc 1 294 0
  69 002e 104A     		ldr	r2, .L2+20
  70 0030 104B     		ldr	r3, .L2+24
  71 0032 1A60     		str	r2, [r3]
 295:.\Generated_Source\PSoC4/CapSense.c **** 	#else
 296:.\Generated_Source\PSoC4/CapSense.c **** 		CapSense_CSD_IDAC_REG &= ~(CapSense_CSD_IDAC1_MODE_MASK  | CapSense_CSD_IDAC1_DATA_MASK);
 297:.\Generated_Source\PSoC4/CapSense.c **** 		CapSense_CSD_IDAC_REG |= CapSense_DEFAULT_CSD_IDAC_CONFIG;
 298:.\Generated_Source\PSoC4/CapSense.c **** 		
 299:.\Generated_Source\PSoC4/CapSense.c **** 		CapSense_CSD_CFG_REG &= ~(CapSense_CSD_CONFIG_MASK);
 300:.\Generated_Source\PSoC4/CapSense.c **** 		CapSense_CSD_CFG_REG |= (CapSense_DEFAULT_CSD_CONFIG);
 301:.\Generated_Source\PSoC4/CapSense.c **** 	#endif /* (CapSense_IDAC_CNT > 1u) */
 302:.\Generated_Source\PSoC4/CapSense.c **** 	
 303:.\Generated_Source\PSoC4/CapSense.c **** 	
 304:.\Generated_Source\PSoC4/CapSense.c **** 	/* Connect Cmod to AMUX bus */ 
 305:.\Generated_Source\PSoC4/CapSense.c **** 	newRegValue = CapSense_CMOD_CONNECTION_REG; 
  72              		.loc 1 305 0
  73 0034 104B     		ldr	r3, .L2+28
  74 0036 1968     		ldr	r1, [r3]
  75              	.LVL5:
 306:.\Generated_Source\PSoC4/CapSense.c ****     newRegValue &= ~(CapSense_CSD_CMOD_CONNECTION_MASK);
  76              		.loc 1 306 0
  77 0038 104A     		ldr	r2, .L2+32
  78 003a 0A40     		and	r2, r1
  79              	.LVL6:
 307:.\Generated_Source\PSoC4/CapSense.c ****     newRegValue |= CapSense_CSD_CMOD_TO_AMUXBUS_A;
  80              		.loc 1 307 0
  81 003c C021     		mov	r1, #192
  82 003e C900     		lsl	r1, r1, #3
  83 0040 0A43     		orr	r2, r1
  84              	.LVL7:
 308:.\Generated_Source\PSoC4/CapSense.c ****     CapSense_CMOD_CONNECTION_REG = newRegValue;
  85              		.loc 1 308 0
  86 0042 1A60     		str	r2, [r3]
 309:.\Generated_Source\PSoC4/CapSense.c **** 	
 310:.\Generated_Source\PSoC4/CapSense.c **** 	/* Configure Dead Band PWM if it is enabled */
 311:.\Generated_Source\PSoC4/CapSense.c **** 	#if(CapSense_CSD_4B_PWM_MODE != CapSense__PWM_OFF)
 312:.\Generated_Source\PSoC4/CapSense.c **** 		CapSense_CSD_4B_PWM_REG = CapSense_DEFAULT_CSD_4B_PWM_CONFIG;
 313:.\Generated_Source\PSoC4/CapSense.c **** 	#endif /* (CapSense_CSD_4B_PWM_MODE != CapSense__PWM_OFF) */
ARM GAS  C:\Users\kbuchi\AppData\Local\Temp\ccOUPaAd.s 			page 8


 314:.\Generated_Source\PSoC4/CapSense.c **** 
 315:.\Generated_Source\PSoC4/CapSense.c **** 	/* Setup ISR */
 316:.\Generated_Source\PSoC4/CapSense.c **** 	CyIntDisable(CapSense_ISR_NUMBER);
  87              		.loc 1 316 0
  88 0044 0F20     		mov	r0, #15
  89 0046 FFF7FEFF 		bl	CyIntDisable
  90              	.LVL8:
 317:.\Generated_Source\PSoC4/CapSense.c **** 	#if !defined(CY_EXTERNAL_INTERRUPT_CONFIG)		
 318:.\Generated_Source\PSoC4/CapSense.c **** 	    (void)CyIntSetVector(CapSense_ISR_NUMBER, &CapSense_ISR);
  91              		.loc 1 318 0
  92 004a 0F20     		mov	r0, #15
  93 004c 0C49     		ldr	r1, .L2+36
  94 004e FFF7FEFF 		bl	CyIntSetVector
  95              	.LVL9:
 319:.\Generated_Source\PSoC4/CapSense.c **** 	    CyIntSetPriority(CapSense_ISR_NUMBER, CapSense_ISR_PRIORITY);
  96              		.loc 1 319 0
  97 0052 0F20     		mov	r0, #15
  98 0054 0321     		mov	r1, #3
  99 0056 FFF7FEFF 		bl	CyIntSetPriority
 100              	.LVL10:
 320:.\Generated_Source\PSoC4/CapSense.c **** 	#endif /* (CY_EXTERNAL_INTERRUPT_CONFIG) */
 321:.\Generated_Source\PSoC4/CapSense.c **** }
 101              		.loc 1 321 0
 102              		@ sp needed
 103 005a 38BD     		pop	{r3, r4, r5, pc}
 104              	.L3:
 105              		.align	2
 106              	.L2:
 107 005c 00FF0840 		.word	1074331392
 108 0060 00000000 		.word	CapSense_csdTrim1
 109 0064 62F1FF0F 		.word	268431714
 110 0068 00020001 		.word	16777728
 111 006c 08000840 		.word	1074266120
 112 0070 0008A001 		.word	27265024
 113 0074 04000840 		.word	1074266116
 114 0078 10000140 		.word	1073807376
 115 007c FFF0FFFF 		.word	-3841
 116 0080 00000000 		.word	CapSense_ISR
 117              		.cfi_endproc
 118              	.LFE34:
 119              		.size	CapSense_CsdHwBlockInit, .-CapSense_CsdHwBlockInit
 120              		.section	.text.CapSense_Enable,"ax",%progbits
 121              		.align	2
 122              		.global	CapSense_Enable
 123              		.code	16
 124              		.thumb_func
 125              		.type	CapSense_Enable, %function
 126              	CapSense_Enable:
 127              	.LFB35:
 322:.\Generated_Source\PSoC4/CapSense.c **** 
 323:.\Generated_Source\PSoC4/CapSense.c **** 
 324:.\Generated_Source\PSoC4/CapSense.c **** /*******************************************************************************
 325:.\Generated_Source\PSoC4/CapSense.c **** * Function Name: CapSense_Enable
 326:.\Generated_Source\PSoC4/CapSense.c **** ********************************************************************************
 327:.\Generated_Source\PSoC4/CapSense.c **** *
 328:.\Generated_Source\PSoC4/CapSense.c **** * Summary:
 329:.\Generated_Source\PSoC4/CapSense.c **** *  Enables the CSD block and related resources to an active mode.
ARM GAS  C:\Users\kbuchi\AppData\Local\Temp\ccOUPaAd.s 			page 9


 330:.\Generated_Source\PSoC4/CapSense.c **** *
 331:.\Generated_Source\PSoC4/CapSense.c **** * Parameters:
 332:.\Generated_Source\PSoC4/CapSense.c **** *  None
 333:.\Generated_Source\PSoC4/CapSense.c **** *
 334:.\Generated_Source\PSoC4/CapSense.c **** * Return:
 335:.\Generated_Source\PSoC4/CapSense.c **** *  None
 336:.\Generated_Source\PSoC4/CapSense.c **** *
 337:.\Generated_Source\PSoC4/CapSense.c **** * Global Variables:
 338:.\Generated_Source\PSoC4/CapSense.c **** *  None.
 339:.\Generated_Source\PSoC4/CapSense.c **** *
 340:.\Generated_Source\PSoC4/CapSense.c **** * Side Effects:
 341:.\Generated_Source\PSoC4/CapSense.c **** *  None
 342:.\Generated_Source\PSoC4/CapSense.c **** * 
 343:.\Generated_Source\PSoC4/CapSense.c **** *******************************************************************************/
 344:.\Generated_Source\PSoC4/CapSense.c **** void CapSense_Enable(void)
 345:.\Generated_Source\PSoC4/CapSense.c **** {
 128              		.loc 1 345 0
 129              		.cfi_startproc
 130 0000 08B5     		push	{r3, lr}
 131              		.cfi_def_cfa_offset 8
 132              		.cfi_offset 3, -8
 133              		.cfi_offset 14, -4
 346:.\Generated_Source\PSoC4/CapSense.c ****     uint32 newRegValue;
 347:.\Generated_Source\PSoC4/CapSense.c ****     
 348:.\Generated_Source\PSoC4/CapSense.c ****     /* Enable Clocks */
 349:.\Generated_Source\PSoC4/CapSense.c **** 	CapSense_SenseClk_Stop();
 134              		.loc 1 349 0
 135 0002 FFF7FEFF 		bl	CapSense_SenseClk_Stop
 136              	.LVL11:
 350:.\Generated_Source\PSoC4/CapSense.c **** 	CapSense_SampleClk_Stop();
 137              		.loc 1 350 0
 138 0006 FFF7FEFF 		bl	CapSense_SampleClk_Stop
 139              	.LVL12:
 351:.\Generated_Source\PSoC4/CapSense.c **** 	
 352:.\Generated_Source\PSoC4/CapSense.c **** 	CapSense_SampleClk_SetDividerValue((uint16)CapSense_INITIAL_CLK_DIVIDER);
 140              		.loc 1 352 0
 141 000a 0020     		mov	r0, #0
 142 000c 0021     		mov	r1, #0
 143 000e FFF7FEFF 		bl	CapSense_SampleClk_SetFractionalDividerRegister
 144              	.LVL13:
 353:.\Generated_Source\PSoC4/CapSense.c **** 	CapSense_SenseClk_SetDividerValue((uint16)CapSense_INITIAL_CLK_DIVIDER);
 145              		.loc 1 353 0
 146 0012 0020     		mov	r0, #0
 147 0014 0021     		mov	r1, #0
 148 0016 FFF7FEFF 		bl	CapSense_SenseClk_SetFractionalDividerRegister
 149              	.LVL14:
 354:.\Generated_Source\PSoC4/CapSense.c **** 	
 355:.\Generated_Source\PSoC4/CapSense.c **** 	#if (0u == CapSense_IS_M0S8PERI_BLOCK)
 356:.\Generated_Source\PSoC4/CapSense.c **** 		CapSense_SenseClk_Start();
 150              		.loc 1 356 0
 151 001a FFF7FEFF 		bl	CapSense_SenseClk_Start
 152              	.LVL15:
 357:.\Generated_Source\PSoC4/CapSense.c **** 		CapSense_SampleClk_Start();
 153              		.loc 1 357 0
 154 001e FFF7FEFF 		bl	CapSense_SampleClk_Start
 155              	.LVL16:
 358:.\Generated_Source\PSoC4/CapSense.c **** 	#else
ARM GAS  C:\Users\kbuchi\AppData\Local\Temp\ccOUPaAd.s 			page 10


 359:.\Generated_Source\PSoC4/CapSense.c **** 		CapSense_SampleClk_Start();
 360:.\Generated_Source\PSoC4/CapSense.c **** 		CapSense_SenseClk_StartEx(CapSense_SampleClk__DIV_ID);
 361:.\Generated_Source\PSoC4/CapSense.c **** 	#endif /* (0u == CapSense_IS_M0S8PERI_BLOCK) */
 362:.\Generated_Source\PSoC4/CapSense.c **** 	
 363:.\Generated_Source\PSoC4/CapSense.c **** 	/* Enable the CSD block */
 364:.\Generated_Source\PSoC4/CapSense.c ****     newRegValue = CapSense_CSD_CFG_REG;
 156              		.loc 1 364 0
 157 0022 044B     		ldr	r3, .L5
 158 0024 1A68     		ldr	r2, [r3]
 159              	.LVL17:
 365:.\Generated_Source\PSoC4/CapSense.c ****     newRegValue |= (CapSense_CSD_CFG_ENABLE | CapSense_CSD_CFG_SENSE_COMP_EN 
 160              		.loc 1 365 0
 161 0026 0449     		ldr	r1, .L5+4
 162 0028 0A43     		orr	r2, r1
 163              	.LVL18:
 366:.\Generated_Source\PSoC4/CapSense.c ****                                                    | CapSense_CSD_CFG_SENSE_EN);    
 367:.\Generated_Source\PSoC4/CapSense.c ****     CapSense_CSD_CFG_REG = newRegValue;
 164              		.loc 1 367 0
 165 002a 1A60     		str	r2, [r3]
 368:.\Generated_Source\PSoC4/CapSense.c **** 
 369:.\Generated_Source\PSoC4/CapSense.c ****     /* Enable interrupt */
 370:.\Generated_Source\PSoC4/CapSense.c ****     CyIntEnable(CapSense_ISR_NUMBER);
 166              		.loc 1 370 0
 167 002c 0F20     		mov	r0, #15
 168 002e FFF7FEFF 		bl	CyIntEnable
 169              	.LVL19:
 371:.\Generated_Source\PSoC4/CapSense.c **** }
 170              		.loc 1 371 0
 171              		@ sp needed
 172 0032 08BD     		pop	{r3, pc}
 173              	.L6:
 174              		.align	2
 175              	.L5:
 176 0034 04000840 		.word	1074266116
 177 0038 00100880 		.word	-2146955264
 178              		.cfi_endproc
 179              	.LFE35:
 180              		.size	CapSense_Enable, .-CapSense_Enable
 181              		.section	.text.CapSense_Stop,"ax",%progbits
 182              		.align	2
 183              		.global	CapSense_Stop
 184              		.code	16
 185              		.thumb_func
 186              		.type	CapSense_Stop, %function
 187              	CapSense_Stop:
 188              	.LFB37:
 372:.\Generated_Source\PSoC4/CapSense.c **** 
 373:.\Generated_Source\PSoC4/CapSense.c **** 
 374:.\Generated_Source\PSoC4/CapSense.c **** /*******************************************************************************
 375:.\Generated_Source\PSoC4/CapSense.c **** * Function Name: CapSense_Start
 376:.\Generated_Source\PSoC4/CapSense.c **** ********************************************************************************
 377:.\Generated_Source\PSoC4/CapSense.c **** *
 378:.\Generated_Source\PSoC4/CapSense.c **** * Summary:
 379:.\Generated_Source\PSoC4/CapSense.c **** *  This is the preferred method to begin the component operation. CapSense_Start() 
 380:.\Generated_Source\PSoC4/CapSense.c **** *  calls the CapSense_Init() function, and then calls the CapSense_Enable() 
 381:.\Generated_Source\PSoC4/CapSense.c **** *  function. Initializes the registers and starts the CSD method of the CapSense 
 382:.\Generated_Source\PSoC4/CapSense.c **** *  component. Resets all the sensors to an inactive state. Enables interrupts for 
ARM GAS  C:\Users\kbuchi\AppData\Local\Temp\ccOUPaAd.s 			page 11


 383:.\Generated_Source\PSoC4/CapSense.c **** *  sensors scanning. When the SmartSense tuning mode is selected, the tuning procedure
 384:.\Generated_Source\PSoC4/CapSense.c **** *  is applied for all the sensors. The CapSense_Start() routine must be called before 
 385:.\Generated_Source\PSoC4/CapSense.c **** *  any other API routines.
 386:.\Generated_Source\PSoC4/CapSense.c **** *
 387:.\Generated_Source\PSoC4/CapSense.c **** * Parameters:
 388:.\Generated_Source\PSoC4/CapSense.c **** *  None
 389:.\Generated_Source\PSoC4/CapSense.c **** *
 390:.\Generated_Source\PSoC4/CapSense.c **** * Return:
 391:.\Generated_Source\PSoC4/CapSense.c **** *  None
 392:.\Generated_Source\PSoC4/CapSense.c **** *
 393:.\Generated_Source\PSoC4/CapSense.c **** * Global Variables:
 394:.\Generated_Source\PSoC4/CapSense.c **** *   CapSense_initVar - used to check the initial configuration, 
 395:.\Generated_Source\PSoC4/CapSense.c **** *   modified on the first function call.
 396:.\Generated_Source\PSoC4/CapSense.c **** *  CapSense_lowLevelTuningDone - Used to notify the Tuner GUI that 
 397:.\Generated_Source\PSoC4/CapSense.c **** *   tuning of the scanning parameters is done. 
 398:.\Generated_Source\PSoC4/CapSense.c **** *
 399:.\Generated_Source\PSoC4/CapSense.c **** * Side Effects:
 400:.\Generated_Source\PSoC4/CapSense.c **** *  None
 401:.\Generated_Source\PSoC4/CapSense.c **** * 
 402:.\Generated_Source\PSoC4/CapSense.c **** *******************************************************************************/
 403:.\Generated_Source\PSoC4/CapSense.c **** void CapSense_Start(void)
 404:.\Generated_Source\PSoC4/CapSense.c **** {
 405:.\Generated_Source\PSoC4/CapSense.c **** 
 406:.\Generated_Source\PSoC4/CapSense.c **** 	static uint8 CapSense_initVar = 0u;
 407:.\Generated_Source\PSoC4/CapSense.c **** 
 408:.\Generated_Source\PSoC4/CapSense.c **** 	#if((0u != CapSense_AUTOCALIBRATION_ENABLE) && (CapSense_TUNING_METHOD != CapSense__TUNING_AUTO))
 409:.\Generated_Source\PSoC4/CapSense.c **** 		uint32 curSensor;
 410:.\Generated_Source\PSoC4/CapSense.c **** 		uint32 rawLevel;
 411:.\Generated_Source\PSoC4/CapSense.c **** 		uint32 widget;
 412:.\Generated_Source\PSoC4/CapSense.c ****     #endif /* ((0u != CapSense_AUTOCALIBRATION_ENABLE) && (CapSense_TUNING_METHOD != CapSense__TUNI
 413:.\Generated_Source\PSoC4/CapSense.c **** 	
 414:.\Generated_Source\PSoC4/CapSense.c ****     if (CapSense_initVar == 0u)
 415:.\Generated_Source\PSoC4/CapSense.c ****     {
 416:.\Generated_Source\PSoC4/CapSense.c ****         CapSense_Init();
 417:.\Generated_Source\PSoC4/CapSense.c ****         CapSense_initVar = 1u;
 418:.\Generated_Source\PSoC4/CapSense.c ****     }
 419:.\Generated_Source\PSoC4/CapSense.c ****     CapSense_Enable();
 420:.\Generated_Source\PSoC4/CapSense.c **** 	
 421:.\Generated_Source\PSoC4/CapSense.c ****     /* AutoTunning start */
 422:.\Generated_Source\PSoC4/CapSense.c ****     #if(CapSense_TUNING_METHOD == CapSense__TUNING_AUTO)
 423:.\Generated_Source\PSoC4/CapSense.c **** 		#if(0u != CapSense_CSHL_API_GENERATE)
 424:.\Generated_Source\PSoC4/CapSense.c **** 	        CapSense_AutoTune();
 425:.\Generated_Source\PSoC4/CapSense.c **** 	        CapSense_lowLevelTuningDone = 1u;
 426:.\Generated_Source\PSoC4/CapSense.c **** 		#endif /* (0u != CapSense_CSHL_API_GENERATE) */
 427:.\Generated_Source\PSoC4/CapSense.c **** 	#else
 428:.\Generated_Source\PSoC4/CapSense.c **** 		#if(0u != CapSense_AUTOCALIBRATION_ENABLE)
 429:.\Generated_Source\PSoC4/CapSense.c **** 			
 430:.\Generated_Source\PSoC4/CapSense.c **** 			#if(CapSense_IDAC_CNT > 1u)
 431:.\Generated_Source\PSoC4/CapSense.c **** 				CapSense_CSD_IDAC_REG &= ~(CapSense_CSD_IDAC2_MODE_MASK);	
 432:.\Generated_Source\PSoC4/CapSense.c **** 			#endif /* (CapSense_IDAC_CNT > 1u) */
 433:.\Generated_Source\PSoC4/CapSense.c **** 			
 434:.\Generated_Source\PSoC4/CapSense.c **** 			for(curSensor = 0u; curSensor < CapSense_TOTAL_SCANSLOT_COUNT; curSensor++)
 435:.\Generated_Source\PSoC4/CapSense.c **** 			{
 436:.\Generated_Source\PSoC4/CapSense.c **** 				widget = CapSense_widgetNumber[curSensor];
 437:.\Generated_Source\PSoC4/CapSense.c **** 				rawLevel = CapSense_widgetResolution[widget] >> CapSense_RESOLUTION_OFFSET;
 438:.\Generated_Source\PSoC4/CapSense.c **** 				
 439:.\Generated_Source\PSoC4/CapSense.c **** 				/* Calibration level should be equal to 85% from scanning resolution */
ARM GAS  C:\Users\kbuchi\AppData\Local\Temp\ccOUPaAd.s 			page 12


 440:.\Generated_Source\PSoC4/CapSense.c **** 				rawLevel = (rawLevel * 85u) / 100u;
 441:.\Generated_Source\PSoC4/CapSense.c **** 				
 442:.\Generated_Source\PSoC4/CapSense.c **** 				CapSense_CalibrateSensor(curSensor, rawLevel, CapSense_modulationIDAC);
 443:.\Generated_Source\PSoC4/CapSense.c **** 			}
 444:.\Generated_Source\PSoC4/CapSense.c **** 
 445:.\Generated_Source\PSoC4/CapSense.c **** 			#if(0u != CapSense_TOTAL_CENTROIDS_COUNT) 
 446:.\Generated_Source\PSoC4/CapSense.c **** 				CapSense_NormalizeWidgets(CapSense_END_OF_WIDGETS_INDEX, CapSense_modulationIDAC);
 447:.\Generated_Source\PSoC4/CapSense.c **** 			#endif /* (0u != CapSense_TOTAL_CENTROIDS_COUNT)  */
 448:.\Generated_Source\PSoC4/CapSense.c **** 
 449:.\Generated_Source\PSoC4/CapSense.c **** 			#if(CapSense_IDAC_CNT > 1u)
 450:.\Generated_Source\PSoC4/CapSense.c **** 				for(curSensor = 0u; curSensor < CapSense_TOTAL_SCANSLOT_COUNT; curSensor++)
 451:.\Generated_Source\PSoC4/CapSense.c **** 			    {
 452:.\Generated_Source\PSoC4/CapSense.c **** 					CapSense_compensationIDAC[curSensor] = CapSense_modulationIDAC[curSensor] / 2u;
 453:.\Generated_Source\PSoC4/CapSense.c **** 					CapSense_modulationIDAC[curSensor] = (CapSense_modulationIDAC[curSensor] + 1u) / 2u;
 454:.\Generated_Source\PSoC4/CapSense.c **** 			    }
 455:.\Generated_Source\PSoC4/CapSense.c **** 				CapSense_CSD_IDAC_REG |= CapSense_CSD_IDAC2_MODE_FIXED;
 456:.\Generated_Source\PSoC4/CapSense.c **** 			#endif /* (CapSense_IDAC_CNT > 1u) */
 457:.\Generated_Source\PSoC4/CapSense.c **** 			
 458:.\Generated_Source\PSoC4/CapSense.c ****         #endif /* (0u != CapSense_AUTOCALIBRATION_ENABLE) */ 
 459:.\Generated_Source\PSoC4/CapSense.c **** 					
 460:.\Generated_Source\PSoC4/CapSense.c ****     #endif /* ((CapSense_TUNING_METHOD == CapSense__TUNING_AUTO) */	
 461:.\Generated_Source\PSoC4/CapSense.c **** 	
 462:.\Generated_Source\PSoC4/CapSense.c **** 	/* Initialize Advanced Centroid */
 463:.\Generated_Source\PSoC4/CapSense.c **** 	#if(CapSense_TOTAL_TRACKPAD_GESTURES_COUNT > 0u)
 464:.\Generated_Source\PSoC4/CapSense.c **** 		CapSense_AdvancedCentroidInit();
 465:.\Generated_Source\PSoC4/CapSense.c **** 	#endif /* (CapSense_TOTAL_TRACKPAD_GESTURES_COUNT > 0u) */
 466:.\Generated_Source\PSoC4/CapSense.c **** 	
 467:.\Generated_Source\PSoC4/CapSense.c **** 	/* Connect sense comparator input to AMUXA */
 468:.\Generated_Source\PSoC4/CapSense.c **** 	CapSense_CSD_CFG_REG |= CapSense_CSD_CFG_SENSE_INSEL;
 469:.\Generated_Source\PSoC4/CapSense.c **** }
 470:.\Generated_Source\PSoC4/CapSense.c **** 
 471:.\Generated_Source\PSoC4/CapSense.c **** 
 472:.\Generated_Source\PSoC4/CapSense.c **** /*******************************************************************************
 473:.\Generated_Source\PSoC4/CapSense.c **** * Function Name: CapSense_Stop
 474:.\Generated_Source\PSoC4/CapSense.c **** ********************************************************************************
 475:.\Generated_Source\PSoC4/CapSense.c **** *
 476:.\Generated_Source\PSoC4/CapSense.c **** * Summary:
 477:.\Generated_Source\PSoC4/CapSense.c **** *  Stops the sensor scanning, disables component interrupts, and resets all the 
 478:.\Generated_Source\PSoC4/CapSense.c **** *  sensors to an inactive state. Disables the Active mode power template bits for
 479:.\Generated_Source\PSoC4/CapSense.c **** *  the subcomponents used within CapSense.
 480:.\Generated_Source\PSoC4/CapSense.c **** *
 481:.\Generated_Source\PSoC4/CapSense.c **** * Parameters:
 482:.\Generated_Source\PSoC4/CapSense.c **** *  None
 483:.\Generated_Source\PSoC4/CapSense.c **** *
 484:.\Generated_Source\PSoC4/CapSense.c **** * Return:
 485:.\Generated_Source\PSoC4/CapSense.c **** *  None
 486:.\Generated_Source\PSoC4/CapSense.c **** *
 487:.\Generated_Source\PSoC4/CapSense.c **** * Global Variables:
 488:.\Generated_Source\PSoC4/CapSense.c **** *  CapSense_csdTrim1 - Contains the IDAC trim register value for the Sourcing Mode.
 489:.\Generated_Source\PSoC4/CapSense.c **** *  CapSense_csdTrim2 - Contains the IDAC trim register value for vSinking Mode.
 490:.\Generated_Source\PSoC4/CapSense.c **** *
 491:.\Generated_Source\PSoC4/CapSense.c **** * Side Effects:
 492:.\Generated_Source\PSoC4/CapSense.c **** *  This function should be called after scans are completed.
 493:.\Generated_Source\PSoC4/CapSense.c **** *
 494:.\Generated_Source\PSoC4/CapSense.c **** *******************************************************************************/
 495:.\Generated_Source\PSoC4/CapSense.c **** void CapSense_Stop(void)
 496:.\Generated_Source\PSoC4/CapSense.c **** {
ARM GAS  C:\Users\kbuchi\AppData\Local\Temp\ccOUPaAd.s 			page 13


 189              		.loc 1 496 0
 190              		.cfi_startproc
 191 0000 08B5     		push	{r3, lr}
 192              		.cfi_def_cfa_offset 8
 193              		.cfi_offset 3, -8
 194              		.cfi_offset 14, -4
 497:.\Generated_Source\PSoC4/CapSense.c ****     /* Disable interrupt */
 498:.\Generated_Source\PSoC4/CapSense.c ****     CyIntDisable(CapSense_ISR_NUMBER);
 195              		.loc 1 498 0
 196 0002 0F20     		mov	r0, #15
 197 0004 FFF7FEFF 		bl	CyIntDisable
 198              	.LVL20:
 499:.\Generated_Source\PSoC4/CapSense.c **** 	
 500:.\Generated_Source\PSoC4/CapSense.c **** 	CapSense_CSD_CFG_REG &= ~(CapSense_CSD_CFG_SENSE_COMP_EN | CapSense_CSD_CFG_SENSE_EN);
 199              		.loc 1 500 0
 200 0008 064B     		ldr	r3, .L8
 201 000a 1968     		ldr	r1, [r3]
 202 000c 064A     		ldr	r2, .L8+4
 203 000e 0A40     		and	r2, r1
 204 0010 1A60     		str	r2, [r3]
 501:.\Generated_Source\PSoC4/CapSense.c **** 	
 502:.\Generated_Source\PSoC4/CapSense.c **** 	#if(CapSense_IDAC_CNT == 2u)
 503:.\Generated_Source\PSoC4/CapSense.c **** 		CapSense_CSD_CFG_REG &= ~(CapSense_CSD_CFG_ENABLE);
 205              		.loc 1 503 0
 206 0012 1A68     		ldr	r2, [r3]
 207 0014 5200     		lsl	r2, r2, #1
 208 0016 5208     		lsr	r2, r2, #1
 209 0018 1A60     		str	r2, [r3]
 504:.\Generated_Source\PSoC4/CapSense.c **** 	#endif /* (CapSense_IDAC_CNT == 2u) */
 505:.\Generated_Source\PSoC4/CapSense.c **** 
 506:.\Generated_Source\PSoC4/CapSense.c ****     /* Disable the Clocks */
 507:.\Generated_Source\PSoC4/CapSense.c ****     CapSense_SenseClk_Stop();
 210              		.loc 1 507 0
 211 001a FFF7FEFF 		bl	CapSense_SenseClk_Stop
 212              	.LVL21:
 508:.\Generated_Source\PSoC4/CapSense.c ****     CapSense_SampleClk_Stop();
 213              		.loc 1 508 0
 214 001e FFF7FEFF 		bl	CapSense_SampleClk_Stop
 215              	.LVL22:
 509:.\Generated_Source\PSoC4/CapSense.c **** }
 216              		.loc 1 509 0
 217              		@ sp needed
 218 0022 08BD     		pop	{r3, pc}
 219              	.L9:
 220              		.align	2
 221              	.L8:
 222 0024 04000840 		.word	1074266116
 223 0028 FFEFF7FF 		.word	-528385
 224              		.cfi_endproc
 225              	.LFE37:
 226              		.size	CapSense_Stop, .-CapSense_Stop
 227              		.section	.text.CapSense_IsBusy,"ax",%progbits
 228              		.align	2
 229              		.global	CapSense_IsBusy
 230              		.code	16
 231              		.thumb_func
 232              		.type	CapSense_IsBusy, %function
ARM GAS  C:\Users\kbuchi\AppData\Local\Temp\ccOUPaAd.s 			page 14


 233              	CapSense_IsBusy:
 234              	.LFB42:
 510:.\Generated_Source\PSoC4/CapSense.c **** 
 511:.\Generated_Source\PSoC4/CapSense.c **** 
 512:.\Generated_Source\PSoC4/CapSense.c **** /*******************************************************************************
 513:.\Generated_Source\PSoC4/CapSense.c **** * Function Name: CapSense_FindNextSensor
 514:.\Generated_Source\PSoC4/CapSense.c **** ********************************************************************************
 515:.\Generated_Source\PSoC4/CapSense.c **** *
 516:.\Generated_Source\PSoC4/CapSense.c **** * Summary:
 517:.\Generated_Source\PSoC4/CapSense.c **** *  Finds the next sensor to scan. 
 518:.\Generated_Source\PSoC4/CapSense.c **** *
 519:.\Generated_Source\PSoC4/CapSense.c **** * Parameters:
 520:.\Generated_Source\PSoC4/CapSense.c **** *  snsIndex:  Current index of sensor.
 521:.\Generated_Source\PSoC4/CapSense.c **** *
 522:.\Generated_Source\PSoC4/CapSense.c **** * Return:
 523:.\Generated_Source\PSoC4/CapSense.c **** *  Returns the next sensor index to scan.
 524:.\Generated_Source\PSoC4/CapSense.c **** *
 525:.\Generated_Source\PSoC4/CapSense.c **** * Global Variables:
 526:.\Generated_Source\PSoC4/CapSense.c **** *  CapSense_sensorEnableMask[] - used to store bit masks of the enabled sensors.
 527:.\Generated_Source\PSoC4/CapSense.c **** *
 528:.\Generated_Source\PSoC4/CapSense.c **** * Side Effects:
 529:.\Generated_Source\PSoC4/CapSense.c **** *  This function affects the  current scanning and should not
 530:.\Generated_Source\PSoC4/CapSense.c **** *  be used outside the component.
 531:.\Generated_Source\PSoC4/CapSense.c **** *
 532:.\Generated_Source\PSoC4/CapSense.c **** *******************************************************************************/
 533:.\Generated_Source\PSoC4/CapSense.c **** uint8 CapSense_FindNextSensor(uint8 snsIndex)
 534:.\Generated_Source\PSoC4/CapSense.c **** {
 535:.\Generated_Source\PSoC4/CapSense.c ****     uint32 enableFlag;
 536:.\Generated_Source\PSoC4/CapSense.c ****     
 537:.\Generated_Source\PSoC4/CapSense.c ****     /* Check if sensor enabled */
 538:.\Generated_Source\PSoC4/CapSense.c ****     do
 539:.\Generated_Source\PSoC4/CapSense.c ****     {
 540:.\Generated_Source\PSoC4/CapSense.c ****         /* Proceed with next sensor */
 541:.\Generated_Source\PSoC4/CapSense.c ****         snsIndex++;
 542:.\Generated_Source\PSoC4/CapSense.c ****         if(snsIndex == CapSense_TOTAL_SENSOR_COUNT)
 543:.\Generated_Source\PSoC4/CapSense.c ****         {
 544:.\Generated_Source\PSoC4/CapSense.c ****             break;
 545:.\Generated_Source\PSoC4/CapSense.c ****         }
 546:.\Generated_Source\PSoC4/CapSense.c ****         enableFlag = CapSense_GetBitValue(CapSense_sensorEnableMask, (uint32)snsIndex);
 547:.\Generated_Source\PSoC4/CapSense.c ****     }    
 548:.\Generated_Source\PSoC4/CapSense.c ****     while(enableFlag == 0u);
 549:.\Generated_Source\PSoC4/CapSense.c ****     
 550:.\Generated_Source\PSoC4/CapSense.c ****     return ((uint8)snsIndex);
 551:.\Generated_Source\PSoC4/CapSense.c **** }
 552:.\Generated_Source\PSoC4/CapSense.c **** 
 553:.\Generated_Source\PSoC4/CapSense.c **** 
 554:.\Generated_Source\PSoC4/CapSense.c **** /*******************************************************************************
 555:.\Generated_Source\PSoC4/CapSense.c **** * Function Name: CapSense_ScanSensor
 556:.\Generated_Source\PSoC4/CapSense.c **** ********************************************************************************
 557:.\Generated_Source\PSoC4/CapSense.c **** *
 558:.\Generated_Source\PSoC4/CapSense.c **** * Summary:
 559:.\Generated_Source\PSoC4/CapSense.c **** *  Sets the scan settings and starts scanning a sensor. After scanning is complete,
 560:.\Generated_Source\PSoC4/CapSense.c **** *  the ISR copies the measured sensor raw data to the global raw sensor array. 
 561:.\Generated_Source\PSoC4/CapSense.c **** *  Use of the ISR ensures this function is non-blocking. 
 562:.\Generated_Source\PSoC4/CapSense.c **** *  Each sensor has a unique number within the sensor array. 
 563:.\Generated_Source\PSoC4/CapSense.c **** *  This number is assigned by the CapSense customizer in sequence.
 564:.\Generated_Source\PSoC4/CapSense.c **** *
ARM GAS  C:\Users\kbuchi\AppData\Local\Temp\ccOUPaAd.s 			page 15


 565:.\Generated_Source\PSoC4/CapSense.c **** * Parameters:
 566:.\Generated_Source\PSoC4/CapSense.c **** *  sensor:  Sensor number.
 567:.\Generated_Source\PSoC4/CapSense.c **** *
 568:.\Generated_Source\PSoC4/CapSense.c **** * Return:
 569:.\Generated_Source\PSoC4/CapSense.c **** *  None
 570:.\Generated_Source\PSoC4/CapSense.c **** *
 571:.\Generated_Source\PSoC4/CapSense.c **** * Global Variables:
 572:.\Generated_Source\PSoC4/CapSense.c **** *  CapSense_csdStatusVar - used to provide the status and mode of the scanning process. 
 573:.\Generated_Source\PSoC4/CapSense.c **** *  Sets the busy status(scan in progress) and mode of scan as single scan.
 574:.\Generated_Source\PSoC4/CapSense.c **** *  CapSense_sensorIndex - used to store a sensor scanning sensor number.
 575:.\Generated_Source\PSoC4/CapSense.c **** *  Sets to the provided sensor argument.
 576:.\Generated_Source\PSoC4/CapSense.c **** *
 577:.\Generated_Source\PSoC4/CapSense.c **** * Side Effects:
 578:.\Generated_Source\PSoC4/CapSense.c **** *  None
 579:.\Generated_Source\PSoC4/CapSense.c **** * 
 580:.\Generated_Source\PSoC4/CapSense.c **** *******************************************************************************/
 581:.\Generated_Source\PSoC4/CapSense.c **** void CapSense_ScanSensor(uint32 sensor)
 582:.\Generated_Source\PSoC4/CapSense.c **** {
 583:.\Generated_Source\PSoC4/CapSense.c ****     /* Clears status/control variable and set sensorIndex */
 584:.\Generated_Source\PSoC4/CapSense.c ****     CapSense_csdStatusVar = 0u;
 585:.\Generated_Source\PSoC4/CapSense.c ****     CapSense_sensorIndex = (uint8)sensor;
 586:.\Generated_Source\PSoC4/CapSense.c ****     
 587:.\Generated_Source\PSoC4/CapSense.c ****     /* Start of sensor scan */
 588:.\Generated_Source\PSoC4/CapSense.c ****     CapSense_csdStatusVar = (CapSense_SW_STS_BUSY | CapSense_SW_CTRL_SINGLE_SCAN);
 589:.\Generated_Source\PSoC4/CapSense.c ****     CapSense_PreScan(sensor);
 590:.\Generated_Source\PSoC4/CapSense.c **** }
 591:.\Generated_Source\PSoC4/CapSense.c **** 
 592:.\Generated_Source\PSoC4/CapSense.c **** 
 593:.\Generated_Source\PSoC4/CapSense.c **** #if(0u != CapSense_CSHL_API_GENERATE)
 594:.\Generated_Source\PSoC4/CapSense.c **** /*******************************************************************************
 595:.\Generated_Source\PSoC4/CapSense.c **** * Function Name: CapSense_ScanWidget
 596:.\Generated_Source\PSoC4/CapSense.c **** ********************************************************************************
 597:.\Generated_Source\PSoC4/CapSense.c **** *
 598:.\Generated_Source\PSoC4/CapSense.c **** * Summary:
 599:.\Generated_Source\PSoC4/CapSense.c **** *  Sets the scan settings and starts scanning a widget.
 600:.\Generated_Source\PSoC4/CapSense.c **** *
 601:.\Generated_Source\PSoC4/CapSense.c **** * Parameters:
 602:.\Generated_Source\PSoC4/CapSense.c **** *  uint32 widget: Widget number.
 603:.\Generated_Source\PSoC4/CapSense.c **** *
 604:.\Generated_Source\PSoC4/CapSense.c **** * Return:
 605:.\Generated_Source\PSoC4/CapSense.c **** *  None
 606:.\Generated_Source\PSoC4/CapSense.c **** *
 607:.\Generated_Source\PSoC4/CapSense.c **** * Global Variables:
 608:.\Generated_Source\PSoC4/CapSense.c **** *  CapSense_csdStatusVar - used to provide the status and mode of the scanning process. 
 609:.\Generated_Source\PSoC4/CapSense.c **** *  Sets the busy status(scan in progress) and clears the single scan mode.
 610:.\Generated_Source\PSoC4/CapSense.c **** *  CapSense_sensorIndex - used to store a sensor scanning sensor number.
 611:.\Generated_Source\PSoC4/CapSense.c **** *  Sets to 0xFF and provided to function CapSense_FindNextSensor or
 612:.\Generated_Source\PSoC4/CapSense.c **** *  CapSense_sensorEnableMask[] - used to store bit masks of the enabled sensors.
 613:.\Generated_Source\PSoC4/CapSense.c **** *  CapSense_sensorEnableMaskBackup[] - used to backup bit masks of the enabled
 614:.\Generated_Source\PSoC4/CapSense.c **** *   sensors.
 615:.\Generated_Source\PSoC4/CapSense.c **** *
 616:.\Generated_Source\PSoC4/CapSense.c **** * Side Effects:
 617:.\Generated_Source\PSoC4/CapSense.c **** *  None
 618:.\Generated_Source\PSoC4/CapSense.c **** * 
 619:.\Generated_Source\PSoC4/CapSense.c **** *******************************************************************************/
 620:.\Generated_Source\PSoC4/CapSense.c **** void CapSense_ScanWidget(uint32 widget)
 621:.\Generated_Source\PSoC4/CapSense.c **** {
ARM GAS  C:\Users\kbuchi\AppData\Local\Temp\ccOUPaAd.s 			page 16


 622:.\Generated_Source\PSoC4/CapSense.c ****     uint32 sensorsPerWidget;
 623:.\Generated_Source\PSoC4/CapSense.c ****     uint32 lastSensor;
 624:.\Generated_Source\PSoC4/CapSense.c ****     uint32 snsIndex;
 625:.\Generated_Source\PSoC4/CapSense.c **** 
 626:.\Generated_Source\PSoC4/CapSense.c **** 	/* Get first sensor in widget */
 627:.\Generated_Source\PSoC4/CapSense.c **** 	CapSense_sensorIndex = CapSense_rawDataIndex[widget];
 628:.\Generated_Source\PSoC4/CapSense.c **** 	
 629:.\Generated_Source\PSoC4/CapSense.c **** 	/* Get number of sensors in widget */
 630:.\Generated_Source\PSoC4/CapSense.c **** 	sensorsPerWidget = CapSense_numberOfSensors[widget];
 631:.\Generated_Source\PSoC4/CapSense.c **** 	
 632:.\Generated_Source\PSoC4/CapSense.c **** 	/* Check if generic Sensor */
 633:.\Generated_Source\PSoC4/CapSense.c **** 	if(sensorsPerWidget == 0u)
 634:.\Generated_Source\PSoC4/CapSense.c **** 	{
 635:.\Generated_Source\PSoC4/CapSense.c **** 		sensorsPerWidget = 1u;
 636:.\Generated_Source\PSoC4/CapSense.c **** 	}
 637:.\Generated_Source\PSoC4/CapSense.c **** 	
 638:.\Generated_Source\PSoC4/CapSense.c **** 	/* Get last sensor in widget */
 639:.\Generated_Source\PSoC4/CapSense.c **** 	lastSensor = (CapSense_rawDataIndex[widget] + sensorsPerWidget) - 1u;
 640:.\Generated_Source\PSoC4/CapSense.c **** 
 641:.\Generated_Source\PSoC4/CapSense.c **** 	/* Backup sensorEnableMask array */
 642:.\Generated_Source\PSoC4/CapSense.c **** 	for(snsIndex = 0u; snsIndex < CapSense_TOTAL_SENSOR_MASK; snsIndex++)
 643:.\Generated_Source\PSoC4/CapSense.c **** 	{
 644:.\Generated_Source\PSoC4/CapSense.c **** 		/* Backup sensorEnableMask array */
 645:.\Generated_Source\PSoC4/CapSense.c **** 		CapSense_sensorEnableMaskBackup[snsIndex] = CapSense_sensorEnableMask[snsIndex];
 646:.\Generated_Source\PSoC4/CapSense.c **** 	}
 647:.\Generated_Source\PSoC4/CapSense.c **** 
 648:.\Generated_Source\PSoC4/CapSense.c **** 	/* Update sensorEnableMask to scan the sensors that belong to widget */
 649:.\Generated_Source\PSoC4/CapSense.c **** 	for(snsIndex = 0u; snsIndex < CapSense_TOTAL_SENSOR_COUNT; snsIndex++)
 650:.\Generated_Source\PSoC4/CapSense.c **** 	{
 651:.\Generated_Source\PSoC4/CapSense.c **** 		/* Update sensorEnableMask array bits to scan the widget only */ 
 652:.\Generated_Source\PSoC4/CapSense.c **** 	    if((snsIndex >= CapSense_sensorIndex) && (snsIndex <= lastSensor))
 653:.\Generated_Source\PSoC4/CapSense.c **** 		{
 654:.\Generated_Source\PSoC4/CapSense.c **** 		    /* Set sensor bit to scan */
 655:.\Generated_Source\PSoC4/CapSense.c **** 			CapSense_SetBitValue(CapSense_sensorEnableMask, snsIndex, 1u);
 656:.\Generated_Source\PSoC4/CapSense.c **** 		}
 657:.\Generated_Source\PSoC4/CapSense.c **** 		else
 658:.\Generated_Source\PSoC4/CapSense.c **** 		{
 659:.\Generated_Source\PSoC4/CapSense.c **** 		    /* Reset sensor bit to do not scan */
 660:.\Generated_Source\PSoC4/CapSense.c **** 		    CapSense_SetBitValue(CapSense_sensorEnableMask, snsIndex, 0u);
 661:.\Generated_Source\PSoC4/CapSense.c **** 		}
 662:.\Generated_Source\PSoC4/CapSense.c **** 	}
 663:.\Generated_Source\PSoC4/CapSense.c **** 
 664:.\Generated_Source\PSoC4/CapSense.c ****     /* Check end of scan condition */
 665:.\Generated_Source\PSoC4/CapSense.c ****     if(CapSense_sensorIndex < CapSense_TOTAL_SENSOR_COUNT)
 666:.\Generated_Source\PSoC4/CapSense.c ****     {
 667:.\Generated_Source\PSoC4/CapSense.c **** 		/* Set widget busy bit in status/control variable*/ 
 668:.\Generated_Source\PSoC4/CapSense.c **** 		CapSense_csdStatusVar = (CapSense_SW_STS_BUSY | CapSense_SW_CTRL_WIDGET_SCAN);
 669:.\Generated_Source\PSoC4/CapSense.c **** 		/* Scan first sensor of widget*/ 
 670:.\Generated_Source\PSoC4/CapSense.c ****         CapSense_PreScan((uint32)CapSense_sensorIndex);
 671:.\Generated_Source\PSoC4/CapSense.c ****     }
 672:.\Generated_Source\PSoC4/CapSense.c **** }
 673:.\Generated_Source\PSoC4/CapSense.c **** #endif /* (0u != CapSense_CSHL_API_GENERATE) */
 674:.\Generated_Source\PSoC4/CapSense.c **** 
 675:.\Generated_Source\PSoC4/CapSense.c **** 
 676:.\Generated_Source\PSoC4/CapSense.c **** /*******************************************************************************
 677:.\Generated_Source\PSoC4/CapSense.c **** * Function Name: CapSense_ScanEnableWidgets
 678:.\Generated_Source\PSoC4/CapSense.c **** ********************************************************************************
ARM GAS  C:\Users\kbuchi\AppData\Local\Temp\ccOUPaAd.s 			page 17


 679:.\Generated_Source\PSoC4/CapSense.c **** *
 680:.\Generated_Source\PSoC4/CapSense.c **** * Summary:
 681:.\Generated_Source\PSoC4/CapSense.c **** *  This is the preferred method to scan all of the enabled widgets. 
 682:.\Generated_Source\PSoC4/CapSense.c **** *  The API starts scanning a sensor within the enabled widgets. 
 683:.\Generated_Source\PSoC4/CapSense.c **** *  The ISR continues scanning the sensors until all the enabled widgets are scanned. 
 684:.\Generated_Source\PSoC4/CapSense.c **** *  Use of the ISR ensures this function is non-blocking.
 685:.\Generated_Source\PSoC4/CapSense.c **** *  All the widgets are enabled by default except proximity widgets. 
 686:.\Generated_Source\PSoC4/CapSense.c **** *  The proximity widgets must be manually enabled as their long scan time 
 687:.\Generated_Source\PSoC4/CapSense.c **** *  is incompatible with a fast response required of other widget types.
 688:.\Generated_Source\PSoC4/CapSense.c **** *
 689:.\Generated_Source\PSoC4/CapSense.c **** * Parameters:
 690:.\Generated_Source\PSoC4/CapSense.c **** *  None
 691:.\Generated_Source\PSoC4/CapSense.c **** *
 692:.\Generated_Source\PSoC4/CapSense.c **** * Return:
 693:.\Generated_Source\PSoC4/CapSense.c **** *  None
 694:.\Generated_Source\PSoC4/CapSense.c **** *
 695:.\Generated_Source\PSoC4/CapSense.c **** * Global Variables:
 696:.\Generated_Source\PSoC4/CapSense.c **** *  CapSense_csdStatusVar - used to provide the status and mode of the scanning process. 
 697:.\Generated_Source\PSoC4/CapSense.c **** *  Sets the busy status(scan in progress) and clears the single scan mode.
 698:.\Generated_Source\PSoC4/CapSense.c **** *  CapSense_sensorIndex - used to store a sensor scanning sensor number.
 699:.\Generated_Source\PSoC4/CapSense.c **** *  Sets to 0xFF and provided to function CapSense_FindNextSensor or
 700:.\Generated_Source\PSoC4/CapSense.c **** *
 701:.\Generated_Source\PSoC4/CapSense.c **** * Side Effects:
 702:.\Generated_Source\PSoC4/CapSense.c **** *  None
 703:.\Generated_Source\PSoC4/CapSense.c **** * 
 704:.\Generated_Source\PSoC4/CapSense.c **** *******************************************************************************/
 705:.\Generated_Source\PSoC4/CapSense.c **** void CapSense_ScanEnabledWidgets(void)
 706:.\Generated_Source\PSoC4/CapSense.c **** {
 707:.\Generated_Source\PSoC4/CapSense.c ****     /* Clears status/control variable and set sensorIndex */
 708:.\Generated_Source\PSoC4/CapSense.c ****     CapSense_csdStatusVar = 0u;
 709:.\Generated_Source\PSoC4/CapSense.c ****     CapSense_sensorIndex = 0xFFu;
 710:.\Generated_Source\PSoC4/CapSense.c ****     
 711:.\Generated_Source\PSoC4/CapSense.c ****     /* Find next sensor */
 712:.\Generated_Source\PSoC4/CapSense.c ****     CapSense_sensorIndex = (uint8)CapSense_FindNextSensor(CapSense_sensorIndex);
 713:.\Generated_Source\PSoC4/CapSense.c **** 
 714:.\Generated_Source\PSoC4/CapSense.c ****     /* Check end of scan condition */
 715:.\Generated_Source\PSoC4/CapSense.c ****     if(CapSense_sensorIndex < CapSense_TOTAL_SENSOR_COUNT)
 716:.\Generated_Source\PSoC4/CapSense.c ****     {
 717:.\Generated_Source\PSoC4/CapSense.c ****         CapSense_csdStatusVar |= CapSense_SW_STS_BUSY;
 718:.\Generated_Source\PSoC4/CapSense.c ****         CapSense_PreScan((uint32)CapSense_sensorIndex);
 719:.\Generated_Source\PSoC4/CapSense.c ****     }
 720:.\Generated_Source\PSoC4/CapSense.c **** }
 721:.\Generated_Source\PSoC4/CapSense.c **** 
 722:.\Generated_Source\PSoC4/CapSense.c **** 
 723:.\Generated_Source\PSoC4/CapSense.c **** /*******************************************************************************
 724:.\Generated_Source\PSoC4/CapSense.c **** * Function Name: CapSense_IsBusy
 725:.\Generated_Source\PSoC4/CapSense.c **** ********************************************************************************
 726:.\Generated_Source\PSoC4/CapSense.c **** *
 727:.\Generated_Source\PSoC4/CapSense.c **** * Summary:
 728:.\Generated_Source\PSoC4/CapSense.c **** *  Returns the state of the CapSense component. 1 means that scanning in 
 729:.\Generated_Source\PSoC4/CapSense.c **** *  progress and 0 means that scanning is complete.
 730:.\Generated_Source\PSoC4/CapSense.c **** *
 731:.\Generated_Source\PSoC4/CapSense.c **** * Parameters:
 732:.\Generated_Source\PSoC4/CapSense.c **** *  None
 733:.\Generated_Source\PSoC4/CapSense.c **** *
 734:.\Generated_Source\PSoC4/CapSense.c **** * Return:
 735:.\Generated_Source\PSoC4/CapSense.c **** *  Returns the state of scanning. 1 - scanning in progress, 0 - scanning 
ARM GAS  C:\Users\kbuchi\AppData\Local\Temp\ccOUPaAd.s 			page 18


 736:.\Generated_Source\PSoC4/CapSense.c **** *  completed.
 737:.\Generated_Source\PSoC4/CapSense.c **** *
 738:.\Generated_Source\PSoC4/CapSense.c **** * Global Variables:
 739:.\Generated_Source\PSoC4/CapSense.c **** *  CapSense_csdStatusVar - used to provide the status and mode of the scanning process. 
 740:.\Generated_Source\PSoC4/CapSense.c **** *  Checks the busy status.
 741:.\Generated_Source\PSoC4/CapSense.c **** *
 742:.\Generated_Source\PSoC4/CapSense.c **** * Side Effects:
 743:.\Generated_Source\PSoC4/CapSense.c **** *  None
 744:.\Generated_Source\PSoC4/CapSense.c **** * 
 745:.\Generated_Source\PSoC4/CapSense.c **** *******************************************************************************/
 746:.\Generated_Source\PSoC4/CapSense.c **** uint32 CapSense_IsBusy(void)
 747:.\Generated_Source\PSoC4/CapSense.c **** {
 235              		.loc 1 747 0
 236              		.cfi_startproc
 748:.\Generated_Source\PSoC4/CapSense.c ****     return ((uint32)((0u != (CapSense_csdStatusVar & CapSense_SW_STS_BUSY)) ? 1u : 0u));
 237              		.loc 1 748 0
 238 0000 024B     		ldr	r3, .L11
 239 0002 1878     		ldrb	r0, [r3]
 240 0004 0123     		mov	r3, #1
 241 0006 1840     		and	r0, r3
 749:.\Generated_Source\PSoC4/CapSense.c **** }
 242              		.loc 1 749 0
 243              		@ sp needed
 244 0008 7047     		bx	lr
 245              	.L12:
 246 000a C046     		.align	2
 247              	.L11:
 248 000c 00000000 		.word	.LANCHOR0
 249              		.cfi_endproc
 250              	.LFE42:
 251              		.size	CapSense_IsBusy, .-CapSense_IsBusy
 252              		.section	.text.CapSense_ReadSensorRaw,"ax",%progbits
 253              		.align	2
 254              		.global	CapSense_ReadSensorRaw
 255              		.code	16
 256              		.thumb_func
 257              		.type	CapSense_ReadSensorRaw, %function
 258              	CapSense_ReadSensorRaw:
 259              	.LFB43:
 750:.\Generated_Source\PSoC4/CapSense.c **** 
 751:.\Generated_Source\PSoC4/CapSense.c **** 
 752:.\Generated_Source\PSoC4/CapSense.c **** /*******************************************************************************
 753:.\Generated_Source\PSoC4/CapSense.c **** * Function Name: CapSense_ReadSensorRaw
 754:.\Generated_Source\PSoC4/CapSense.c **** ********************************************************************************
 755:.\Generated_Source\PSoC4/CapSense.c **** *
 756:.\Generated_Source\PSoC4/CapSense.c **** * Summary:
 757:.\Generated_Source\PSoC4/CapSense.c **** *  Returns sensor raw data from the global CapSense_sensorRaw[ ] array. 
 758:.\Generated_Source\PSoC4/CapSense.c **** *  Each scan sensor has a unique number within the sensor array. 
 759:.\Generated_Source\PSoC4/CapSense.c **** *  This number is assigned by the CapSense customizer in sequence. 
 760:.\Generated_Source\PSoC4/CapSense.c **** *  Raw data can be used to perform calculations outside of the CapSense 
 761:.\Generated_Source\PSoC4/CapSense.c **** *  provided framework.
 762:.\Generated_Source\PSoC4/CapSense.c **** *
 763:.\Generated_Source\PSoC4/CapSense.c **** * Parameters:
 764:.\Generated_Source\PSoC4/CapSense.c **** *  sensor:  Sensor number.
 765:.\Generated_Source\PSoC4/CapSense.c **** *
 766:.\Generated_Source\PSoC4/CapSense.c **** * Return:
 767:.\Generated_Source\PSoC4/CapSense.c **** *  Returns the current raw data value for a defined sensor number.
ARM GAS  C:\Users\kbuchi\AppData\Local\Temp\ccOUPaAd.s 			page 19


 768:.\Generated_Source\PSoC4/CapSense.c **** *
 769:.\Generated_Source\PSoC4/CapSense.c **** * Global Variables:
 770:.\Generated_Source\PSoC4/CapSense.c **** *  CapSense_sensorRaw[] - used to store sensors raw data.
 771:.\Generated_Source\PSoC4/CapSense.c **** *
 772:.\Generated_Source\PSoC4/CapSense.c **** * Side Effects: 
 773:.\Generated_Source\PSoC4/CapSense.c **** *  None
 774:.\Generated_Source\PSoC4/CapSense.c **** *
 775:.\Generated_Source\PSoC4/CapSense.c **** *******************************************************************************/
 776:.\Generated_Source\PSoC4/CapSense.c **** uint16 CapSense_ReadSensorRaw(uint32 sensor)
 777:.\Generated_Source\PSoC4/CapSense.c **** {
 260              		.loc 1 777 0
 261              		.cfi_startproc
 262              	.LVL23:
 778:.\Generated_Source\PSoC4/CapSense.c ****     return CapSense_sensorRaw[sensor];
 263              		.loc 1 778 0
 264 0000 4000     		lsl	r0, r0, #1
 265              	.LVL24:
 266 0002 024B     		ldr	r3, .L14
 267 0004 1818     		add	r0, r3, r0
 268 0006 8088     		ldrh	r0, [r0, #4]
 779:.\Generated_Source\PSoC4/CapSense.c **** }
 269              		.loc 1 779 0
 270              		@ sp needed
 271 0008 7047     		bx	lr
 272              	.L15:
 273 000a C046     		.align	2
 274              	.L14:
 275 000c 00000000 		.word	.LANCHOR0
 276              		.cfi_endproc
 277              	.LFE43:
 278              		.size	CapSense_ReadSensorRaw, .-CapSense_ReadSensorRaw
 279              		.section	.text.CapSense_WriteSensorRaw,"ax",%progbits
 280              		.align	2
 281              		.global	CapSense_WriteSensorRaw
 282              		.code	16
 283              		.thumb_func
 284              		.type	CapSense_WriteSensorRaw, %function
 285              	CapSense_WriteSensorRaw:
 286              	.LFB44:
 780:.\Generated_Source\PSoC4/CapSense.c **** 
 781:.\Generated_Source\PSoC4/CapSense.c **** 
 782:.\Generated_Source\PSoC4/CapSense.c **** /*******************************************************************************
 783:.\Generated_Source\PSoC4/CapSense.c **** * Function Name: CapSense_WriteSensorRaw
 784:.\Generated_Source\PSoC4/CapSense.c **** ********************************************************************************
 785:.\Generated_Source\PSoC4/CapSense.c **** *
 786:.\Generated_Source\PSoC4/CapSense.c **** * Summary:
 787:.\Generated_Source\PSoC4/CapSense.c **** *  This API writes the raw count value passed as an argument to the sensor Raw count array.
 788:.\Generated_Source\PSoC4/CapSense.c **** *
 789:.\Generated_Source\PSoC4/CapSense.c **** * Parameters:
 790:.\Generated_Source\PSoC4/CapSense.c **** *  sensor:  Sensor number.
 791:.\Generated_Source\PSoC4/CapSense.c **** *  value: Raw count value.
 792:.\Generated_Source\PSoC4/CapSense.c **** *
 793:.\Generated_Source\PSoC4/CapSense.c **** * Global Variables:
 794:.\Generated_Source\PSoC4/CapSense.c **** *  CapSense_sensorRaw[] - used to store sensors raw data.
 795:.\Generated_Source\PSoC4/CapSense.c **** *
 796:.\Generated_Source\PSoC4/CapSense.c **** * Return:
 797:.\Generated_Source\PSoC4/CapSense.c **** *  None
ARM GAS  C:\Users\kbuchi\AppData\Local\Temp\ccOUPaAd.s 			page 20


 798:.\Generated_Source\PSoC4/CapSense.c **** *
 799:.\Generated_Source\PSoC4/CapSense.c **** * Side Effects: 
 800:.\Generated_Source\PSoC4/CapSense.c **** *  None
 801:.\Generated_Source\PSoC4/CapSense.c **** *
 802:.\Generated_Source\PSoC4/CapSense.c **** *******************************************************************************/
 803:.\Generated_Source\PSoC4/CapSense.c **** void CapSense_WriteSensorRaw(uint32 sensor, uint16 value)
 804:.\Generated_Source\PSoC4/CapSense.c **** {
 287              		.loc 1 804 0
 288              		.cfi_startproc
 289              	.LVL25:
 805:.\Generated_Source\PSoC4/CapSense.c **** 	CapSense_sensorRaw[sensor] = value;
 290              		.loc 1 805 0
 291 0000 4000     		lsl	r0, r0, #1
 292              	.LVL26:
 293 0002 024B     		ldr	r3, .L17
 294 0004 1818     		add	r0, r3, r0
 295 0006 8180     		strh	r1, [r0, #4]
 806:.\Generated_Source\PSoC4/CapSense.c **** }
 296              		.loc 1 806 0
 297              		@ sp needed
 298 0008 7047     		bx	lr
 299              	.L18:
 300 000a C046     		.align	2
 301              	.L17:
 302 000c 00000000 		.word	.LANCHOR0
 303              		.cfi_endproc
 304              	.LFE44:
 305              		.size	CapSense_WriteSensorRaw, .-CapSense_WriteSensorRaw
 306              		.section	.text.CapSense_SetScanResolution,"ax",%progbits
 307              		.align	2
 308              		.global	CapSense_SetScanResolution
 309              		.code	16
 310              		.thumb_func
 311              		.type	CapSense_SetScanResolution, %function
 312              	CapSense_SetScanResolution:
 313              	.LFB45:
 807:.\Generated_Source\PSoC4/CapSense.c **** 
 808:.\Generated_Source\PSoC4/CapSense.c **** 
 809:.\Generated_Source\PSoC4/CapSense.c **** #if (CapSense_TUNING_METHOD != CapSense__TUNING_NONE)
 810:.\Generated_Source\PSoC4/CapSense.c **** 	/*******************************************************************************
 811:.\Generated_Source\PSoC4/CapSense.c **** 	* Function Name: CapSense_SetScanResolution
 812:.\Generated_Source\PSoC4/CapSense.c **** 	********************************************************************************
 813:.\Generated_Source\PSoC4/CapSense.c **** 	*
 814:.\Generated_Source\PSoC4/CapSense.c **** 	* Summary:
 815:.\Generated_Source\PSoC4/CapSense.c **** 	*  Sets a value of the sensor scan resolution for a widget. 
 816:.\Generated_Source\PSoC4/CapSense.c **** 	*  The MIN resolution can be set 8-bit. The MAX Resolution can be set 16 bit.
 817:.\Generated_Source\PSoC4/CapSense.c **** 	*  This function is not available for the tuning mode "None".
 818:.\Generated_Source\PSoC4/CapSense.c **** 	*
 819:.\Generated_Source\PSoC4/CapSense.c **** 	* Parameters:
 820:.\Generated_Source\PSoC4/CapSense.c **** 	*  widget:     Widget index.
 821:.\Generated_Source\PSoC4/CapSense.c **** 	*  resolution: Represents the resolution value. The following defines which are available in the
 822:.\Generated_Source\PSoC4/CapSense.c **** 	*			   CapSense.h file should be used:
 823:.\Generated_Source\PSoC4/CapSense.c **** 	*			   CapSense_RESOLUTION_6_BITS
 824:.\Generated_Source\PSoC4/CapSense.c **** 	*			   CapSense_RESOLUTION_7_BITS
 825:.\Generated_Source\PSoC4/CapSense.c **** 	*			   CapSense_RESOLUTION_8_BITS
 826:.\Generated_Source\PSoC4/CapSense.c **** 	*			   CapSense_RESOLUTION_9_BITS
 827:.\Generated_Source\PSoC4/CapSense.c **** 	*			   CapSense_RESOLUTION_10_BITS
ARM GAS  C:\Users\kbuchi\AppData\Local\Temp\ccOUPaAd.s 			page 21


 828:.\Generated_Source\PSoC4/CapSense.c **** 	*			   CapSense_RESOLUTION_11_BITS
 829:.\Generated_Source\PSoC4/CapSense.c **** 	*			   CapSense_RESOLUTION_12_BITS
 830:.\Generated_Source\PSoC4/CapSense.c **** 	*			   CapSense_RESOLUTION_13_BITS
 831:.\Generated_Source\PSoC4/CapSense.c **** 	*			   CapSense_RESOLUTION_14_BITS
 832:.\Generated_Source\PSoC4/CapSense.c **** 	*			   CapSense_RESOLUTION_15_BITS
 833:.\Generated_Source\PSoC4/CapSense.c **** 	*			   CapSense_RESOLUTION_16_BITS
 834:.\Generated_Source\PSoC4/CapSense.c **** 	*
 835:.\Generated_Source\PSoC4/CapSense.c **** 	* Return:
 836:.\Generated_Source\PSoC4/CapSense.c **** 	*  None
 837:.\Generated_Source\PSoC4/CapSense.c **** 	*
 838:.\Generated_Source\PSoC4/CapSense.c **** 	* Global Variables:
 839:.\Generated_Source\PSoC4/CapSense.c **** 	*  CapSense_widgetResolution[] - used to store scan resolution of each widget.
 840:.\Generated_Source\PSoC4/CapSense.c **** 	*
 841:.\Generated_Source\PSoC4/CapSense.c **** 	* Side Effects: 
 842:.\Generated_Source\PSoC4/CapSense.c **** 	*  None
 843:.\Generated_Source\PSoC4/CapSense.c **** 	*
 844:.\Generated_Source\PSoC4/CapSense.c **** 	*******************************************************************************/
 845:.\Generated_Source\PSoC4/CapSense.c **** 	void CapSense_SetScanResolution(uint32 widget, uint32 resolution)
 846:.\Generated_Source\PSoC4/CapSense.c **** 	{ 
 314              		.loc 1 846 0
 315              		.cfi_startproc
 316              	.LVL27:
 847:.\Generated_Source\PSoC4/CapSense.c ****         CapSense_widgetResolution[widget] = resolution;
 317              		.loc 1 847 0
 318 0000 8000     		lsl	r0, r0, #2
 319              	.LVL28:
 320 0002 014B     		ldr	r3, .L20
 321 0004 C150     		str	r1, [r0, r3]
 848:.\Generated_Source\PSoC4/CapSense.c **** 	}
 322              		.loc 1 848 0
 323              		@ sp needed
 324 0006 7047     		bx	lr
 325              	.L21:
 326              		.align	2
 327              	.L20:
 328 0008 00000000 		.word	.LANCHOR1
 329              		.cfi_endproc
 330              	.LFE45:
 331              		.size	CapSense_SetScanResolution, .-CapSense_SetScanResolution
 332              		.section	.text.CapSense_GetScanResolution,"ax",%progbits
 333              		.align	2
 334              		.global	CapSense_GetScanResolution
 335              		.code	16
 336              		.thumb_func
 337              		.type	CapSense_GetScanResolution, %function
 338              	CapSense_GetScanResolution:
 339              	.LFB46:
 849:.\Generated_Source\PSoC4/CapSense.c **** #endif /* (CapSense_TUNING_METHOD != CapSense__TUNING_NONE) */
 850:.\Generated_Source\PSoC4/CapSense.c **** 
 851:.\Generated_Source\PSoC4/CapSense.c **** 
 852:.\Generated_Source\PSoC4/CapSense.c **** /*******************************************************************************
 853:.\Generated_Source\PSoC4/CapSense.c **** * Function Name: CapSense_GetScanResolution
 854:.\Generated_Source\PSoC4/CapSense.c **** ********************************************************************************
 855:.\Generated_Source\PSoC4/CapSense.c **** *
 856:.\Generated_Source\PSoC4/CapSense.c **** * Summary:
 857:.\Generated_Source\PSoC4/CapSense.c **** *  Returns the resolution value for the appropriate sensor.
 858:.\Generated_Source\PSoC4/CapSense.c **** *  This function is not available for tuning mode "None".
ARM GAS  C:\Users\kbuchi\AppData\Local\Temp\ccOUPaAd.s 			page 22


 859:.\Generated_Source\PSoC4/CapSense.c **** *
 860:.\Generated_Source\PSoC4/CapSense.c **** * Parameters:
 861:.\Generated_Source\PSoC4/CapSense.c **** *  widget:     Widget index.
 862:.\Generated_Source\PSoC4/CapSense.c **** *
 863:.\Generated_Source\PSoC4/CapSense.c **** * Return:
 864:.\Generated_Source\PSoC4/CapSense.c **** *  resolution: Returns the resolution value for the appropriate sensor. 
 865:.\Generated_Source\PSoC4/CapSense.c **** *              The resolution values are defined in the CapSense.h file 
 866:.\Generated_Source\PSoC4/CapSense.c **** *              The defines are encountered below:
 867:.\Generated_Source\PSoC4/CapSense.c **** *			   CapSense_RESOLUTION_6_BITS
 868:.\Generated_Source\PSoC4/CapSense.c **** *			   CapSense_RESOLUTION_7_BITS
 869:.\Generated_Source\PSoC4/CapSense.c **** *			   CapSense_RESOLUTION_8_BITS
 870:.\Generated_Source\PSoC4/CapSense.c **** *			   CapSense_RESOLUTION_9_BITS
 871:.\Generated_Source\PSoC4/CapSense.c **** *			   CapSense_RESOLUTION_10_BITS
 872:.\Generated_Source\PSoC4/CapSense.c **** *			   CapSense_RESOLUTION_11_BITS
 873:.\Generated_Source\PSoC4/CapSense.c **** *			   CapSense_RESOLUTION_12_BITS
 874:.\Generated_Source\PSoC4/CapSense.c **** *			   CapSense_RESOLUTION_13_BITS
 875:.\Generated_Source\PSoC4/CapSense.c **** *			   CapSense_RESOLUTION_14_BITS
 876:.\Generated_Source\PSoC4/CapSense.c **** *			   CapSense_RESOLUTION_15_BITS
 877:.\Generated_Source\PSoC4/CapSense.c **** *			   CapSense_RESOLUTION_16_BITS
 878:.\Generated_Source\PSoC4/CapSense.c **** *
 879:.\Generated_Source\PSoC4/CapSense.c **** * Global Variables:
 880:.\Generated_Source\PSoC4/CapSense.c **** *  CapSense_widgetResolution[] - used to store scan resolution of every widget.
 881:.\Generated_Source\PSoC4/CapSense.c **** *
 882:.\Generated_Source\PSoC4/CapSense.c **** * Side Effects: 
 883:.\Generated_Source\PSoC4/CapSense.c **** *  None
 884:.\Generated_Source\PSoC4/CapSense.c **** *
 885:.\Generated_Source\PSoC4/CapSense.c **** *******************************************************************************/
 886:.\Generated_Source\PSoC4/CapSense.c **** uint32 CapSense_GetScanResolution(uint32 widget)
 887:.\Generated_Source\PSoC4/CapSense.c **** {
 340              		.loc 1 887 0
 341              		.cfi_startproc
 342              	.LVL29:
 888:.\Generated_Source\PSoC4/CapSense.c **** 	return(CapSense_widgetResolution[widget]);
 343              		.loc 1 888 0
 344 0000 8000     		lsl	r0, r0, #2
 345              	.LVL30:
 346 0002 014B     		ldr	r3, .L23
 347 0004 C058     		ldr	r0, [r0, r3]
 889:.\Generated_Source\PSoC4/CapSense.c **** }
 348              		.loc 1 889 0
 349              		@ sp needed
 350 0006 7047     		bx	lr
 351              	.L24:
 352              		.align	2
 353              	.L23:
 354 0008 00000000 		.word	.LANCHOR1
 355              		.cfi_endproc
 356              	.LFE46:
 357              		.size	CapSense_GetScanResolution, .-CapSense_GetScanResolution
 358              		.section	.text.CapSense_EnableSensor,"ax",%progbits
 359              		.align	2
 360              		.global	CapSense_EnableSensor
 361              		.code	16
 362              		.thumb_func
 363              		.type	CapSense_EnableSensor, %function
 364              	CapSense_EnableSensor:
 365              	.LFB48:
ARM GAS  C:\Users\kbuchi\AppData\Local\Temp\ccOUPaAd.s 			page 23


 890:.\Generated_Source\PSoC4/CapSense.c **** 
 891:.\Generated_Source\PSoC4/CapSense.c **** 
 892:.\Generated_Source\PSoC4/CapSense.c **** /*******************************************************************************
 893:.\Generated_Source\PSoC4/CapSense.c **** * Function Name: CapSense_ClearSensors
 894:.\Generated_Source\PSoC4/CapSense.c **** ********************************************************************************
 895:.\Generated_Source\PSoC4/CapSense.c **** *
 896:.\Generated_Source\PSoC4/CapSense.c **** * Summary:
 897:.\Generated_Source\PSoC4/CapSense.c **** *  Resets all the sensors to the non-sampling state by sequentially disconnecting
 898:.\Generated_Source\PSoC4/CapSense.c **** *  all the sensors from Analog MUX Bus and putting them to an inactive state.
 899:.\Generated_Source\PSoC4/CapSense.c **** *
 900:.\Generated_Source\PSoC4/CapSense.c **** * Parameters:
 901:.\Generated_Source\PSoC4/CapSense.c **** *  None
 902:.\Generated_Source\PSoC4/CapSense.c **** *
 903:.\Generated_Source\PSoC4/CapSense.c **** * Return:
 904:.\Generated_Source\PSoC4/CapSense.c **** *  None
 905:.\Generated_Source\PSoC4/CapSense.c **** *
 906:.\Generated_Source\PSoC4/CapSense.c **** * Global Variables:
 907:.\Generated_Source\PSoC4/CapSense.c **** *  None
 908:.\Generated_Source\PSoC4/CapSense.c **** *
 909:.\Generated_Source\PSoC4/CapSense.c **** * Side Effects: 
 910:.\Generated_Source\PSoC4/CapSense.c **** *  None
 911:.\Generated_Source\PSoC4/CapSense.c **** *
 912:.\Generated_Source\PSoC4/CapSense.c **** *******************************************************************************/
 913:.\Generated_Source\PSoC4/CapSense.c **** void CapSense_ClearSensors(void)
 914:.\Generated_Source\PSoC4/CapSense.c **** {
 915:.\Generated_Source\PSoC4/CapSense.c **** 	uint32 snsIndex;
 916:.\Generated_Source\PSoC4/CapSense.c **** 	
 917:.\Generated_Source\PSoC4/CapSense.c ****     for (snsIndex = 0u; snsIndex < CapSense_TOTAL_SENSOR_COUNT; snsIndex++)
 918:.\Generated_Source\PSoC4/CapSense.c ****     {
 919:.\Generated_Source\PSoC4/CapSense.c ****         CapSense_DisableScanSlot(snsIndex);
 920:.\Generated_Source\PSoC4/CapSense.c ****     }
 921:.\Generated_Source\PSoC4/CapSense.c **** }
 922:.\Generated_Source\PSoC4/CapSense.c **** 
 923:.\Generated_Source\PSoC4/CapSense.c **** 
 924:.\Generated_Source\PSoC4/CapSense.c **** #if (CapSense_IS_COMPLEX_SCANSLOTS)
 925:.\Generated_Source\PSoC4/CapSense.c ****     /*******************************************************************************
 926:.\Generated_Source\PSoC4/CapSense.c ****     * Function Name: CapSense_EnableScanSlot
 927:.\Generated_Source\PSoC4/CapSense.c ****     ********************************************************************************
 928:.\Generated_Source\PSoC4/CapSense.c ****     *
 929:.\Generated_Source\PSoC4/CapSense.c ****     * Summary:
 930:.\Generated_Source\PSoC4/CapSense.c ****     *  Configures the selected slot to measure during the next measurement 
 931:.\Generated_Source\PSoC4/CapSense.c ****     *  cycle. The corresponding pin/pins are set to Analog High-Z mode and 
 932:.\Generated_Source\PSoC4/CapSense.c ****     *  connected to the Analog Mux Bus. This also enables the comparator function.
 933:.\Generated_Source\PSoC4/CapSense.c ****     *
 934:.\Generated_Source\PSoC4/CapSense.c ****     * Parameters:
 935:.\Generated_Source\PSoC4/CapSense.c ****     *  slot:  Slot number.
 936:.\Generated_Source\PSoC4/CapSense.c ****     *
 937:.\Generated_Source\PSoC4/CapSense.c ****     * Return:
 938:.\Generated_Source\PSoC4/CapSense.c ****     *  None
 939:.\Generated_Source\PSoC4/CapSense.c ****     *
 940:.\Generated_Source\PSoC4/CapSense.c ****     * Global Constants:
 941:.\Generated_Source\PSoC4/CapSense.c ****     *  CapSense_portTable[]  - used to store the port number that pin 
 942:.\Generated_Source\PSoC4/CapSense.c ****     *  belongs to for each sensor.
 943:.\Generated_Source\PSoC4/CapSense.c ****     *  CapSense_maskTable[]  - used to store the pin within the port for 
 944:.\Generated_Source\PSoC4/CapSense.c ****     *  each sensor.
 945:.\Generated_Source\PSoC4/CapSense.c ****     *  CapSense_indexTable[] - used to store indexes of complex sensors.
 946:.\Generated_Source\PSoC4/CapSense.c ****     *  The offset and position in this array are stored in a port and mask table for 
ARM GAS  C:\Users\kbuchi\AppData\Local\Temp\ccOUPaAd.s 			page 24


 947:.\Generated_Source\PSoC4/CapSense.c ****     *  complex sensors.
 948:.\Generated_Source\PSoC4/CapSense.c ****     *  Bit 7 (msb) is used to define the sensor type: single or complex.
 949:.\Generated_Source\PSoC4/CapSense.c ****     *
 950:.\Generated_Source\PSoC4/CapSense.c **** 	* Side Effects: 
 951:.\Generated_Source\PSoC4/CapSense.c **** 	*  None
 952:.\Generated_Source\PSoC4/CapSense.c **** 	*
 953:.\Generated_Source\PSoC4/CapSense.c ****     *******************************************************************************/
 954:.\Generated_Source\PSoC4/CapSense.c ****     void CapSense_EnableScanSlot(uint32 slot)
 955:.\Generated_Source\PSoC4/CapSense.c ****     {
 956:.\Generated_Source\PSoC4/CapSense.c ****         uint8 j;
 957:.\Generated_Source\PSoC4/CapSense.c ****         uint8 snsNumber;
 958:.\Generated_Source\PSoC4/CapSense.c ****         const uint8 *index;
 959:.\Generated_Source\PSoC4/CapSense.c ****         /* Read sensor type: single or complex */
 960:.\Generated_Source\PSoC4/CapSense.c ****         uint8 snsType = CapSense_portTable[slot];
 961:.\Generated_Source\PSoC4/CapSense.c **** 
 962:.\Generated_Source\PSoC4/CapSense.c ****         /* Check if sensor is complex */
 963:.\Generated_Source\PSoC4/CapSense.c ****         if ((snsType & CapSense_COMPLEX_SS_FLAG) == 0u)
 964:.\Generated_Source\PSoC4/CapSense.c ****         {
 965:.\Generated_Source\PSoC4/CapSense.c ****             /* Enable sensor (single) */
 966:.\Generated_Source\PSoC4/CapSense.c ****             CapSense_EnableSensor(slot);
 967:.\Generated_Source\PSoC4/CapSense.c ****         }
 968:.\Generated_Source\PSoC4/CapSense.c ****         else
 969:.\Generated_Source\PSoC4/CapSense.c ****         {
 970:.\Generated_Source\PSoC4/CapSense.c ****             /* Enable complex sensor */
 971:.\Generated_Source\PSoC4/CapSense.c ****             snsType &= ~CapSense_COMPLEX_SS_FLAG;
 972:.\Generated_Source\PSoC4/CapSense.c ****             index = &CapSense_indexTable[snsType];
 973:.\Generated_Source\PSoC4/CapSense.c ****             snsNumber = CapSense_maskTable[slot];
 974:.\Generated_Source\PSoC4/CapSense.c ****                         
 975:.\Generated_Source\PSoC4/CapSense.c ****             for (j = 0u; j < snsNumber; j++)
 976:.\Generated_Source\PSoC4/CapSense.c ****             {
 977:.\Generated_Source\PSoC4/CapSense.c ****                 CapSense_EnableSensor(index[j]);
 978:.\Generated_Source\PSoC4/CapSense.c ****             }
 979:.\Generated_Source\PSoC4/CapSense.c ****         }
 980:.\Generated_Source\PSoC4/CapSense.c ****     }
 981:.\Generated_Source\PSoC4/CapSense.c ****     
 982:.\Generated_Source\PSoC4/CapSense.c ****     
 983:.\Generated_Source\PSoC4/CapSense.c ****     /*******************************************************************************
 984:.\Generated_Source\PSoC4/CapSense.c ****     * Function Name: CapSense_DisableScanSlot
 985:.\Generated_Source\PSoC4/CapSense.c ****     ********************************************************************************
 986:.\Generated_Source\PSoC4/CapSense.c ****     *
 987:.\Generated_Source\PSoC4/CapSense.c ****     * Summary:
 988:.\Generated_Source\PSoC4/CapSense.c ****     *  Disables the selected slot. The corresponding pin/pins is/are disconnected 
 989:.\Generated_Source\PSoC4/CapSense.c ****     *  from the Analog Mux Bus and connected to GND, High_Z or Shield electrode.
 990:.\Generated_Source\PSoC4/CapSense.c ****     *
 991:.\Generated_Source\PSoC4/CapSense.c ****     * Parameters:
 992:.\Generated_Source\PSoC4/CapSense.c ****     *  slot:  Slot number.
 993:.\Generated_Source\PSoC4/CapSense.c ****     *
 994:.\Generated_Source\PSoC4/CapSense.c ****     * Return:
 995:.\Generated_Source\PSoC4/CapSense.c ****     *  None
 996:.\Generated_Source\PSoC4/CapSense.c ****     *
 997:.\Generated_Source\PSoC4/CapSense.c ****     * Global Variables:
 998:.\Generated_Source\PSoC4/CapSense.c ****     *  CapSense_portTable[]  - used to store the port number that pin 
 999:.\Generated_Source\PSoC4/CapSense.c ****     *  belongs to for each sensor.
1000:.\Generated_Source\PSoC4/CapSense.c ****     *  CapSense_maskTable[]  - used to store the pin within the port for 
1001:.\Generated_Source\PSoC4/CapSense.c ****     *  each sensor.
1002:.\Generated_Source\PSoC4/CapSense.c ****     *  CapSense_indexTable[] - used to store indexes of complex sensors.
1003:.\Generated_Source\PSoC4/CapSense.c ****     *  The offset and position in this array are stored in a port and mask table for 
ARM GAS  C:\Users\kbuchi\AppData\Local\Temp\ccOUPaAd.s 			page 25


1004:.\Generated_Source\PSoC4/CapSense.c ****     *  complex sensors.
1005:.\Generated_Source\PSoC4/CapSense.c ****     *  7bit(msb) is used to define the sensor type: single or complex.
1006:.\Generated_Source\PSoC4/CapSense.c ****     *
1007:.\Generated_Source\PSoC4/CapSense.c **** 	* Side Effects: 
1008:.\Generated_Source\PSoC4/CapSense.c **** 	*  None
1009:.\Generated_Source\PSoC4/CapSense.c **** 	*
1010:.\Generated_Source\PSoC4/CapSense.c ****     *******************************************************************************/
1011:.\Generated_Source\PSoC4/CapSense.c ****     void CapSense_DisableScanSlot(uint32 slot)
1012:.\Generated_Source\PSoC4/CapSense.c ****     {
1013:.\Generated_Source\PSoC4/CapSense.c ****         uint8 j;
1014:.\Generated_Source\PSoC4/CapSense.c ****         uint8 snsNumber;
1015:.\Generated_Source\PSoC4/CapSense.c ****         const uint8 *index;
1016:.\Generated_Source\PSoC4/CapSense.c **** 
1017:.\Generated_Source\PSoC4/CapSense.c ****         /* Read sensor type: single or complex */
1018:.\Generated_Source\PSoC4/CapSense.c ****         uint8 snsType = CapSense_portTable[slot];
1019:.\Generated_Source\PSoC4/CapSense.c ****         
1020:.\Generated_Source\PSoC4/CapSense.c ****         /* Check if sensor is complex */
1021:.\Generated_Source\PSoC4/CapSense.c ****         if ((snsType & CapSense_COMPLEX_SS_FLAG) == 0u)
1022:.\Generated_Source\PSoC4/CapSense.c ****         {
1023:.\Generated_Source\PSoC4/CapSense.c ****             /* Disable sensor (single) */
1024:.\Generated_Source\PSoC4/CapSense.c ****             CapSense_DisableSensor(slot);
1025:.\Generated_Source\PSoC4/CapSense.c ****         }
1026:.\Generated_Source\PSoC4/CapSense.c ****         else
1027:.\Generated_Source\PSoC4/CapSense.c ****         {
1028:.\Generated_Source\PSoC4/CapSense.c ****             /* Disable complex sensor */
1029:.\Generated_Source\PSoC4/CapSense.c ****             snsType &= ~CapSense_COMPLEX_SS_FLAG;
1030:.\Generated_Source\PSoC4/CapSense.c ****             index = &CapSense_indexTable[snsType];
1031:.\Generated_Source\PSoC4/CapSense.c ****             snsNumber = CapSense_maskTable[slot];
1032:.\Generated_Source\PSoC4/CapSense.c ****                         
1033:.\Generated_Source\PSoC4/CapSense.c ****             for (j=0; j < snsNumber; j++)
1034:.\Generated_Source\PSoC4/CapSense.c ****             {
1035:.\Generated_Source\PSoC4/CapSense.c ****                 CapSense_DisableSensor(index[j]);
1036:.\Generated_Source\PSoC4/CapSense.c ****             }
1037:.\Generated_Source\PSoC4/CapSense.c ****         } 
1038:.\Generated_Source\PSoC4/CapSense.c ****     }
1039:.\Generated_Source\PSoC4/CapSense.c **** #endif  /* CapSense_IS_COMPLEX_SCANSLOTS */
1040:.\Generated_Source\PSoC4/CapSense.c **** 
1041:.\Generated_Source\PSoC4/CapSense.c **** 
1042:.\Generated_Source\PSoC4/CapSense.c **** /*******************************************************************************
1043:.\Generated_Source\PSoC4/CapSense.c **** * Function Name: CapSense_EnableSensor
1044:.\Generated_Source\PSoC4/CapSense.c **** ********************************************************************************
1045:.\Generated_Source\PSoC4/CapSense.c **** *
1046:.\Generated_Source\PSoC4/CapSense.c **** * Summary:
1047:.\Generated_Source\PSoC4/CapSense.c **** *  Configures the selected sensor to measure during the next measurement cycle.
1048:.\Generated_Source\PSoC4/CapSense.c **** *  The corresponding pins are set to Analog High-Z mode and connected to the
1049:.\Generated_Source\PSoC4/CapSense.c **** *  Analog Mux Bus. This also enables the comparator function.
1050:.\Generated_Source\PSoC4/CapSense.c **** *
1051:.\Generated_Source\PSoC4/CapSense.c **** * Parameters:
1052:.\Generated_Source\PSoC4/CapSense.c **** *  sensor:  Sensor number.
1053:.\Generated_Source\PSoC4/CapSense.c **** *
1054:.\Generated_Source\PSoC4/CapSense.c **** * Return:
1055:.\Generated_Source\PSoC4/CapSense.c **** *  None
1056:.\Generated_Source\PSoC4/CapSense.c **** *
1057:.\Generated_Source\PSoC4/CapSense.c **** * Global Variables:
1058:.\Generated_Source\PSoC4/CapSense.c **** *  CapSense_portTable[] - used to store the port number that pin 
1059:.\Generated_Source\PSoC4/CapSense.c **** *  belongs to for each sensor.
1060:.\Generated_Source\PSoC4/CapSense.c **** *  CapSense_pinShiftTbl[] - used to store position of pin that 
ARM GAS  C:\Users\kbuchi\AppData\Local\Temp\ccOUPaAd.s 			page 26


1061:.\Generated_Source\PSoC4/CapSense.c **** *  configured as sensor in port. 
1062:.\Generated_Source\PSoC4/CapSense.c **** *  CapSense_prtSelTbl[] - Contains pointers to the HSIOM 
1063:.\Generated_Source\PSoC4/CapSense.c **** *  registers for each port. 
1064:.\Generated_Source\PSoC4/CapSense.c **** *  CapSense_PrtCfgTb[] - Contains pointers to the port config 
1065:.\Generated_Source\PSoC4/CapSense.c **** *  registers for each port.
1066:.\Generated_Source\PSoC4/CapSense.c **** *
1067:.\Generated_Source\PSoC4/CapSense.c **** * Side Effects: 
1068:.\Generated_Source\PSoC4/CapSense.c **** *  None
1069:.\Generated_Source\PSoC4/CapSense.c **** *
1070:.\Generated_Source\PSoC4/CapSense.c **** *******************************************************************************/
1071:.\Generated_Source\PSoC4/CapSense.c **** void CapSense_EnableSensor(uint32 sensor)
1072:.\Generated_Source\PSoC4/CapSense.c **** {
 366              		.loc 1 1072 0
 367              		.cfi_startproc
 368              	.LVL31:
 369 0000 F8B5     		push	{r3, r4, r5, r6, r7, lr}
 370              		.cfi_def_cfa_offset 24
 371              		.cfi_offset 3, -24
 372              		.cfi_offset 4, -20
 373              		.cfi_offset 5, -16
 374              		.cfi_offset 6, -12
 375              		.cfi_offset 7, -8
 376              		.cfi_offset 14, -4
1073:.\Generated_Source\PSoC4/CapSense.c **** 	uint8  pinModeShift;
1074:.\Generated_Source\PSoC4/CapSense.c ****     uint8  pinHSIOMShift;
1075:.\Generated_Source\PSoC4/CapSense.c **** 	uint8 interruptState;
1076:.\Generated_Source\PSoC4/CapSense.c **** 	uint32 newRegisterValue;
1077:.\Generated_Source\PSoC4/CapSense.c ****     uint32 port;
1078:.\Generated_Source\PSoC4/CapSense.c **** 	
1079:.\Generated_Source\PSoC4/CapSense.c **** 	port = (uint32) CapSense_portTable[sensor];
 377              		.loc 1 1079 0
 378 0002 104C     		ldr	r4, .L26
 379 0004 275C     		ldrb	r7, [r4, r0]
 380              	.LVL32:
1080:.\Generated_Source\PSoC4/CapSense.c ****     pinModeShift = CapSense_pinShiftTbl[sensor]  * CapSense_PC_PIN_CFG_SIZE;
 381              		.loc 1 1080 0
 382 0006 2018     		add	r0, r4, r0
 383              	.LVL33:
 384 0008 037A     		ldrb	r3, [r0, #8]
 385 000a 5E00     		lsl	r6, r3, #1
 386 000c 9E19     		add	r6, r3, r6
 387 000e F6B2     		uxtb	r6, r6
 388              	.LVL34:
1081:.\Generated_Source\PSoC4/CapSense.c ****     pinHSIOMShift = CapSense_pinShiftTbl[sensor] * CapSense_HSIOM_PIN_CFG_SIZE;
 389              		.loc 1 1081 0
 390 0010 9B00     		lsl	r3, r3, #2
 391 0012 DDB2     		uxtb	r5, r3
 392              	.LVL35:
1082:.\Generated_Source\PSoC4/CapSense.c **** 
1083:.\Generated_Source\PSoC4/CapSense.c **** 	interruptState = CyEnterCriticalSection();
 393              		.loc 1 1083 0
 394 0014 FFF7FEFF 		bl	CyEnterCriticalSection
 395              	.LVL36:
1084:.\Generated_Source\PSoC4/CapSense.c **** 	
1085:.\Generated_Source\PSoC4/CapSense.c **** 	newRegisterValue = *CapSense_prtSelTbl[port];
 396              		.loc 1 1085 0
 397 0018 BF00     		lsl	r7, r7, #2
ARM GAS  C:\Users\kbuchi\AppData\Local\Temp\ccOUPaAd.s 			page 27


 398              	.LVL37:
 399 001a E419     		add	r4, r4, r7
 400              	.LVL38:
 401 001c 2269     		ldr	r2, [r4, #16]
 402 001e 1168     		ldr	r1, [r2]
 403              	.LVL39:
1086:.\Generated_Source\PSoC4/CapSense.c **** 	newRegisterValue &= ~(CapSense_CSD_HSIOM_MASK << pinHSIOMShift);
 404              		.loc 1 1086 0
 405 0020 0F23     		mov	r3, #15
 406 0022 AB40     		lsl	r3, r3, r5
 407 0024 9943     		bic	r1, r3
 408              	.LVL40:
1087:.\Generated_Source\PSoC4/CapSense.c **** 	newRegisterValue |= (uint32)((uint32)CapSense_CSD_SENSE_PORT_MODE << pinHSIOMShift);
 409              		.loc 1 1087 0
 410 0026 0423     		mov	r3, #4
 411 0028 AB40     		lsl	r3, r3, r5
 412 002a 1D1C     		mov	r5, r3
 413              	.LVL41:
 414 002c 0D43     		orr	r5, r1
 415              	.LVL42:
1088:.\Generated_Source\PSoC4/CapSense.c ****    
1089:.\Generated_Source\PSoC4/CapSense.c ****     *CapSense_prtCfgTbl[port] &= (uint32)~((uint32)CapSense_CSD_PIN_MODE_MASK << pinModeShift);
 416              		.loc 1 1089 0
 417 002e 616A     		ldr	r1, [r4, #36]
 418 0030 0B68     		ldr	r3, [r1]
 419 0032 0724     		mov	r4, #7
 420 0034 B440     		lsl	r4, r4, r6
 421 0036 A343     		bic	r3, r4
 422 0038 0B60     		str	r3, [r1]
1090:.\Generated_Source\PSoC4/CapSense.c ****     *CapSense_prtSelTbl[port] = newRegisterValue;
 423              		.loc 1 1090 0
 424 003a 1560     		str	r5, [r2]
1091:.\Generated_Source\PSoC4/CapSense.c **** 	
1092:.\Generated_Source\PSoC4/CapSense.c **** 	CyExitCriticalSection(interruptState);
 425              		.loc 1 1092 0
 426 003c FFF7FEFF 		bl	CyExitCriticalSection
 427              	.LVL43:
1093:.\Generated_Source\PSoC4/CapSense.c **** }
 428              		.loc 1 1093 0
 429              		@ sp needed
 430              	.LVL44:
 431              	.LVL45:
 432 0040 F8BD     		pop	{r3, r4, r5, r6, r7, pc}
 433              	.L27:
 434 0042 C046     		.align	2
 435              	.L26:
 436 0044 00000000 		.word	.LANCHOR2
 437              		.cfi_endproc
 438              	.LFE48:
 439              		.size	CapSense_EnableSensor, .-CapSense_EnableSensor
 440              		.section	.text.CapSense_DisableSensor,"ax",%progbits
 441              		.align	2
 442              		.global	CapSense_DisableSensor
 443              		.code	16
 444              		.thumb_func
 445              		.type	CapSense_DisableSensor, %function
 446              	CapSense_DisableSensor:
ARM GAS  C:\Users\kbuchi\AppData\Local\Temp\ccOUPaAd.s 			page 28


 447              	.LFB49:
1094:.\Generated_Source\PSoC4/CapSense.c **** 
1095:.\Generated_Source\PSoC4/CapSense.c **** 
1096:.\Generated_Source\PSoC4/CapSense.c **** /*******************************************************************************
1097:.\Generated_Source\PSoC4/CapSense.c **** * Function Name: CapSense_DisableSensor
1098:.\Generated_Source\PSoC4/CapSense.c **** ********************************************************************************
1099:.\Generated_Source\PSoC4/CapSense.c **** *
1100:.\Generated_Source\PSoC4/CapSense.c **** * Summary:
1101:.\Generated_Source\PSoC4/CapSense.c **** *  Disables the selected sensor. The corresponding pin is disconnected from the
1102:.\Generated_Source\PSoC4/CapSense.c **** *  Analog Mux Bus and connected to GND, High_Z or Shield electrode.
1103:.\Generated_Source\PSoC4/CapSense.c **** *
1104:.\Generated_Source\PSoC4/CapSense.c **** * Parameters:
1105:.\Generated_Source\PSoC4/CapSense.c **** *  sensor:  Sensor number
1106:.\Generated_Source\PSoC4/CapSense.c **** *
1107:.\Generated_Source\PSoC4/CapSense.c **** * Return:
1108:.\Generated_Source\PSoC4/CapSense.c **** *  None
1109:.\Generated_Source\PSoC4/CapSense.c **** *
1110:.\Generated_Source\PSoC4/CapSense.c **** * Global Variables:
1111:.\Generated_Source\PSoC4/CapSense.c **** *  CapSense_portTable[] - used to store the port number that pin 
1112:.\Generated_Source\PSoC4/CapSense.c **** *  belongs to for each sensor.
1113:.\Generated_Source\PSoC4/CapSense.c **** *  CapSense_pinShiftTbl[] - used to store position of pin that 
1114:.\Generated_Source\PSoC4/CapSense.c **** *  configured as a sensor in the port. 
1115:.\Generated_Source\PSoC4/CapSense.c **** *  CapSense_prtSelTbl[] - Contains pointers to the HSIOM 
1116:.\Generated_Source\PSoC4/CapSense.c **** *  registers for each port. 
1117:.\Generated_Source\PSoC4/CapSense.c **** *  CapSense_PrtCfgTb[] - Contains pointers to the port config 
1118:.\Generated_Source\PSoC4/CapSense.c **** *  registers for each port.
1119:.\Generated_Source\PSoC4/CapSense.c **** *
1120:.\Generated_Source\PSoC4/CapSense.c **** * Side Effects: 
1121:.\Generated_Source\PSoC4/CapSense.c **** *  None
1122:.\Generated_Source\PSoC4/CapSense.c **** *
1123:.\Generated_Source\PSoC4/CapSense.c **** *******************************************************************************/
1124:.\Generated_Source\PSoC4/CapSense.c **** void CapSense_DisableSensor(uint32 sensor)
1125:.\Generated_Source\PSoC4/CapSense.c **** {
 448              		.loc 1 1125 0
 449              		.cfi_startproc
 450              	.LVL46:
 451 0000 F8B5     		push	{r3, r4, r5, r6, r7, lr}
 452              		.cfi_def_cfa_offset 24
 453              		.cfi_offset 3, -24
 454              		.cfi_offset 4, -20
 455              		.cfi_offset 5, -16
 456              		.cfi_offset 6, -12
 457              		.cfi_offset 7, -8
 458              		.cfi_offset 14, -4
1126:.\Generated_Source\PSoC4/CapSense.c ****     uint8 interruptState;
1127:.\Generated_Source\PSoC4/CapSense.c **** 	uint32 newRegisterValue;
1128:.\Generated_Source\PSoC4/CapSense.c **** 	
1129:.\Generated_Source\PSoC4/CapSense.c ****     uint32 port = (uint32) CapSense_portTable[sensor];
 459              		.loc 1 1129 0
 460 0002 194B     		ldr	r3, .L33
 461 0004 1D5C     		ldrb	r5, [r3, r0]
 462              	.LVL47:
1130:.\Generated_Source\PSoC4/CapSense.c ****     uint8  pinHSIOMShift = CapSense_pinShiftTbl[sensor] * CapSense_HSIOM_PIN_CFG_SIZE;
 463              		.loc 1 1130 0
 464 0006 1A18     		add	r2, r3, r0
 465 0008 147A     		ldrb	r4, [r2, #8]
 466 000a A700     		lsl	r7, r4, #2
ARM GAS  C:\Users\kbuchi\AppData\Local\Temp\ccOUPaAd.s 			page 29


 467 000c FFB2     		uxtb	r7, r7
 468              	.LVL48:
1131:.\Generated_Source\PSoC4/CapSense.c ****     uint8  pinModeShift = CapSense_pinShiftTbl[sensor]  * CapSense_PC_PIN_CFG_SIZE;
 469              		.loc 1 1131 0
 470 000e 6600     		lsl	r6, r4, #1
 471 0010 A619     		add	r6, r4, r6
 472 0012 F6B2     		uxtb	r6, r6
 473              	.LVL49:
1132:.\Generated_Source\PSoC4/CapSense.c **** 
1133:.\Generated_Source\PSoC4/CapSense.c **** 	uint32 inactiveConnect = CapSense_SNS_HIZANALOG_CONNECT;
1134:.\Generated_Source\PSoC4/CapSense.c **** 	uint32 sensorState = CapSense_unscannedSnsDriveMode[sensor];
 474              		.loc 1 1134 0
 475 0014 154A     		ldr	r2, .L33+4
 476 0016 125C     		ldrb	r2, [r2, r0]
 477              	.LVL50:
1135:.\Generated_Source\PSoC4/CapSense.c **** 
1136:.\Generated_Source\PSoC4/CapSense.c ****     *CapSense_prtSelTbl[port] &= ~(CapSense_CSD_HSIOM_MASK << pinHSIOMShift);
 478              		.loc 1 1136 0
 479 0018 A900     		lsl	r1, r5, #2
 480 001a 5B18     		add	r3, r3, r1
 481 001c 1B69     		ldr	r3, [r3, #16]
 482 001e 1968     		ldr	r1, [r3]
 483 0020 0F20     		mov	r0, #15
 484              	.LVL51:
 485 0022 B840     		lsl	r0, r0, r7
 486 0024 8143     		bic	r1, r0
 487 0026 1960     		str	r1, [r3]
1137:.\Generated_Source\PSoC4/CapSense.c **** 
1138:.\Generated_Source\PSoC4/CapSense.c **** 	#if(CapSense_IS_SHIELD_ENABLE != 0)
1139:.\Generated_Source\PSoC4/CapSense.c **** 	if(sensorState != (uint32)CapSense__SHIELD)
1140:.\Generated_Source\PSoC4/CapSense.c **** 	{
1141:.\Generated_Source\PSoC4/CapSense.c **** 	#else
1142:.\Generated_Source\PSoC4/CapSense.c **** 	    /* Connected to Ground if shield is disabled */
1143:.\Generated_Source\PSoC4/CapSense.c **** 	    if(sensorState == (uint32)CapSense__SHIELD)
 488              		.loc 1 1143 0
 489 0028 022A     		cmp	r2, #2
 490 002a 00D1     		bne	.L29
1144:.\Generated_Source\PSoC4/CapSense.c **** 		{
1145:.\Generated_Source\PSoC4/CapSense.c **** 			sensorState = (uint32)CapSense__GROUND;
 491              		.loc 1 1145 0
 492 002c 0022     		mov	r2, #0
 493              	.LVL52:
 494              	.L29:
1146:.\Generated_Source\PSoC4/CapSense.c **** 		}
1147:.\Generated_Source\PSoC4/CapSense.c **** 	#endif /* (CapSense_IS_SHIELD_ENABLE) */
1148:.\Generated_Source\PSoC4/CapSense.c **** 	    if(sensorState != (uint32)CapSense__HIZ_ANALOG)
 495              		.loc 1 1148 0
 496 002e 012A     		cmp	r2, #1
 497 0030 01D1     		bne	.L32
1133:.\Generated_Source\PSoC4/CapSense.c **** 	uint32 inactiveConnect = CapSense_SNS_HIZANALOG_CONNECT;
 498              		.loc 1 1133 0
 499 0032 0027     		mov	r7, #0
 500              	.LVL53:
 501 0034 00E0     		b	.L30
 502              	.L32:
1149:.\Generated_Source\PSoC4/CapSense.c **** 		{   
1150:.\Generated_Source\PSoC4/CapSense.c **** 		    /* Connected to Ground */
ARM GAS  C:\Users\kbuchi\AppData\Local\Temp\ccOUPaAd.s 			page 30


1151:.\Generated_Source\PSoC4/CapSense.c **** 		    inactiveConnect = (uint32)CapSense_SNS_GROUND_CONNECT;
 503              		.loc 1 1151 0
 504 0036 0627     		mov	r7, #6
 505              	.L30:
 506              	.LVL54:
1152:.\Generated_Source\PSoC4/CapSense.c **** 		}
1153:.\Generated_Source\PSoC4/CapSense.c **** 		
1154:.\Generated_Source\PSoC4/CapSense.c ****         interruptState = CyEnterCriticalSection();
 507              		.loc 1 1154 0
 508 0038 FFF7FEFF 		bl	CyEnterCriticalSection
 509              	.LVL55:
1155:.\Generated_Source\PSoC4/CapSense.c **** 
1156:.\Generated_Source\PSoC4/CapSense.c ****         /* Set drive mode */
1157:.\Generated_Source\PSoC4/CapSense.c ****     	newRegisterValue = *CapSense_prtCfgTbl[port];
 510              		.loc 1 1157 0
 511 003c AD00     		lsl	r5, r5, #2
 512              	.LVL56:
 513 003e 0A4B     		ldr	r3, .L33
 514              	.LVL57:
 515 0040 5D19     		add	r5, r3, r5
 516 0042 6B6A     		ldr	r3, [r5, #36]
 517              	.LVL58:
 518 0044 1A68     		ldr	r2, [r3]
 519              	.LVL59:
1158:.\Generated_Source\PSoC4/CapSense.c ****     	newRegisterValue &= ~(CapSense_CSD_PIN_MODE_MASK << pinModeShift);
 520              		.loc 1 1158 0
 521 0046 0721     		mov	r1, #7
 522 0048 B140     		lsl	r1, r1, r6
 523 004a 8A43     		bic	r2, r1
 524              	.LVL60:
1159:.\Generated_Source\PSoC4/CapSense.c ****     	newRegisterValue |=  (uint32)(inactiveConnect << pinModeShift);
 525              		.loc 1 1159 0
 526 004c B740     		lsl	r7, r7, r6
 527              	.LVL61:
 528 004e 3E1C     		mov	r6, r7
 529              	.LVL62:
 530 0050 1643     		orr	r6, r2
 531              	.LVL63:
1160:.\Generated_Source\PSoC4/CapSense.c ****         *CapSense_prtCfgTbl[port] =  newRegisterValue;
 532              		.loc 1 1160 0
 533 0052 1E60     		str	r6, [r3]
1161:.\Generated_Source\PSoC4/CapSense.c ****         
1162:.\Generated_Source\PSoC4/CapSense.c ****         CyExitCriticalSection(interruptState);
 534              		.loc 1 1162 0
 535 0054 FFF7FEFF 		bl	CyExitCriticalSection
 536              	.LVL64:
1163:.\Generated_Source\PSoC4/CapSense.c **** 
1164:.\Generated_Source\PSoC4/CapSense.c ****     	*CapSense_prtDRTbl[port]  &=  (uint32)~(uint32)((uint32)1u << CapSense_pinShiftTbl[sensor]); 
 537              		.loc 1 1164 0
 538 0058 AB6B     		ldr	r3, [r5, #56]
 539 005a 1A68     		ldr	r2, [r3]
 540 005c 0121     		mov	r1, #1
 541 005e A140     		lsl	r1, r1, r4
 542 0060 8A43     		bic	r2, r1
 543 0062 1A60     		str	r2, [r3]
1165:.\Generated_Source\PSoC4/CapSense.c **** 	#if(CapSense_IS_SHIELD_ENABLE != 0)
1166:.\Generated_Source\PSoC4/CapSense.c **** 	}
ARM GAS  C:\Users\kbuchi\AppData\Local\Temp\ccOUPaAd.s 			page 31


1167:.\Generated_Source\PSoC4/CapSense.c **** 	else
1168:.\Generated_Source\PSoC4/CapSense.c **** 	{
1169:.\Generated_Source\PSoC4/CapSense.c **** 		/* Connect to Shield */
1170:.\Generated_Source\PSoC4/CapSense.c **** 		*CapSense_prtSelTbl[port] |= (CapSense_CSD_SHIELD_PORT_MODE << pinHSIOMShift);
1171:.\Generated_Source\PSoC4/CapSense.c **** 	}
1172:.\Generated_Source\PSoC4/CapSense.c **** 	#endif /* (CapSense_IS_SHIELD_ENABLE) */
1173:.\Generated_Source\PSoC4/CapSense.c **** }
 544              		.loc 1 1173 0
 545              		@ sp needed
 546              	.LVL65:
 547              	.LVL66:
 548 0064 F8BD     		pop	{r3, r4, r5, r6, r7, pc}
 549              	.L34:
 550 0066 C046     		.align	2
 551              	.L33:
 552 0068 00000000 		.word	.LANCHOR2
 553 006c 00000000 		.word	CapSense_unscannedSnsDriveMode
 554              		.cfi_endproc
 555              	.LFE49:
 556              		.size	CapSense_DisableSensor, .-CapSense_DisableSensor
 557              		.section	.text.CapSense_ClearSensors,"ax",%progbits
 558              		.align	2
 559              		.global	CapSense_ClearSensors
 560              		.code	16
 561              		.thumb_func
 562              		.type	CapSense_ClearSensors, %function
 563              	CapSense_ClearSensors:
 564              	.LFB47:
 914:.\Generated_Source\PSoC4/CapSense.c **** {
 565              		.loc 1 914 0
 566              		.cfi_startproc
 567 0000 10B5     		push	{r4, lr}
 568              		.cfi_def_cfa_offset 8
 569              		.cfi_offset 4, -8
 570              		.cfi_offset 14, -4
 571              	.LVL67:
 917:.\Generated_Source\PSoC4/CapSense.c ****     for (snsIndex = 0u; snsIndex < CapSense_TOTAL_SENSOR_COUNT; snsIndex++)
 572              		.loc 1 917 0
 573 0002 0024     		mov	r4, #0
 574 0004 03E0     		b	.L36
 575              	.LVL68:
 576              	.L37:
 919:.\Generated_Source\PSoC4/CapSense.c ****         CapSense_DisableScanSlot(snsIndex);
 577              		.loc 1 919 0 discriminator 2
 578 0006 201C     		mov	r0, r4
 579 0008 FFF7FEFF 		bl	CapSense_DisableSensor
 580              	.LVL69:
 917:.\Generated_Source\PSoC4/CapSense.c ****     for (snsIndex = 0u; snsIndex < CapSense_TOTAL_SENSOR_COUNT; snsIndex++)
 581              		.loc 1 917 0 discriminator 2
 582 000c 0134     		add	r4, r4, #1
 583              	.LVL70:
 584              	.L36:
 917:.\Generated_Source\PSoC4/CapSense.c ****     for (snsIndex = 0u; snsIndex < CapSense_TOTAL_SENSOR_COUNT; snsIndex++)
 585              		.loc 1 917 0 is_stmt 0 discriminator 1
 586 000e 042C     		cmp	r4, #4
 587 0010 F9D9     		bls	.L37
 921:.\Generated_Source\PSoC4/CapSense.c **** }
ARM GAS  C:\Users\kbuchi\AppData\Local\Temp\ccOUPaAd.s 			page 32


 588              		.loc 1 921 0 is_stmt 1
 589              		@ sp needed
 590              	.LVL71:
 591 0012 10BD     		pop	{r4, pc}
 592              		.cfi_endproc
 593              	.LFE47:
 594              		.size	CapSense_ClearSensors, .-CapSense_ClearSensors
 595              		.section	.text.CapSense_SetPinDriveMode,"ax",%progbits
 596              		.align	2
 597              		.global	CapSense_SetPinDriveMode
 598              		.code	16
 599              		.thumb_func
 600              		.type	CapSense_SetPinDriveMode, %function
 601              	CapSense_SetPinDriveMode:
 602              	.LFB52:
1174:.\Generated_Source\PSoC4/CapSense.c **** 
1175:.\Generated_Source\PSoC4/CapSense.c **** 
1176:.\Generated_Source\PSoC4/CapSense.c **** /*******************************************************************************
1177:.\Generated_Source\PSoC4/CapSense.c **** * Function Name: CapSense_SetDriveModeAllPins
1178:.\Generated_Source\PSoC4/CapSense.c **** ********************************************************************************
1179:.\Generated_Source\PSoC4/CapSense.c **** *
1180:.\Generated_Source\PSoC4/CapSense.c **** * Summary:
1181:.\Generated_Source\PSoC4/CapSense.c **** * This API sets the drive mode of port pins used by the CapSense
1182:.\Generated_Source\PSoC4/CapSense.c **** * component (sensors, guard, shield, shield tank and Cmod) to drive the 
1183:.\Generated_Source\PSoC4/CapSense.c **** * mode specified by the argument.
1184:.\Generated_Source\PSoC4/CapSense.c **** *
1185:.\Generated_Source\PSoC4/CapSense.c **** * Parameters:
1186:.\Generated_Source\PSoC4/CapSense.c **** *  driveMode:  Drive mode definition.
1187:.\Generated_Source\PSoC4/CapSense.c **** *
1188:.\Generated_Source\PSoC4/CapSense.c **** * Return:
1189:.\Generated_Source\PSoC4/CapSense.c **** *  None
1190:.\Generated_Source\PSoC4/CapSense.c **** *
1191:.\Generated_Source\PSoC4/CapSense.c **** * Global Variables:
1192:.\Generated_Source\PSoC4/CapSense.c **** *  CapSense_portTable[] - used to store the port number that pin 
1193:.\Generated_Source\PSoC4/CapSense.c **** *  belongs to for each sensor.
1194:.\Generated_Source\PSoC4/CapSense.c **** *  CapSense_pinShiftTbl[] - used to store position of pin that 
1195:.\Generated_Source\PSoC4/CapSense.c **** *  configured as a sensor in the port. 
1196:.\Generated_Source\PSoC4/CapSense.c **** *
1197:.\Generated_Source\PSoC4/CapSense.c **** * Side Effects: 
1198:.\Generated_Source\PSoC4/CapSense.c **** *  This API shall be called only after CapSense component is stopped.
1199:.\Generated_Source\PSoC4/CapSense.c **** *
1200:.\Generated_Source\PSoC4/CapSense.c **** *******************************************************************************/
1201:.\Generated_Source\PSoC4/CapSense.c **** void CapSense_SetDriveModeAllPins(uint32 driveMode)
1202:.\Generated_Source\PSoC4/CapSense.c **** {
1203:.\Generated_Source\PSoC4/CapSense.c **** 	uint8 curSensor;
1204:.\Generated_Source\PSoC4/CapSense.c **** 	#if (CapSense_IS_COMPLEX_SCANSLOTS)
1205:.\Generated_Source\PSoC4/CapSense.c **** 		uint8 snsNumber;
1206:.\Generated_Source\PSoC4/CapSense.c **** 		uint8 snsType;
1207:.\Generated_Source\PSoC4/CapSense.c **** 	#endif  /* CapSense_IS_COMPLEX_SCANSLOTS */
1208:.\Generated_Source\PSoC4/CapSense.c **** 	uint32 prtNumberTmp;
1209:.\Generated_Source\PSoC4/CapSense.c **** 	uint32 pinNumberTmp;
1210:.\Generated_Source\PSoC4/CapSense.c **** 
1211:.\Generated_Source\PSoC4/CapSense.c **** 	for(curSensor = 0u; curSensor < CapSense_TOTAL_SENSOR_COUNT; curSensor++)
1212:.\Generated_Source\PSoC4/CapSense.c **** 	{	
1213:.\Generated_Source\PSoC4/CapSense.c **** 		#if (CapSense_IS_COMPLEX_SCANSLOTS)
1214:.\Generated_Source\PSoC4/CapSense.c **** 			/* Read sensor type: single or complex */
1215:.\Generated_Source\PSoC4/CapSense.c **** 			snsType = CapSense_portTable[curSensor];
ARM GAS  C:\Users\kbuchi\AppData\Local\Temp\ccOUPaAd.s 			page 33


1216:.\Generated_Source\PSoC4/CapSense.c **** 		
1217:.\Generated_Source\PSoC4/CapSense.c **** 			/* Check if sensor is complex */
1218:.\Generated_Source\PSoC4/CapSense.c **** 			if ((snsType & CapSense_COMPLEX_SS_FLAG) == 0u)
1219:.\Generated_Source\PSoC4/CapSense.c **** 			{
1220:.\Generated_Source\PSoC4/CapSense.c **** 				/* The sensor is not complex */
1221:.\Generated_Source\PSoC4/CapSense.c **** 				snsNumber = curSensor;
1222:.\Generated_Source\PSoC4/CapSense.c **** 			}
1223:.\Generated_Source\PSoC4/CapSense.c **** 			else
1224:.\Generated_Source\PSoC4/CapSense.c **** 			{
1225:.\Generated_Source\PSoC4/CapSense.c **** 				/* Get dedicated sensor ID of the complex sensor */
1226:.\Generated_Source\PSoC4/CapSense.c **** 				snsType &= ~CapSense_COMPLEX_SS_FLAG;
1227:.\Generated_Source\PSoC4/CapSense.c **** 				snsNumber = CapSense_indexTable[snsType];
1228:.\Generated_Source\PSoC4/CapSense.c **** 			}
1229:.\Generated_Source\PSoC4/CapSense.c **** 
1230:.\Generated_Source\PSoC4/CapSense.c **** 			prtNumberTmp = CapSense_portTable[snsNumber];
1231:.\Generated_Source\PSoC4/CapSense.c **** 			pinNumberTmp = CapSense_pinShiftTbl[snsNumber];
1232:.\Generated_Source\PSoC4/CapSense.c **** 		#else
1233:.\Generated_Source\PSoC4/CapSense.c **** 			prtNumberTmp = CapSense_portTable[curSensor];
1234:.\Generated_Source\PSoC4/CapSense.c **** 			pinNumberTmp = CapSense_pinShiftTbl[curSensor];
1235:.\Generated_Source\PSoC4/CapSense.c **** 		#endif  /* CapSense_IS_COMPLEX_SCANSLOTS */
1236:.\Generated_Source\PSoC4/CapSense.c **** 	
1237:.\Generated_Source\PSoC4/CapSense.c **** 		CapSense_SetPinDriveMode(driveMode, pinNumberTmp, prtNumberTmp);
1238:.\Generated_Source\PSoC4/CapSense.c **** 	}
1239:.\Generated_Source\PSoC4/CapSense.c **** 	
1240:.\Generated_Source\PSoC4/CapSense.c **** 	CapSense_SetPinDriveMode(driveMode, (uint32)CapSense_CMOD_PIN_NUMBER, (uint32)CapSense_CMOD_PRT_NU
1241:.\Generated_Source\PSoC4/CapSense.c **** 	
1242:.\Generated_Source\PSoC4/CapSense.c **** 	#if(0u != CapSense_CSH_TANK_ENABLE)
1243:.\Generated_Source\PSoC4/CapSense.c **** 		CapSense_SetPinDriveMode(driveMode, (uint32)CapSense_CTANK_PIN_NUMBER, (uint32)CapSense_CTANK_PRT
1244:.\Generated_Source\PSoC4/CapSense.c **** 	#endif /* (0u != CapSense_CSH_TANK_ENABLE) */	
1245:.\Generated_Source\PSoC4/CapSense.c **** 	
1246:.\Generated_Source\PSoC4/CapSense.c **** 	#if(0u != CapSense_IS_SHIELD_ENABLE)
1247:.\Generated_Source\PSoC4/CapSense.c **** 		CapSense_SetPinDriveMode(driveMode, (uint32)CapSense_SHIELD_PIN_NUMBER, (uint32)CapSense_SHIELD_P
1248:.\Generated_Source\PSoC4/CapSense.c **** 	#endif /* (0u != CapSense_IS_SHIELD_ENABLE) */	
1249:.\Generated_Source\PSoC4/CapSense.c **** }
1250:.\Generated_Source\PSoC4/CapSense.c **** 
1251:.\Generated_Source\PSoC4/CapSense.c **** 
1252:.\Generated_Source\PSoC4/CapSense.c **** /*******************************************************************************
1253:.\Generated_Source\PSoC4/CapSense.c **** * Function Name: CapSense_RestoreDriveModeAllPins
1254:.\Generated_Source\PSoC4/CapSense.c **** ********************************************************************************
1255:.\Generated_Source\PSoC4/CapSense.c **** *
1256:.\Generated_Source\PSoC4/CapSense.c **** * Summary:
1257:.\Generated_Source\PSoC4/CapSense.c **** *  This API restores the drive for all the CapSense port pins to the original
1258:.\Generated_Source\PSoC4/CapSense.c **** *  state.
1259:.\Generated_Source\PSoC4/CapSense.c **** *
1260:.\Generated_Source\PSoC4/CapSense.c **** * Parameters:
1261:.\Generated_Source\PSoC4/CapSense.c **** *  None
1262:.\Generated_Source\PSoC4/CapSense.c **** *
1263:.\Generated_Source\PSoC4/CapSense.c **** * Return:
1264:.\Generated_Source\PSoC4/CapSense.c **** *  None
1265:.\Generated_Source\PSoC4/CapSense.c **** *
1266:.\Generated_Source\PSoC4/CapSense.c **** * Global Variables:
1267:.\Generated_Source\PSoC4/CapSense.c **** *  CapSense_prtSelTbl[] - Contains pointers to the HSIOM 
1268:.\Generated_Source\PSoC4/CapSense.c **** *  registers for each port. 
1269:.\Generated_Source\PSoC4/CapSense.c **** *
1270:.\Generated_Source\PSoC4/CapSense.c **** * Side Effects: 
1271:.\Generated_Source\PSoC4/CapSense.c **** *  This API is called only after the CapSense component is stopped.
1272:.\Generated_Source\PSoC4/CapSense.c **** *
ARM GAS  C:\Users\kbuchi\AppData\Local\Temp\ccOUPaAd.s 			page 34


1273:.\Generated_Source\PSoC4/CapSense.c **** *******************************************************************************/
1274:.\Generated_Source\PSoC4/CapSense.c **** void CapSense_RestoreDriveModeAllPins(void)
1275:.\Generated_Source\PSoC4/CapSense.c **** {
1276:.\Generated_Source\PSoC4/CapSense.c **** 	uint32 newRegisterValue;
1277:.\Generated_Source\PSoC4/CapSense.c **** 	
1278:.\Generated_Source\PSoC4/CapSense.c **** 	CapSense_SetDriveModeAllPins(CY_SYS_PINS_DM_ALG_HIZ);
1279:.\Generated_Source\PSoC4/CapSense.c **** 	
1280:.\Generated_Source\PSoC4/CapSense.c **** 	newRegisterValue = CapSense_CMOD_CONNECTION_REG; 
1281:.\Generated_Source\PSoC4/CapSense.c ****     newRegisterValue &= ~(CapSense_CSD_CMOD_CONNECTION_MASK);
1282:.\Generated_Source\PSoC4/CapSense.c ****     newRegisterValue |= CapSense_CSD_CMOD_TO_AMUXBUS_A;
1283:.\Generated_Source\PSoC4/CapSense.c ****     CapSense_CMOD_CONNECTION_REG = newRegisterValue;
1284:.\Generated_Source\PSoC4/CapSense.c **** 	
1285:.\Generated_Source\PSoC4/CapSense.c **** 	#if(0u != CapSense_CSH_TANK_ENABLE)
1286:.\Generated_Source\PSoC4/CapSense.c **** 		newRegisterValue = CapSense_CTANK_CONNECTION_REG;
1287:.\Generated_Source\PSoC4/CapSense.c ****         newRegisterValue &= ~(CapSense_CSD_CTANK_CONNECTION_MASK);
1288:.\Generated_Source\PSoC4/CapSense.c **** 		newRegisterValue |= CapSense_CSD_CTANK_TO_AMUXBUS_B;
1289:.\Generated_Source\PSoC4/CapSense.c ****         CapSense_CTANK_CONNECTION_REG = newRegisterValue;
1290:.\Generated_Source\PSoC4/CapSense.c **** 	#endif/* (0u != CapSense_CSH_TANK_ENABLE) */
1291:.\Generated_Source\PSoC4/CapSense.c **** 	
1292:.\Generated_Source\PSoC4/CapSense.c **** 	#if(0u != CapSense_IS_SHIELD_ENABLE)
1293:.\Generated_Source\PSoC4/CapSense.c **** 		newRegisterValue = *CapSense_prtSelTbl[CapSense_SHIELD_PORT_NUMBER];
1294:.\Generated_Source\PSoC4/CapSense.c ****         newRegisterValue &= ~(CapSense_CSD_HSIOM_MASK << ((uint32)CapSense_SHIELD_PIN_NUMBER * CapS
1295:.\Generated_Source\PSoC4/CapSense.c ****         newRegisterValue |= (CapSense_CSD_SHIELD_PORT_MODE << ((uint32)CapSense_SHIELD_PIN_NUMBER *
1296:.\Generated_Source\PSoC4/CapSense.c ****         *CapSense_prtSelTbl[CapSense_SHIELD_PORT_NUMBER] = newRegisterValue;
1297:.\Generated_Source\PSoC4/CapSense.c **** 	#endif /* (0u != CapSense_IS_SHIELD_ENABLE) */	
1298:.\Generated_Source\PSoC4/CapSense.c **** }
1299:.\Generated_Source\PSoC4/CapSense.c **** 
1300:.\Generated_Source\PSoC4/CapSense.c **** 
1301:.\Generated_Source\PSoC4/CapSense.c **** /*******************************************************************************
1302:.\Generated_Source\PSoC4/CapSense.c **** * Function Name: CapSense_SetPinDriveMode
1303:.\Generated_Source\PSoC4/CapSense.c **** ********************************************************************************
1304:.\Generated_Source\PSoC4/CapSense.c **** *
1305:.\Generated_Source\PSoC4/CapSense.c **** * Summary:
1306:.\Generated_Source\PSoC4/CapSense.c **** * This API sets the drive mode for the appropriate port/pin.
1307:.\Generated_Source\PSoC4/CapSense.c **** *
1308:.\Generated_Source\PSoC4/CapSense.c **** * Parameters:
1309:.\Generated_Source\PSoC4/CapSense.c **** *  driveMode:  Drive mode definition.
1310:.\Generated_Source\PSoC4/CapSense.c **** *  portNumber: contains port number (0, 1, 2).
1311:.\Generated_Source\PSoC4/CapSense.c **** *  pinNumber: contains pin number (0, 1, 2, ... , 7).
1312:.\Generated_Source\PSoC4/CapSense.c **** *
1313:.\Generated_Source\PSoC4/CapSense.c **** * Return:
1314:.\Generated_Source\PSoC4/CapSense.c **** *  None
1315:.\Generated_Source\PSoC4/CapSense.c **** *
1316:.\Generated_Source\PSoC4/CapSense.c **** * Global Variables:
1317:.\Generated_Source\PSoC4/CapSense.c **** *  CapSense_prtSelTbl[] - Contains pointers to the HSIOM 
1318:.\Generated_Source\PSoC4/CapSense.c **** *  registers for each port. 
1319:.\Generated_Source\PSoC4/CapSense.c **** *  CapSense_prtCfgTb[] - Contains pointers to the port config 
1320:.\Generated_Source\PSoC4/CapSense.c **** *  registers for each port.
1321:.\Generated_Source\PSoC4/CapSense.c **** *
1322:.\Generated_Source\PSoC4/CapSense.c **** * Side Effects: 
1323:.\Generated_Source\PSoC4/CapSense.c **** *  This API is called only after CapSense component is stopped.
1324:.\Generated_Source\PSoC4/CapSense.c **** *
1325:.\Generated_Source\PSoC4/CapSense.c **** *******************************************************************************/
1326:.\Generated_Source\PSoC4/CapSense.c **** void CapSense_SetPinDriveMode(uint32 driveMode, uint32 pinNumber, uint32 portNumber)
1327:.\Generated_Source\PSoC4/CapSense.c **** {	
 603              		.loc 1 1327 0
 604              		.cfi_startproc
ARM GAS  C:\Users\kbuchi\AppData\Local\Temp\ccOUPaAd.s 			page 35


 605              	.LVL72:
 606 0000 10B5     		push	{r4, lr}
 607              		.cfi_def_cfa_offset 8
 608              		.cfi_offset 4, -8
 609              		.cfi_offset 14, -4
1328:.\Generated_Source\PSoC4/CapSense.c **** 	uint32  pinModeShift;
1329:.\Generated_Source\PSoC4/CapSense.c **** 	uint32 newRegisterValue;
1330:.\Generated_Source\PSoC4/CapSense.c **** 	
1331:.\Generated_Source\PSoC4/CapSense.c **** 	pinModeShift  = pinNumber * CapSense_PC_PIN_CFG_SIZE;
 610              		.loc 1 1331 0
 611 0002 4B00     		lsl	r3, r1, #1
 612 0004 5918     		add	r1, r3, r1
 613              	.LVL73:
1332:.\Generated_Source\PSoC4/CapSense.c **** 	
1333:.\Generated_Source\PSoC4/CapSense.c **** 	newRegisterValue = *CapSense_prtCfgTbl[portNumber];
 614              		.loc 1 1333 0
 615 0006 9200     		lsl	r2, r2, #2
 616              	.LVL74:
 617 0008 054B     		ldr	r3, .L39
 618 000a 9A18     		add	r2, r3, r2
 619 000c 536A     		ldr	r3, [r2, #36]
 620 000e 1A68     		ldr	r2, [r3]
 621              	.LVL75:
1334:.\Generated_Source\PSoC4/CapSense.c **** 	newRegisterValue &= ~(CapSense_CSD_PIN_MODE_MASK << pinModeShift);
 622              		.loc 1 1334 0
 623 0010 0724     		mov	r4, #7
 624 0012 8C40     		lsl	r4, r4, r1
 625 0014 A243     		bic	r2, r4
 626              	.LVL76:
1335:.\Generated_Source\PSoC4/CapSense.c **** 	newRegisterValue |=  (uint32)((uint32)driveMode << pinModeShift);
 627              		.loc 1 1335 0
 628 0016 8840     		lsl	r0, r0, r1
 629              	.LVL77:
 630 0018 011C     		mov	r1, r0
 631              	.LVL78:
 632 001a 1143     		orr	r1, r2
 633              	.LVL79:
1336:.\Generated_Source\PSoC4/CapSense.c ****     *CapSense_prtCfgTbl[portNumber] =  newRegisterValue;
 634              		.loc 1 1336 0
 635 001c 1960     		str	r1, [r3]
1337:.\Generated_Source\PSoC4/CapSense.c **** }
 636              		.loc 1 1337 0
 637              		@ sp needed
 638 001e 10BD     		pop	{r4, pc}
 639              	.L40:
 640              		.align	2
 641              	.L39:
 642 0020 00000000 		.word	.LANCHOR2
 643              		.cfi_endproc
 644              	.LFE52:
 645              		.size	CapSense_SetPinDriveMode, .-CapSense_SetPinDriveMode
 646              		.section	.text.CapSense_SetDriveModeAllPins,"ax",%progbits
 647              		.align	2
 648              		.global	CapSense_SetDriveModeAllPins
 649              		.code	16
 650              		.thumb_func
 651              		.type	CapSense_SetDriveModeAllPins, %function
ARM GAS  C:\Users\kbuchi\AppData\Local\Temp\ccOUPaAd.s 			page 36


 652              	CapSense_SetDriveModeAllPins:
 653              	.LFB50:
1202:.\Generated_Source\PSoC4/CapSense.c **** {
 654              		.loc 1 1202 0
 655              		.cfi_startproc
 656              	.LVL80:
 657 0000 70B5     		push	{r4, r5, r6, lr}
 658              		.cfi_def_cfa_offset 16
 659              		.cfi_offset 4, -16
 660              		.cfi_offset 5, -12
 661              		.cfi_offset 6, -8
 662              		.cfi_offset 14, -4
 663 0002 061C     		mov	r6, r0
 664              	.LVL81:
1211:.\Generated_Source\PSoC4/CapSense.c **** 	for(curSensor = 0u; curSensor < CapSense_TOTAL_SENSOR_COUNT; curSensor++)
 665              		.loc 1 1211 0
 666 0004 0024     		mov	r4, #0
1233:.\Generated_Source\PSoC4/CapSense.c **** 			prtNumberTmp = CapSense_portTable[curSensor];
 667              		.loc 1 1233 0
 668 0006 094D     		ldr	r5, .L44
1211:.\Generated_Source\PSoC4/CapSense.c **** 	for(curSensor = 0u; curSensor < CapSense_TOTAL_SENSOR_COUNT; curSensor++)
 669              		.loc 1 1211 0
 670 0008 07E0     		b	.L42
 671              	.LVL82:
 672              	.L43:
1233:.\Generated_Source\PSoC4/CapSense.c **** 			prtNumberTmp = CapSense_portTable[curSensor];
 673              		.loc 1 1233 0 discriminator 2
 674 000a 2A5D     		ldrb	r2, [r5, r4]
 675              	.LVL83:
1234:.\Generated_Source\PSoC4/CapSense.c **** 			pinNumberTmp = CapSense_pinShiftTbl[curSensor];
 676              		.loc 1 1234 0 discriminator 2
 677 000c 2B19     		add	r3, r5, r4
 678 000e 197A     		ldrb	r1, [r3, #8]
 679              	.LVL84:
1237:.\Generated_Source\PSoC4/CapSense.c **** 		CapSense_SetPinDriveMode(driveMode, pinNumberTmp, prtNumberTmp);
 680              		.loc 1 1237 0 discriminator 2
 681 0010 301C     		mov	r0, r6
 682 0012 FFF7FEFF 		bl	CapSense_SetPinDriveMode
 683              	.LVL85:
1211:.\Generated_Source\PSoC4/CapSense.c **** 	for(curSensor = 0u; curSensor < CapSense_TOTAL_SENSOR_COUNT; curSensor++)
 684              		.loc 1 1211 0 discriminator 2
 685 0016 0134     		add	r4, r4, #1
 686              	.LVL86:
 687 0018 E4B2     		uxtb	r4, r4
 688              	.LVL87:
 689              	.L42:
1211:.\Generated_Source\PSoC4/CapSense.c **** 	for(curSensor = 0u; curSensor < CapSense_TOTAL_SENSOR_COUNT; curSensor++)
 690              		.loc 1 1211 0 is_stmt 0 discriminator 1
 691 001a 042C     		cmp	r4, #4
 692 001c F5D9     		bls	.L43
1240:.\Generated_Source\PSoC4/CapSense.c **** 	CapSense_SetPinDriveMode(driveMode, (uint32)CapSense_CMOD_PIN_NUMBER, (uint32)CapSense_CMOD_PRT_NU
 693              		.loc 1 1240 0 is_stmt 1
 694 001e 301C     		mov	r0, r6
 695 0020 0221     		mov	r1, #2
 696 0022 0422     		mov	r2, #4
 697 0024 FFF7FEFF 		bl	CapSense_SetPinDriveMode
 698              	.LVL88:
ARM GAS  C:\Users\kbuchi\AppData\Local\Temp\ccOUPaAd.s 			page 37


1249:.\Generated_Source\PSoC4/CapSense.c **** }
 699              		.loc 1 1249 0
 700              		@ sp needed
 701              	.LVL89:
 702              	.LVL90:
 703 0028 70BD     		pop	{r4, r5, r6, pc}
 704              	.L45:
 705 002a C046     		.align	2
 706              	.L44:
 707 002c 00000000 		.word	.LANCHOR2
 708              		.cfi_endproc
 709              	.LFE50:
 710              		.size	CapSense_SetDriveModeAllPins, .-CapSense_SetDriveModeAllPins
 711              		.section	.text.CapSense_RestoreDriveModeAllPins,"ax",%progbits
 712              		.align	2
 713              		.global	CapSense_RestoreDriveModeAllPins
 714              		.code	16
 715              		.thumb_func
 716              		.type	CapSense_RestoreDriveModeAllPins, %function
 717              	CapSense_RestoreDriveModeAllPins:
 718              	.LFB51:
1275:.\Generated_Source\PSoC4/CapSense.c **** {
 719              		.loc 1 1275 0
 720              		.cfi_startproc
 721 0000 08B5     		push	{r3, lr}
 722              		.cfi_def_cfa_offset 8
 723              		.cfi_offset 3, -8
 724              		.cfi_offset 14, -4
1278:.\Generated_Source\PSoC4/CapSense.c **** 	CapSense_SetDriveModeAllPins(CY_SYS_PINS_DM_ALG_HIZ);
 725              		.loc 1 1278 0
 726 0002 0020     		mov	r0, #0
 727 0004 FFF7FEFF 		bl	CapSense_SetDriveModeAllPins
 728              	.LVL91:
1280:.\Generated_Source\PSoC4/CapSense.c **** 	newRegisterValue = CapSense_CMOD_CONNECTION_REG; 
 729              		.loc 1 1280 0
 730 0008 044B     		ldr	r3, .L47
 731 000a 1968     		ldr	r1, [r3]
 732              	.LVL92:
1281:.\Generated_Source\PSoC4/CapSense.c ****     newRegisterValue &= ~(CapSense_CSD_CMOD_CONNECTION_MASK);
 733              		.loc 1 1281 0
 734 000c 044A     		ldr	r2, .L47+4
 735 000e 0A40     		and	r2, r1
 736              	.LVL93:
1282:.\Generated_Source\PSoC4/CapSense.c ****     newRegisterValue |= CapSense_CSD_CMOD_TO_AMUXBUS_A;
 737              		.loc 1 1282 0
 738 0010 C021     		mov	r1, #192
 739 0012 C900     		lsl	r1, r1, #3
 740 0014 0A43     		orr	r2, r1
 741              	.LVL94:
1283:.\Generated_Source\PSoC4/CapSense.c ****     CapSense_CMOD_CONNECTION_REG = newRegisterValue;
 742              		.loc 1 1283 0
 743 0016 1A60     		str	r2, [r3]
1298:.\Generated_Source\PSoC4/CapSense.c **** }
 744              		.loc 1 1298 0
 745              		@ sp needed
 746 0018 08BD     		pop	{r3, pc}
 747              	.L48:
ARM GAS  C:\Users\kbuchi\AppData\Local\Temp\ccOUPaAd.s 			page 38


 748 001a C046     		.align	2
 749              	.L47:
 750 001c 10000140 		.word	1073807376
 751 0020 FFF0FFFF 		.word	-3841
 752              		.cfi_endproc
 753              	.LFE51:
 754              		.size	CapSense_RestoreDriveModeAllPins, .-CapSense_RestoreDriveModeAllPins
 755              		.section	.text.CapSense_EnableShieldElectrode,"ax",%progbits
 756              		.align	2
 757              		.global	CapSense_EnableShieldElectrode
 758              		.code	16
 759              		.thumb_func
 760              		.type	CapSense_EnableShieldElectrode, %function
 761              	CapSense_EnableShieldElectrode:
 762              	.LFB55:
1338:.\Generated_Source\PSoC4/CapSense.c **** 
1339:.\Generated_Source\PSoC4/CapSense.c **** 
1340:.\Generated_Source\PSoC4/CapSense.c **** /*******************************************************************************
1341:.\Generated_Source\PSoC4/CapSense.c **** * Function Name: CapSense_PreScan
1342:.\Generated_Source\PSoC4/CapSense.c **** ********************************************************************************
1343:.\Generated_Source\PSoC4/CapSense.c **** *
1344:.\Generated_Source\PSoC4/CapSense.c **** * Summary:
1345:.\Generated_Source\PSoC4/CapSense.c **** *  Sets required settings, enables a sensor, removes Vref from AMUX and starts the 
1346:.\Generated_Source\PSoC4/CapSense.c **** *  scanning process of the sensor.
1347:.\Generated_Source\PSoC4/CapSense.c **** *
1348:.\Generated_Source\PSoC4/CapSense.c **** * Parameters:
1349:.\Generated_Source\PSoC4/CapSense.c **** *  sensor:  Sensor number.
1350:.\Generated_Source\PSoC4/CapSense.c **** *
1351:.\Generated_Source\PSoC4/CapSense.c **** * Return:
1352:.\Generated_Source\PSoC4/CapSense.c **** *  None
1353:.\Generated_Source\PSoC4/CapSense.c **** *
1354:.\Generated_Source\PSoC4/CapSense.c **** * Global Variables:
1355:.\Generated_Source\PSoC4/CapSense.c **** * CapSense_widgetNumber[] - This array contains numbers of widgets for each sensor.
1356:.\Generated_Source\PSoC4/CapSense.c **** * CapSense_widgetResolution[] - Contains the widget resolution.
1357:.\Generated_Source\PSoC4/CapSense.c **** *
1358:.\Generated_Source\PSoC4/CapSense.c **** * Side Effects: 
1359:.\Generated_Source\PSoC4/CapSense.c **** *  None
1360:.\Generated_Source\PSoC4/CapSense.c **** *
1361:.\Generated_Source\PSoC4/CapSense.c **** *******************************************************************************/
1362:.\Generated_Source\PSoC4/CapSense.c **** void CapSense_PreScan(uint32 sensor)
1363:.\Generated_Source\PSoC4/CapSense.c **** {
1364:.\Generated_Source\PSoC4/CapSense.c ****     uint8 widget;
1365:.\Generated_Source\PSoC4/CapSense.c ****     uint8 interruptState;
1366:.\Generated_Source\PSoC4/CapSense.c **** 	uint32 newRegValue;
1367:.\Generated_Source\PSoC4/CapSense.c **** 	uint32 counterResolution;
1368:.\Generated_Source\PSoC4/CapSense.c **** 	
1369:.\Generated_Source\PSoC4/CapSense.c **** 	#if(CapSense_PRS_OPTIONS == CapSense__PRS_AUTO)
1370:.\Generated_Source\PSoC4/CapSense.c **** 		uint8 senseClkDivMath;
1371:.\Generated_Source\PSoC4/CapSense.c **** 		uint8 sampleClkDivMath;
1372:.\Generated_Source\PSoC4/CapSense.c **** 	#endif /* (CapSense_PRS_OPTIONS == CapSense__PRS_AUTO) */	
1373:.\Generated_Source\PSoC4/CapSense.c **** 	
1374:.\Generated_Source\PSoC4/CapSense.c **** 	#if ((CapSense_TUNING_METHOD == CapSense__TUNING_AUTO) &&\
1375:.\Generated_Source\PSoC4/CapSense.c **** 		 (0 != CapSense_IS_OVERSAMPLING_EN))
1376:.\Generated_Source\PSoC4/CapSense.c **** 		uint32 oversamplingFactor;
1377:.\Generated_Source\PSoC4/CapSense.c **** 	#endif /* ((CapSense_TUNING_METHOD == CapSense__TUNING_AUTO) &&\
1378:.\Generated_Source\PSoC4/CapSense.c **** 	           (0 != CapSense_IS_OVERSAMPLING_EN)) */
1379:.\Generated_Source\PSoC4/CapSense.c **** 
ARM GAS  C:\Users\kbuchi\AppData\Local\Temp\ccOUPaAd.s 			page 39


1380:.\Generated_Source\PSoC4/CapSense.c ****     /* Define widget sensor belongs to */
1381:.\Generated_Source\PSoC4/CapSense.c ****     widget = CapSense_widgetNumber[sensor];
1382:.\Generated_Source\PSoC4/CapSense.c **** 
1383:.\Generated_Source\PSoC4/CapSense.c **** 	/* Recalculate Counter Resolution to MSB 16 bits */
1384:.\Generated_Source\PSoC4/CapSense.c **** 	counterResolution = CapSense_widgetResolution[widget];
1385:.\Generated_Source\PSoC4/CapSense.c **** 	
1386:.\Generated_Source\PSoC4/CapSense.c **** 	#if ((CapSense_TUNING_METHOD == CapSense__TUNING_AUTO) &&\
1387:.\Generated_Source\PSoC4/CapSense.c **** 		 (0 != CapSense_IS_OVERSAMPLING_EN))
1388:.\Generated_Source\PSoC4/CapSense.c **** 	    oversamplingFactor = CapSense_GetBitValue(scanSpeedTbl, sensor);
1389:.\Generated_Source\PSoC4/CapSense.c **** 
1390:.\Generated_Source\PSoC4/CapSense.c **** 		if(counterResolution < CapSense_RESOLUTION_16_BITS)
1391:.\Generated_Source\PSoC4/CapSense.c **** 		{
1392:.\Generated_Source\PSoC4/CapSense.c **** 			counterResolution <<= oversamplingFactor;
1393:.\Generated_Source\PSoC4/CapSense.c **** 			counterResolution |= (uint32)(CapSense_RESOLUTION_8_BITS);
1394:.\Generated_Source\PSoC4/CapSense.c **** 		}
1395:.\Generated_Source\PSoC4/CapSense.c **** 	#endif /* ((CapSense_TUNING_METHOD == CapSense__TUNING_AUTO) &&\
1396:.\Generated_Source\PSoC4/CapSense.c **** 	           (0 != CapSense_IS_OVERSAMPLING_EN)) */
1397:.\Generated_Source\PSoC4/CapSense.c **** 	
1398:.\Generated_Source\PSoC4/CapSense.c **** 	#if (0u != CapSense_IS_M0S8PERI_BLOCK)
1399:.\Generated_Source\PSoC4/CapSense.c **** 		CapSense_SenseClk_Stop();
1400:.\Generated_Source\PSoC4/CapSense.c **** 		CapSense_SampleClk_Stop();
1401:.\Generated_Source\PSoC4/CapSense.c **** 	#endif /* (0u != CapSense_IS_M0S8PERI_BLOCK) */
1402:.\Generated_Source\PSoC4/CapSense.c **** 
1403:.\Generated_Source\PSoC4/CapSense.c **** 	#if (0u != CapSense_MULTIPLE_FREQUENCY_SET)
1404:.\Generated_Source\PSoC4/CapSense.c **** 		CapSense_SampleClk_SetDividerValue((uint16)CapSense_sampleClkDividerVal[sensor]);
1405:.\Generated_Source\PSoC4/CapSense.c **** 		CapSense_SenseClk_SetDividerValue((uint16)CapSense_senseClkDividerVal[sensor]);
1406:.\Generated_Source\PSoC4/CapSense.c **** 	#else
1407:.\Generated_Source\PSoC4/CapSense.c **** 		CapSense_SampleClk_SetDividerValue((uint16)CapSense_sampleClkDividerVal);
1408:.\Generated_Source\PSoC4/CapSense.c **** 		CapSense_SenseClk_SetDividerValue((uint16)CapSense_senseClkDividerVal);
1409:.\Generated_Source\PSoC4/CapSense.c **** 	#endif /* (0u != CapSense_MULTIPLE_FREQUENCY_SET) */
1410:.\Generated_Source\PSoC4/CapSense.c **** 
1411:.\Generated_Source\PSoC4/CapSense.c **** 	#if (0u != CapSense_IS_M0S8PERI_BLOCK)
1412:.\Generated_Source\PSoC4/CapSense.c **** 		CapSense_SampleClk_Start();
1413:.\Generated_Source\PSoC4/CapSense.c **** 		CapSense_SenseClk_StartEx(CapSense_SampleClk__DIV_ID);
1414:.\Generated_Source\PSoC4/CapSense.c **** 		
1415:.\Generated_Source\PSoC4/CapSense.c **** 		#if(CapSense_PRS_OPTIONS == CapSense__PRS_NONE)
1416:.\Generated_Source\PSoC4/CapSense.c **** 			CyIntDisable(CapSense_ISR_NUMBER);
1417:.\Generated_Source\PSoC4/CapSense.c **** 			CapSense_CSD_CNT_REG = CapSense_ONE_CYCLE;
1418:.\Generated_Source\PSoC4/CapSense.c **** 			while(0u != (CapSense_CSD_CNT_REG & CapSense_RESOLUTION_16_BITS))
1419:.\Generated_Source\PSoC4/CapSense.c **** 			{
1420:.\Generated_Source\PSoC4/CapSense.c **** 			/* Wait until scanning is complete */ 
1421:.\Generated_Source\PSoC4/CapSense.c **** 			}
1422:.\Generated_Source\PSoC4/CapSense.c **** 			CapSense_CSD_INTR_REG = 1u;
1423:.\Generated_Source\PSoC4/CapSense.c **** 			CyIntClearPending(CapSense_ISR_NUMBER);
1424:.\Generated_Source\PSoC4/CapSense.c **** 			CyIntEnable(CapSense_ISR_NUMBER); 
1425:.\Generated_Source\PSoC4/CapSense.c **** 		#endif /* CapSense_PRS_OPTIONS == CapSense__PRS_NONE */
1426:.\Generated_Source\PSoC4/CapSense.c **** 	#endif /* (0u != CapSense_IS_M0S8PERI_BLOCK) */
1427:.\Generated_Source\PSoC4/CapSense.c **** 
1428:.\Generated_Source\PSoC4/CapSense.c **** #if(CapSense_PRS_OPTIONS != CapSense__PRS_NONE)
1429:.\Generated_Source\PSoC4/CapSense.c **** 
1430:.\Generated_Source\PSoC4/CapSense.c **** 	#if(CapSense_TUNING_METHOD == CapSense__TUNING_AUTO)
1431:.\Generated_Source\PSoC4/CapSense.c **** 		if(CapSense_prescalersTuningDone != 0u)
1432:.\Generated_Source\PSoC4/CapSense.c **** 		{
1433:.\Generated_Source\PSoC4/CapSense.c **** 	#endif /* (CapSense_TUNING_METHOD == CapSense__TUNING_AUTO) */
1434:.\Generated_Source\PSoC4/CapSense.c **** 			
1435:.\Generated_Source\PSoC4/CapSense.c **** 			CyIntDisable(CapSense_ISR_NUMBER);
1436:.\Generated_Source\PSoC4/CapSense.c **** 			
ARM GAS  C:\Users\kbuchi\AppData\Local\Temp\ccOUPaAd.s 			page 40


1437:.\Generated_Source\PSoC4/CapSense.c **** 			newRegValue = CapSense_CSD_CFG_REG;
1438:.\Generated_Source\PSoC4/CapSense.c **** 			newRegValue |= CapSense_CSD_CFG_PRS_SELECT;
1439:.\Generated_Source\PSoC4/CapSense.c **** 			
1440:.\Generated_Source\PSoC4/CapSense.c **** 			#if(CapSense_PRS_OPTIONS == CapSense__PRS_AUTO)
1441:.\Generated_Source\PSoC4/CapSense.c **** 				
1442:.\Generated_Source\PSoC4/CapSense.c **** 				newRegValue &= ~(CapSense_PRS_MODE_MASK);
1443:.\Generated_Source\PSoC4/CapSense.c **** 				
1444:.\Generated_Source\PSoC4/CapSense.c **** 				#if (0u != CapSense_MULTIPLE_FREQUENCY_SET)
1445:.\Generated_Source\PSoC4/CapSense.c **** 					senseClkDivMath = CapSense_senseClkDividerVal[sensor];
1446:.\Generated_Source\PSoC4/CapSense.c **** 					sampleClkDivMath = CapSense_sampleClkDividerVal[sensor];
1447:.\Generated_Source\PSoC4/CapSense.c **** 				#else
1448:.\Generated_Source\PSoC4/CapSense.c **** 					senseClkDivMath = CapSense_senseClkDividerVal;
1449:.\Generated_Source\PSoC4/CapSense.c **** 					sampleClkDivMath = CapSense_sampleClkDividerVal;
1450:.\Generated_Source\PSoC4/CapSense.c **** 				#endif /* ( CapSense_MULTIPLE_FREQUENCY_SET) */
1451:.\Generated_Source\PSoC4/CapSense.c **** 				
1452:.\Generated_Source\PSoC4/CapSense.c **** 				#if(0u == CapSense_IS_M0S8PERI_BLOCK)
1453:.\Generated_Source\PSoC4/CapSense.c **** 					senseClkDivMath *= sampleClkDivMath;
1454:.\Generated_Source\PSoC4/CapSense.c **** 				#endif /* (0u == CapSense_IS_M0S8PERI_BLOCK) */	
1455:.\Generated_Source\PSoC4/CapSense.c **** 				
1456:.\Generated_Source\PSoC4/CapSense.c **** 				if((senseClkDivMath * CapSense_RESOLUTION_12_BITS) <
1457:.\Generated_Source\PSoC4/CapSense.c **** 				   (sampleClkDivMath * CapSense_widgetResolution[widget]))
1458:.\Generated_Source\PSoC4/CapSense.c **** 				{
1459:.\Generated_Source\PSoC4/CapSense.c **** 					newRegValue |= CapSense_CSD_PRS_12_BIT;
1460:.\Generated_Source\PSoC4/CapSense.c **** 				}
1461:.\Generated_Source\PSoC4/CapSense.c **** 			#endif /* (CapSense_PRS_OPTIONS == CapSense__PRS_AUTO) */
1462:.\Generated_Source\PSoC4/CapSense.c **** 			
1463:.\Generated_Source\PSoC4/CapSense.c **** 			CapSense_CSD_CFG_REG = newRegValue;
1464:.\Generated_Source\PSoC4/CapSense.c **** 			
1465:.\Generated_Source\PSoC4/CapSense.c **** 			CyIntEnable(CapSense_ISR_NUMBER);
1466:.\Generated_Source\PSoC4/CapSense.c **** 			
1467:.\Generated_Source\PSoC4/CapSense.c **** 	#if(CapSense_TUNING_METHOD == CapSense__TUNING_AUTO)	
1468:.\Generated_Source\PSoC4/CapSense.c **** 		}
1469:.\Generated_Source\PSoC4/CapSense.c **** 	#endif /* (CapSense_PRS_OPTIONS != CapSense__PRS_NONE) */
1470:.\Generated_Source\PSoC4/CapSense.c **** 
1471:.\Generated_Source\PSoC4/CapSense.c **** #endif /* (CapSense_PRS_OPTIONS == CapSense__PRS_NONE) */
1472:.\Generated_Source\PSoC4/CapSense.c **** 	
1473:.\Generated_Source\PSoC4/CapSense.c **** 	/* Set Idac Value */
1474:.\Generated_Source\PSoC4/CapSense.c **** 	CyIntDisable(CapSense_ISR_NUMBER);
1475:.\Generated_Source\PSoC4/CapSense.c ****     newRegValue = CapSense_CSD_IDAC_REG;
1476:.\Generated_Source\PSoC4/CapSense.c ****  
1477:.\Generated_Source\PSoC4/CapSense.c **** #if (CapSense_IDAC_CNT == 1u)    
1478:.\Generated_Source\PSoC4/CapSense.c **** 	newRegValue &= ~(CapSense_CSD_IDAC1_DATA_MASK);
1479:.\Generated_Source\PSoC4/CapSense.c **** 	newRegValue |= CapSense_modulationIDAC[sensor];
1480:.\Generated_Source\PSoC4/CapSense.c **** #else
1481:.\Generated_Source\PSoC4/CapSense.c **** 	newRegValue &= ~(CapSense_CSD_IDAC1_DATA_MASK | CapSense_CSD_IDAC2_DATA_MASK);
1482:.\Generated_Source\PSoC4/CapSense.c **** 	newRegValue |= (CapSense_modulationIDAC[sensor] | 
1483:.\Generated_Source\PSoC4/CapSense.c **** 							(uint32)((uint32)CapSense_compensationIDAC[sensor] <<
1484:.\Generated_Source\PSoC4/CapSense.c **** 							CapSense_CSD_IDAC2_DATA_OFFSET));                               
1485:.\Generated_Source\PSoC4/CapSense.c **** #endif /* (CapSense_IDAC_CNT == 1u) */
1486:.\Generated_Source\PSoC4/CapSense.c **** 	
1487:.\Generated_Source\PSoC4/CapSense.c **** 	CapSense_CSD_IDAC_REG = newRegValue;
1488:.\Generated_Source\PSoC4/CapSense.c **** 
1489:.\Generated_Source\PSoC4/CapSense.c **** #if(CapSense_CMOD_PREGARGE_OPTION == CapSense__CAPPRIOBUF)
1490:.\Generated_Source\PSoC4/CapSense.c **** 	newRegValue = CapSense_CMOD_CONNECTION_REG;
1491:.\Generated_Source\PSoC4/CapSense.c **** 	newRegValue &= ~(CapSense_CSD_CMOD_CONNECTION_MASK);
1492:.\Generated_Source\PSoC4/CapSense.c **** 	newRegValue |= CapSense_CSD_CMOD_TO_AMUXBUS_A;
1493:.\Generated_Source\PSoC4/CapSense.c **** 	CapSense_CMOD_CONNECTION_REG = newRegValue;
ARM GAS  C:\Users\kbuchi\AppData\Local\Temp\ccOUPaAd.s 			page 41


1494:.\Generated_Source\PSoC4/CapSense.c **** 	
1495:.\Generated_Source\PSoC4/CapSense.c **** 	newRegValue = CapSense_CMOD_PORT_PC_REG;
1496:.\Generated_Source\PSoC4/CapSense.c **** 	newRegValue &= ~(CapSense_CSD_CMOD_PC_MASK);
1497:.\Generated_Source\PSoC4/CapSense.c **** 	newRegValue |= CapSense_CMOD_PC_HIGH_Z_MODE;
1498:.\Generated_Source\PSoC4/CapSense.c **** 	CapSense_CMOD_PORT_PC_REG = newRegValue;
1499:.\Generated_Source\PSoC4/CapSense.c **** #endif /* (CapSense_CMOD_PREGARGE_OPTION == CapSense__CAPPRIOBUF) */
1500:.\Generated_Source\PSoC4/CapSense.c **** 
1501:.\Generated_Source\PSoC4/CapSense.c ****     /* Disconnect Vref Buffer from AMUX */
1502:.\Generated_Source\PSoC4/CapSense.c **** 	newRegValue = CapSense_CSD_CFG_REG;
1503:.\Generated_Source\PSoC4/CapSense.c **** 	newRegValue &= ~(CapSense_PRECHARGE_CONFIG_MASK);
1504:.\Generated_Source\PSoC4/CapSense.c **** 	newRegValue |= CapSense_CTANK_PRECHARGE_CONFIG;
1505:.\Generated_Source\PSoC4/CapSense.c **** 	
1506:.\Generated_Source\PSoC4/CapSense.c **** 	CyIntEnable(CapSense_ISR_NUMBER);
1507:.\Generated_Source\PSoC4/CapSense.c **** 	
1508:.\Generated_Source\PSoC4/CapSense.c ****     /* Enable Sensor */
1509:.\Generated_Source\PSoC4/CapSense.c ****     CapSense_EnableScanSlot(sensor);
1510:.\Generated_Source\PSoC4/CapSense.c ****     
1511:.\Generated_Source\PSoC4/CapSense.c **** 	interruptState = CyEnterCriticalSection();
1512:.\Generated_Source\PSoC4/CapSense.c **** 	CapSense_CSD_CFG_REG = newRegValue;
1513:.\Generated_Source\PSoC4/CapSense.c **** 	
1514:.\Generated_Source\PSoC4/CapSense.c **** 	/* `#START CapSense_PreSettlingDelay_Debug` */
1515:.\Generated_Source\PSoC4/CapSense.c **** 
1516:.\Generated_Source\PSoC4/CapSense.c **** 	/* `#END` */
1517:.\Generated_Source\PSoC4/CapSense.c **** 	
1518:.\Generated_Source\PSoC4/CapSense.c **** 	CyDelayCycles(CapSense_GLITCH_ELIMINATION_CYCLES);
1519:.\Generated_Source\PSoC4/CapSense.c **** 	
1520:.\Generated_Source\PSoC4/CapSense.c **** 	/* `#START CapSense_PreScan_Debug` */
1521:.\Generated_Source\PSoC4/CapSense.c **** 
1522:.\Generated_Source\PSoC4/CapSense.c **** 	/* `#END` */
1523:.\Generated_Source\PSoC4/CapSense.c **** 	
1524:.\Generated_Source\PSoC4/CapSense.c ****     CapSense_CSD_CNT_REG = counterResolution;
1525:.\Generated_Source\PSoC4/CapSense.c ****     CyExitCriticalSection(interruptState);
1526:.\Generated_Source\PSoC4/CapSense.c **** }
1527:.\Generated_Source\PSoC4/CapSense.c **** 
1528:.\Generated_Source\PSoC4/CapSense.c **** 
1529:.\Generated_Source\PSoC4/CapSense.c **** /*******************************************************************************
1530:.\Generated_Source\PSoC4/CapSense.c **** * Function Name: CapSense_PostScan
1531:.\Generated_Source\PSoC4/CapSense.c **** ********************************************************************************
1532:.\Generated_Source\PSoC4/CapSense.c **** *
1533:.\Generated_Source\PSoC4/CapSense.c **** * Summary:
1534:.\Generated_Source\PSoC4/CapSense.c **** *  Stores the results of measurement in the CapSense_sensorRaw[] array,
1535:.\Generated_Source\PSoC4/CapSense.c **** *  sets the scanning sensor in the non-sampling state, turns off Idac(Current Source IDAC),
1536:.\Generated_Source\PSoC4/CapSense.c **** *  disconnects the IDAC(Sink mode), and applies Vref on AMUX.
1537:.\Generated_Source\PSoC4/CapSense.c **** *
1538:.\Generated_Source\PSoC4/CapSense.c **** * Parameters:
1539:.\Generated_Source\PSoC4/CapSense.c **** *  sensor:  Sensor number.
1540:.\Generated_Source\PSoC4/CapSense.c **** *
1541:.\Generated_Source\PSoC4/CapSense.c **** * Return:
1542:.\Generated_Source\PSoC4/CapSense.c **** *  None
1543:.\Generated_Source\PSoC4/CapSense.c **** *
1544:.\Generated_Source\PSoC4/CapSense.c **** * Global Variables:
1545:.\Generated_Source\PSoC4/CapSense.c **** *  CapSense_sensorRaw[] - used to store sensors raw data.
1546:.\Generated_Source\PSoC4/CapSense.c **** *
1547:.\Generated_Source\PSoC4/CapSense.c **** * Side Effects: 
1548:.\Generated_Source\PSoC4/CapSense.c **** *  None
1549:.\Generated_Source\PSoC4/CapSense.c **** *
1550:.\Generated_Source\PSoC4/CapSense.c **** *******************************************************************************/
ARM GAS  C:\Users\kbuchi\AppData\Local\Temp\ccOUPaAd.s 			page 42


1551:.\Generated_Source\PSoC4/CapSense.c **** void CapSense_PostScan(uint32 sensor)
1552:.\Generated_Source\PSoC4/CapSense.c **** {	
1553:.\Generated_Source\PSoC4/CapSense.c **** 	uint32 newRegValue;
1554:.\Generated_Source\PSoC4/CapSense.c **** #if ((CapSense_TUNING_METHOD == CapSense__TUNING_AUTO) &&\
1555:.\Generated_Source\PSoC4/CapSense.c **** 	 (0 != CapSense_IS_OVERSAMPLING_EN))
1556:.\Generated_Source\PSoC4/CapSense.c ****     uint32 oversamplingFactor;
1557:.\Generated_Source\PSoC4/CapSense.c ****     uint32 widget;
1558:.\Generated_Source\PSoC4/CapSense.c **** #endif /* ((CapSense_TUNING_METHOD == CapSense__TUNING_AUTO) &&\
1559:.\Generated_Source\PSoC4/CapSense.c **** 		   (0 != CapSense_IS_OVERSAMPLING_EN)) */	
1560:.\Generated_Source\PSoC4/CapSense.c **** 
1561:.\Generated_Source\PSoC4/CapSense.c **** 	/* `#START CapSense_PostScan_Debug` */
1562:.\Generated_Source\PSoC4/CapSense.c **** 
1563:.\Generated_Source\PSoC4/CapSense.c **** 	/* `#END` */
1564:.\Generated_Source\PSoC4/CapSense.c **** 
1565:.\Generated_Source\PSoC4/CapSense.c **** 
1566:.\Generated_Source\PSoC4/CapSense.c ****     /* Read SlotResult from Raw Counter */
1567:.\Generated_Source\PSoC4/CapSense.c ****     CapSense_sensorRaw[sensor]  = (uint16)CapSense_CSD_CNT_REG;
1568:.\Generated_Source\PSoC4/CapSense.c **** 	
1569:.\Generated_Source\PSoC4/CapSense.c **** #if ((CapSense_TUNING_METHOD == CapSense__TUNING_AUTO) &&\
1570:.\Generated_Source\PSoC4/CapSense.c **** 	 (0 != CapSense_IS_OVERSAMPLING_EN))
1571:.\Generated_Source\PSoC4/CapSense.c **** 	widget = CapSense_widgetNumber[sensor];
1572:.\Generated_Source\PSoC4/CapSense.c **** 	if(CapSense_widgetResolution[widget] < CapSense_RESOLUTION_16_BITS)
1573:.\Generated_Source\PSoC4/CapSense.c **** 	{
1574:.\Generated_Source\PSoC4/CapSense.c **** 		oversamplingFactor = CapSense_GetBitValue(scanSpeedTbl, sensor);
1575:.\Generated_Source\PSoC4/CapSense.c **** 		CapSense_sensorRaw[sensor] >>= oversamplingFactor;
1576:.\Generated_Source\PSoC4/CapSense.c **** 	}
1577:.\Generated_Source\PSoC4/CapSense.c **** #endif /* ((CapSense_TUNING_METHOD == CapSense__TUNING_AUTO) &&\
1578:.\Generated_Source\PSoC4/CapSense.c **** 		   (0 != CapSense_IS_OVERSAMPLING_EN)) */
1579:.\Generated_Source\PSoC4/CapSense.c **** 
1580:.\Generated_Source\PSoC4/CapSense.c ****     /* Disable Sensor */
1581:.\Generated_Source\PSoC4/CapSense.c ****     CapSense_DisableScanSlot(sensor);
1582:.\Generated_Source\PSoC4/CapSense.c **** 
1583:.\Generated_Source\PSoC4/CapSense.c **** 	CyIntDisable(CapSense_ISR_NUMBER);
1584:.\Generated_Source\PSoC4/CapSense.c **** 	
1585:.\Generated_Source\PSoC4/CapSense.c **** #if(CapSense_CMOD_PREGARGE_OPTION == CapSense__CAPPRIOBUF)
1586:.\Generated_Source\PSoC4/CapSense.c **** 	newRegValue = CapSense_CMOD_CONNECTION_REG;
1587:.\Generated_Source\PSoC4/CapSense.c **** 	newRegValue &= ~(CapSense_CSD_CMOD_CONNECTION_MASK);
1588:.\Generated_Source\PSoC4/CapSense.c **** 	newRegValue |= CapSense_CSD_CMOD_TO_AMUXBUS_B;
1589:.\Generated_Source\PSoC4/CapSense.c **** 	CapSense_CMOD_CONNECTION_REG = newRegValue;
1590:.\Generated_Source\PSoC4/CapSense.c **** 	
1591:.\Generated_Source\PSoC4/CapSense.c **** 	newRegValue = CapSense_CMOD_PORT_PC_REG;
1592:.\Generated_Source\PSoC4/CapSense.c **** 	newRegValue &= ~(CapSense_CSD_CMOD_PC_MASK);
1593:.\Generated_Source\PSoC4/CapSense.c **** 	newRegValue |= CapSense_CMOD_PC_STRONG_MODE;
1594:.\Generated_Source\PSoC4/CapSense.c **** 	CapSense_CMOD_PORT_PC_REG = newRegValue;
1595:.\Generated_Source\PSoC4/CapSense.c **** 		
1596:.\Generated_Source\PSoC4/CapSense.c **** 	newRegValue = CapSense_CMOD_PORT_DR_REG;
1597:.\Generated_Source\PSoC4/CapSense.c ****     newRegValue &= ~(CapSense_CMOD_DR_MASK);
1598:.\Generated_Source\PSoC4/CapSense.c **** 	newRegValue |= CapSense_CMOD_DR_CONFIG;
1599:.\Generated_Source\PSoC4/CapSense.c ****     CapSense_CMOD_PORT_DR_REG = newRegValue;    
1600:.\Generated_Source\PSoC4/CapSense.c **** #endif /* (CapSense_CMOD_PREGARGE_OPTION == CapSense__CAPPRIOBUF) */
1601:.\Generated_Source\PSoC4/CapSense.c **** 	
1602:.\Generated_Source\PSoC4/CapSense.c **** 	/* Connect Vref Buffer to AMUX bus  */
1603:.\Generated_Source\PSoC4/CapSense.c **** 	newRegValue = CapSense_CSD_CFG_REG;
1604:.\Generated_Source\PSoC4/CapSense.c **** 	newRegValue &= ~(CapSense_PRECHARGE_CONFIG_MASK);
1605:.\Generated_Source\PSoC4/CapSense.c **** 	newRegValue |= CapSense_CMOD_PRECHARGE_CONFIG;
1606:.\Generated_Source\PSoC4/CapSense.c **** 	CapSense_CSD_CFG_REG = newRegValue;
1607:.\Generated_Source\PSoC4/CapSense.c **** 
ARM GAS  C:\Users\kbuchi\AppData\Local\Temp\ccOUPaAd.s 			page 43


1608:.\Generated_Source\PSoC4/CapSense.c **** 	/* Set Idac Value = 0 */
1609:.\Generated_Source\PSoC4/CapSense.c **** #if (CapSense_IDAC_CNT == 1u)   
1610:.\Generated_Source\PSoC4/CapSense.c **** 	CapSense_CSD_IDAC_REG &= ~(CapSense_CSD_IDAC1_DATA_MASK);
1611:.\Generated_Source\PSoC4/CapSense.c **** #else
1612:.\Generated_Source\PSoC4/CapSense.c **** 	CapSense_CSD_IDAC_REG &= ~(CapSense_CSD_IDAC1_DATA_MASK | CapSense_CSD_IDAC2_DATA_MASK);          
1613:.\Generated_Source\PSoC4/CapSense.c **** #endif /* (CapSense_IDAC_CNT == 1u) */
1614:.\Generated_Source\PSoC4/CapSense.c **** 
1615:.\Generated_Source\PSoC4/CapSense.c **** 	CyIntEnable(CapSense_ISR_NUMBER);
1616:.\Generated_Source\PSoC4/CapSense.c **** }
1617:.\Generated_Source\PSoC4/CapSense.c **** 
1618:.\Generated_Source\PSoC4/CapSense.c **** 
1619:.\Generated_Source\PSoC4/CapSense.c **** /*******************************************************************************
1620:.\Generated_Source\PSoC4/CapSense.c **** * Function Name: CapSense_EnableShieldElectrode
1621:.\Generated_Source\PSoC4/CapSense.c **** ********************************************************************************
1622:.\Generated_Source\PSoC4/CapSense.c **** *
1623:.\Generated_Source\PSoC4/CapSense.c **** * Summary:
1624:.\Generated_Source\PSoC4/CapSense.c **** *  This API enables or disables the shield electrode on a specified port pin.
1625:.\Generated_Source\PSoC4/CapSense.c **** *
1626:.\Generated_Source\PSoC4/CapSense.c **** * Parameters:
1627:.\Generated_Source\PSoC4/CapSense.c **** *  portNumber: contains the shield electrode port number (0, 1, 2).
1628:.\Generated_Source\PSoC4/CapSense.c **** *  pinNumber: contains the shield electrode pin number (0, 1, 2, ... , 7).
1629:.\Generated_Source\PSoC4/CapSense.c **** *
1630:.\Generated_Source\PSoC4/CapSense.c **** * Return:
1631:.\Generated_Source\PSoC4/CapSense.c **** *  None
1632:.\Generated_Source\PSoC4/CapSense.c **** *
1633:.\Generated_Source\PSoC4/CapSense.c **** * Global Variables:
1634:.\Generated_Source\PSoC4/CapSense.c **** *  CapSense_prtCfgTbl[] - Contains pointers to the port config registers for each port.
1635:.\Generated_Source\PSoC4/CapSense.c **** *  CapSense_prtSelTbl[] - Contains pointers to the HSIOM registers for each port.
1636:.\Generated_Source\PSoC4/CapSense.c **** *
1637:.\Generated_Source\PSoC4/CapSense.c **** * Side Effects: 
1638:.\Generated_Source\PSoC4/CapSense.c **** *  None
1639:.\Generated_Source\PSoC4/CapSense.c **** *
1640:.\Generated_Source\PSoC4/CapSense.c **** *******************************************************************************/
1641:.\Generated_Source\PSoC4/CapSense.c **** void CapSense_EnableShieldElectrode(uint32 pinNumber, uint32 portNumber)
1642:.\Generated_Source\PSoC4/CapSense.c **** {
 763              		.loc 1 1642 0
 764              		.cfi_startproc
 765              	.LVL95:
 766 0000 30B5     		push	{r4, r5, lr}
 767              		.cfi_def_cfa_offset 12
 768              		.cfi_offset 4, -12
 769              		.cfi_offset 5, -8
 770              		.cfi_offset 14, -4
1643:.\Generated_Source\PSoC4/CapSense.c **** 	uint32 newRegValue;
1644:.\Generated_Source\PSoC4/CapSense.c **** 	
1645:.\Generated_Source\PSoC4/CapSense.c **** 	*CapSense_prtCfgTbl[portNumber] &= ~(CapSense_CSD_PIN_MODE_MASK << (pinNumber * CapSense_PC_PIN_CF
 771              		.loc 1 1645 0
 772 0002 8900     		lsl	r1, r1, #2
 773              	.LVL96:
 774 0004 0A4B     		ldr	r3, .L50
 775 0006 5918     		add	r1, r3, r1
 776 0008 4B6A     		ldr	r3, [r1, #36]
 777 000a 1A68     		ldr	r2, [r3]
 778 000c 4400     		lsl	r4, r0, #1
 779 000e 2418     		add	r4, r4, r0
 780 0010 0725     		mov	r5, #7
 781 0012 A540     		lsl	r5, r5, r4
ARM GAS  C:\Users\kbuchi\AppData\Local\Temp\ccOUPaAd.s 			page 44


 782 0014 AA43     		bic	r2, r5
 783 0016 1A60     		str	r2, [r3]
1646:.\Generated_Source\PSoC4/CapSense.c **** 	newRegValue = *CapSense_prtSelTbl[portNumber];
 784              		.loc 1 1646 0
 785 0018 0B69     		ldr	r3, [r1, #16]
 786 001a 1A68     		ldr	r2, [r3]
 787              	.LVL97:
1647:.\Generated_Source\PSoC4/CapSense.c ****     newRegValue &= ~(CapSense_CSD_HSIOM_MASK << (pinNumber * CapSense_HSIOM_PIN_CFG_SIZE));
 788              		.loc 1 1647 0
 789 001c 8000     		lsl	r0, r0, #2
 790              	.LVL98:
 791 001e 0F21     		mov	r1, #15
 792 0020 8140     		lsl	r1, r1, r0
 793 0022 8A43     		bic	r2, r1
 794              	.LVL99:
1648:.\Generated_Source\PSoC4/CapSense.c ****     newRegValue |= (CapSense_CSD_SHIELD_PORT_MODE << (pinNumber * CapSense_HSIOM_PIN_CFG_SIZE));
 795              		.loc 1 1648 0
 796 0024 0521     		mov	r1, #5
 797 0026 8140     		lsl	r1, r1, r0
 798 0028 081C     		mov	r0, r1
 799 002a 1043     		orr	r0, r2
 800              	.LVL100:
1649:.\Generated_Source\PSoC4/CapSense.c ****     *CapSense_prtSelTbl[portNumber] = newRegValue;
 801              		.loc 1 1649 0
 802 002c 1860     		str	r0, [r3]
1650:.\Generated_Source\PSoC4/CapSense.c **** }
 803              		.loc 1 1650 0
 804              		@ sp needed
 805 002e 30BD     		pop	{r4, r5, pc}
 806              	.L51:
 807              		.align	2
 808              	.L50:
 809 0030 00000000 		.word	.LANCHOR2
 810              		.cfi_endproc
 811              	.LFE55:
 812              		.size	CapSense_EnableShieldElectrode, .-CapSense_EnableShieldElectrode
 813              		.section	.text.CapSense_SetShieldDelay,"ax",%progbits
 814              		.align	2
 815              		.global	CapSense_SetShieldDelay
 816              		.code	16
 817              		.thumb_func
 818              		.type	CapSense_SetShieldDelay, %function
 819              	CapSense_SetShieldDelay:
 820              	.LFB56:
1651:.\Generated_Source\PSoC4/CapSense.c **** 
1652:.\Generated_Source\PSoC4/CapSense.c **** 
1653:.\Generated_Source\PSoC4/CapSense.c **** /*******************************************************************************
1654:.\Generated_Source\PSoC4/CapSense.c **** * Function Name: CapSense_SetShieldDelay
1655:.\Generated_Source\PSoC4/CapSense.c **** ********************************************************************************
1656:.\Generated_Source\PSoC4/CapSense.c **** *
1657:.\Generated_Source\PSoC4/CapSense.c **** * Summary:
1658:.\Generated_Source\PSoC4/CapSense.c **** *  This API sets a shield delay.
1659:.\Generated_Source\PSoC4/CapSense.c **** *
1660:.\Generated_Source\PSoC4/CapSense.c **** * Parameters:
1661:.\Generated_Source\PSoC4/CapSense.c **** *  delay:  shield delay value:
1662:.\Generated_Source\PSoC4/CapSense.c **** *                               0 - no delay
1663:.\Generated_Source\PSoC4/CapSense.c **** *                               1 - 1 cycle delay
ARM GAS  C:\Users\kbuchi\AppData\Local\Temp\ccOUPaAd.s 			page 45


1664:.\Generated_Source\PSoC4/CapSense.c **** *                               2 - 2 cycles delay
1665:.\Generated_Source\PSoC4/CapSense.c **** *
1666:.\Generated_Source\PSoC4/CapSense.c **** * Return:
1667:.\Generated_Source\PSoC4/CapSense.c **** *  None
1668:.\Generated_Source\PSoC4/CapSense.c **** *
1669:.\Generated_Source\PSoC4/CapSense.c **** * Global Variables:
1670:.\Generated_Source\PSoC4/CapSense.c **** *  None
1671:.\Generated_Source\PSoC4/CapSense.c **** *
1672:.\Generated_Source\PSoC4/CapSense.c **** * Side Effects: 
1673:.\Generated_Source\PSoC4/CapSense.c **** *  None
1674:.\Generated_Source\PSoC4/CapSense.c **** *
1675:.\Generated_Source\PSoC4/CapSense.c **** *******************************************************************************/
1676:.\Generated_Source\PSoC4/CapSense.c **** void CapSense_SetShieldDelay(uint32 delay)
1677:.\Generated_Source\PSoC4/CapSense.c **** {
 821              		.loc 1 1677 0
 822              		.cfi_startproc
 823              	.LVL101:
1678:.\Generated_Source\PSoC4/CapSense.c ****     uint32 newRegValue;
1679:.\Generated_Source\PSoC4/CapSense.c ****     
1680:.\Generated_Source\PSoC4/CapSense.c ****     delay &= 0x03u;
 824              		.loc 1 1680 0
 825 0000 0323     		mov	r3, #3
 826 0002 1840     		and	r0, r3
 827              	.LVL102:
1681:.\Generated_Source\PSoC4/CapSense.c ****     
1682:.\Generated_Source\PSoC4/CapSense.c ****     newRegValue = CapSense_CSD_CFG_REG;
 828              		.loc 1 1682 0
 829 0004 024B     		ldr	r3, .L53
 830 0006 1A68     		ldr	r2, [r3]
 831              	.LVL103:
1683:.\Generated_Source\PSoC4/CapSense.c ****     newRegValue &= (uint32)(~(uint32)CapSense_SHIELD_DELAY);    
1684:.\Generated_Source\PSoC4/CapSense.c ****     newRegValue |= (delay << CapSense_CSD_CFG_SHIELD_DELAY_POS);    
 832              		.loc 1 1684 0
 833 0008 4002     		lsl	r0, r0, #9
 834              	.LVL104:
 835 000a 1043     		orr	r0, r2
 836              	.LVL105:
1685:.\Generated_Source\PSoC4/CapSense.c ****     CapSense_CSD_CFG_REG = newRegValue;
 837              		.loc 1 1685 0
 838 000c 1860     		str	r0, [r3]
1686:.\Generated_Source\PSoC4/CapSense.c **** }
 839              		.loc 1 1686 0
 840              		@ sp needed
 841 000e 7047     		bx	lr
 842              	.L54:
 843              		.align	2
 844              	.L53:
 845 0010 04000840 		.word	1074266116
 846              		.cfi_endproc
 847              	.LFE56:
 848              		.size	CapSense_SetShieldDelay, .-CapSense_SetShieldDelay
 849              		.section	.text.CapSense_Init,"ax",%progbits
 850              		.align	2
 851              		.global	CapSense_Init
 852              		.code	16
 853              		.thumb_func
 854              		.type	CapSense_Init, %function
ARM GAS  C:\Users\kbuchi\AppData\Local\Temp\ccOUPaAd.s 			page 46


 855              	CapSense_Init:
 856              	.LFB33:
 195:.\Generated_Source\PSoC4/CapSense.c **** {   
 857              		.loc 1 195 0
 858              		.cfi_startproc
 859 0000 08B5     		push	{r3, lr}
 860              		.cfi_def_cfa_offset 8
 861              		.cfi_offset 3, -8
 862              		.cfi_offset 14, -4
 863              	.LVL106:
 226:.\Generated_Source\PSoC4/CapSense.c **** 	for(curSensor = 0u; curSensor < CapSense_TOTAL_SENSOR_COUNT; curSensor++)
 864              		.loc 1 226 0
 865 0002 0023     		mov	r3, #0
 228:.\Generated_Source\PSoC4/CapSense.c **** 		CapSense_unscannedSnsDriveMode[curSensor] = CapSense_CONNECT_INACTIVE_SNS;
 866              		.loc 1 228 0
 867 0004 0749     		ldr	r1, .L58
 868 0006 0022     		mov	r2, #0
 226:.\Generated_Source\PSoC4/CapSense.c **** 	for(curSensor = 0u; curSensor < CapSense_TOTAL_SENSOR_COUNT; curSensor++)
 869              		.loc 1 226 0
 870 0008 01E0     		b	.L56
 871              	.LVL107:
 872              	.L57:
 228:.\Generated_Source\PSoC4/CapSense.c **** 		CapSense_unscannedSnsDriveMode[curSensor] = CapSense_CONNECT_INACTIVE_SNS;
 873              		.loc 1 228 0 discriminator 2
 874 000a CA54     		strb	r2, [r1, r3]
 226:.\Generated_Source\PSoC4/CapSense.c **** 	for(curSensor = 0u; curSensor < CapSense_TOTAL_SENSOR_COUNT; curSensor++)
 875              		.loc 1 226 0 discriminator 2
 876 000c 0133     		add	r3, r3, #1
 877              	.LVL108:
 878              	.L56:
 226:.\Generated_Source\PSoC4/CapSense.c **** 	for(curSensor = 0u; curSensor < CapSense_TOTAL_SENSOR_COUNT; curSensor++)
 879              		.loc 1 226 0 is_stmt 0 discriminator 1
 880 000e 042B     		cmp	r3, #4
 881 0010 FBD9     		bls	.L57
 231:.\Generated_Source\PSoC4/CapSense.c **** 	CapSense_CsdHwBlockInit();
 882              		.loc 1 231 0 is_stmt 1
 883 0012 FFF7FEFF 		bl	CapSense_CsdHwBlockInit
 884              	.LVL109:
 232:.\Generated_Source\PSoC4/CapSense.c ****     CapSense_SetShieldDelay(CapSense_SHIELD_DELAY );
 885              		.loc 1 232 0
 886 0016 0020     		mov	r0, #0
 887 0018 FFF7FEFF 		bl	CapSense_SetShieldDelay
 888              	.LVL110:
 235:.\Generated_Source\PSoC4/CapSense.c ****     CapSense_ClearSensors();
 889              		.loc 1 235 0
 890 001c FFF7FEFF 		bl	CapSense_ClearSensors
 891              	.LVL111:
 236:.\Generated_Source\PSoC4/CapSense.c **** }
 892              		.loc 1 236 0
 893              		@ sp needed
 894 0020 08BD     		pop	{r3, pc}
 895              	.L59:
 896 0022 C046     		.align	2
 897              	.L58:
 898 0024 00000000 		.word	CapSense_unscannedSnsDriveMode
 899              		.cfi_endproc
 900              	.LFE33:
ARM GAS  C:\Users\kbuchi\AppData\Local\Temp\ccOUPaAd.s 			page 47


 901              		.size	CapSense_Init, .-CapSense_Init
 902              		.section	.text.CapSense_Start,"ax",%progbits
 903              		.align	2
 904              		.global	CapSense_Start
 905              		.code	16
 906              		.thumb_func
 907              		.type	CapSense_Start, %function
 908              	CapSense_Start:
 909              	.LFB36:
 404:.\Generated_Source\PSoC4/CapSense.c **** {
 910              		.loc 1 404 0
 911              		.cfi_startproc
 912 0000 08B5     		push	{r3, lr}
 913              		.cfi_def_cfa_offset 8
 914              		.cfi_offset 3, -8
 915              		.cfi_offset 14, -4
 414:.\Generated_Source\PSoC4/CapSense.c ****     if (CapSense_initVar == 0u)
 916              		.loc 1 414 0
 917 0002 0B4B     		ldr	r3, .L62
 918 0004 9B7B     		ldrb	r3, [r3, #14]
 919 0006 002B     		cmp	r3, #0
 920 0008 04D1     		bne	.L61
 416:.\Generated_Source\PSoC4/CapSense.c ****         CapSense_Init();
 921              		.loc 1 416 0
 922 000a FFF7FEFF 		bl	CapSense_Init
 923              	.LVL112:
 417:.\Generated_Source\PSoC4/CapSense.c ****         CapSense_initVar = 1u;
 924              		.loc 1 417 0
 925 000e 0122     		mov	r2, #1
 926 0010 074B     		ldr	r3, .L62
 927 0012 9A73     		strb	r2, [r3, #14]
 928              	.L61:
 419:.\Generated_Source\PSoC4/CapSense.c ****     CapSense_Enable();
 929              		.loc 1 419 0
 930 0014 FFF7FEFF 		bl	CapSense_Enable
 931              	.LVL113:
 424:.\Generated_Source\PSoC4/CapSense.c **** 	        CapSense_AutoTune();
 932              		.loc 1 424 0
 933 0018 FFF7FEFF 		bl	CapSense_AutoTune
 934              	.LVL114:
 425:.\Generated_Source\PSoC4/CapSense.c **** 	        CapSense_lowLevelTuningDone = 1u;
 935              		.loc 1 425 0
 936 001c 0122     		mov	r2, #1
 937 001e 044B     		ldr	r3, .L62
 938 0020 DA73     		strb	r2, [r3, #15]
 468:.\Generated_Source\PSoC4/CapSense.c **** 	CapSense_CSD_CFG_REG |= CapSense_CSD_CFG_SENSE_INSEL;
 939              		.loc 1 468 0
 940 0022 044B     		ldr	r3, .L62+4
 941 0024 1968     		ldr	r1, [r3]
 942 0026 8022     		mov	r2, #128
 943 0028 D203     		lsl	r2, r2, #15
 944 002a 0A43     		orr	r2, r1
 945 002c 1A60     		str	r2, [r3]
 469:.\Generated_Source\PSoC4/CapSense.c **** }
 946              		.loc 1 469 0
 947              		@ sp needed
 948 002e 08BD     		pop	{r3, pc}
ARM GAS  C:\Users\kbuchi\AppData\Local\Temp\ccOUPaAd.s 			page 48


 949              	.L63:
 950              		.align	2
 951              	.L62:
 952 0030 00000000 		.word	.LANCHOR0
 953 0034 04000840 		.word	1074266116
 954              		.cfi_endproc
 955              	.LFE36:
 956              		.size	CapSense_Start, .-CapSense_Start
 957              		.section	.text.CapSense_ReadCurrentScanningSensor,"ax",%progbits
 958              		.align	2
 959              		.global	CapSense_ReadCurrentScanningSensor
 960              		.code	16
 961              		.thumb_func
 962              		.type	CapSense_ReadCurrentScanningSensor, %function
 963              	CapSense_ReadCurrentScanningSensor:
 964              	.LFB57:
1687:.\Generated_Source\PSoC4/CapSense.c **** 
1688:.\Generated_Source\PSoC4/CapSense.c **** 
1689:.\Generated_Source\PSoC4/CapSense.c **** /*******************************************************************************
1690:.\Generated_Source\PSoC4/CapSense.c **** * Function Name: CapSense_ReadCurrentScanningSensor
1691:.\Generated_Source\PSoC4/CapSense.c **** ********************************************************************************
1692:.\Generated_Source\PSoC4/CapSense.c **** *
1693:.\Generated_Source\PSoC4/CapSense.c **** * Summary:
1694:.\Generated_Source\PSoC4/CapSense.c **** *  This API returns scanning sensor number when sensor scan is in progress. 
1695:.\Generated_Source\PSoC4/CapSense.c **** *  When sensor scan is completed the API returns 
1696:.\Generated_Source\PSoC4/CapSense.c **** *  $INSTANCE_NAME`_NOT_SENSOR (0xFFFFFFFF) (when no sensor is scanned).
1697:.\Generated_Source\PSoC4/CapSense.c **** *
1698:.\Generated_Source\PSoC4/CapSense.c **** * Parameters:
1699:.\Generated_Source\PSoC4/CapSense.c **** *	None.
1700:.\Generated_Source\PSoC4/CapSense.c **** *
1701:.\Generated_Source\PSoC4/CapSense.c **** * Return:
1702:.\Generated_Source\PSoC4/CapSense.c **** *  Returns Sensor number if sensor is being scanned and 
1703:.\Generated_Source\PSoC4/CapSense.c **** *  $INSTANCE_NAME`_NOT_SENSOR (0xFFFFFFFF) if scanning is complete.
1704:.\Generated_Source\PSoC4/CapSense.c **** *
1705:.\Generated_Source\PSoC4/CapSense.c **** * Global Variables:
1706:.\Generated_Source\PSoC4/CapSense.c **** *  CapSense_sensorIndex - the sensor number is being scanned.
1707:.\Generated_Source\PSoC4/CapSense.c **** *
1708:.\Generated_Source\PSoC4/CapSense.c **** * Side Effects: 
1709:.\Generated_Source\PSoC4/CapSense.c **** *  None
1710:.\Generated_Source\PSoC4/CapSense.c **** *
1711:.\Generated_Source\PSoC4/CapSense.c **** *******************************************************************************/
1712:.\Generated_Source\PSoC4/CapSense.c **** uint32 CapSense_ReadCurrentScanningSensor(void)
1713:.\Generated_Source\PSoC4/CapSense.c **** {
 965              		.loc 1 1713 0
 966              		.cfi_startproc
1714:.\Generated_Source\PSoC4/CapSense.c ****     return ((uint32)(( 0u != (CapSense_csdStatusVar & CapSense_SW_STS_BUSY)) ? 
 967              		.loc 1 1714 0
 968 0000 054B     		ldr	r3, .L67
 969 0002 1B78     		ldrb	r3, [r3]
 970 0004 DA07     		lsl	r2, r3, #31
 971 0006 03D5     		bpl	.L66
 972              		.loc 1 1714 0 is_stmt 0 discriminator 1
 973 0008 034B     		ldr	r3, .L67
 974 000a 187C     		ldrb	r0, [r3, #16]
 975 000c C0B2     		uxtb	r0, r0
 976 000e 01E0     		b	.L65
 977              	.L66:
ARM GAS  C:\Users\kbuchi\AppData\Local\Temp\ccOUPaAd.s 			page 49


 978              		.loc 1 1714 0
 979 0010 0120     		mov	r0, #1
 980 0012 4042     		neg	r0, r0
 981              	.L65:
1715:.\Generated_Source\PSoC4/CapSense.c ****                      CapSense_sensorIndex : CapSense_NOT_SENSOR));
1716:.\Generated_Source\PSoC4/CapSense.c **** }
 982              		.loc 1 1716 0 is_stmt 1 discriminator 3
 983              		@ sp needed
 984 0014 7047     		bx	lr
 985              	.L68:
 986 0016 C046     		.align	2
 987              	.L67:
 988 0018 00000000 		.word	.LANCHOR0
 989              		.cfi_endproc
 990              	.LFE57:
 991              		.size	CapSense_ReadCurrentScanningSensor, .-CapSense_ReadCurrentScanningSensor
 992              		.section	.text.CapSense_GetBitValue,"ax",%progbits
 993              		.align	2
 994              		.global	CapSense_GetBitValue
 995              		.code	16
 996              		.thumb_func
 997              		.type	CapSense_GetBitValue, %function
 998              	CapSense_GetBitValue:
 999              	.LFB58:
1717:.\Generated_Source\PSoC4/CapSense.c **** 
1718:.\Generated_Source\PSoC4/CapSense.c **** 
1719:.\Generated_Source\PSoC4/CapSense.c **** /*******************************************************************************
1720:.\Generated_Source\PSoC4/CapSense.c **** * Function Name: CapSense_GetBitValue
1721:.\Generated_Source\PSoC4/CapSense.c **** ********************************************************************************
1722:.\Generated_Source\PSoC4/CapSense.c **** *
1723:.\Generated_Source\PSoC4/CapSense.c **** * Summary:
1724:.\Generated_Source\PSoC4/CapSense.c **** *  The API returns a bit status of the bit in the table array which contains the masks.
1725:.\Generated_Source\PSoC4/CapSense.c **** * 
1726:.\Generated_Source\PSoC4/CapSense.c **** * Parameters:
1727:.\Generated_Source\PSoC4/CapSense.c **** *  table[] - array with bit masks.
1728:.\Generated_Source\PSoC4/CapSense.c **** *  position - position of bit in the table[] array.
1729:.\Generated_Source\PSoC4/CapSense.c **** *
1730:.\Generated_Source\PSoC4/CapSense.c **** * Return:
1731:.\Generated_Source\PSoC4/CapSense.c **** *  0 - bit is not set; 1 - bit is set.
1732:.\Generated_Source\PSoC4/CapSense.c **** *
1733:.\Generated_Source\PSoC4/CapSense.c **** * Global Variables:
1734:.\Generated_Source\PSoC4/CapSense.c **** *  None
1735:.\Generated_Source\PSoC4/CapSense.c **** *
1736:.\Generated_Source\PSoC4/CapSense.c **** * Side Effects:
1737:.\Generated_Source\PSoC4/CapSense.c **** *  None
1738:.\Generated_Source\PSoC4/CapSense.c **** *
1739:.\Generated_Source\PSoC4/CapSense.c **** *******************************************************************************/
1740:.\Generated_Source\PSoC4/CapSense.c **** uint32 CapSense_GetBitValue(const uint8 table[], uint32 position)
1741:.\Generated_Source\PSoC4/CapSense.c **** {
 1000              		.loc 1 1741 0
 1001              		.cfi_startproc
 1002              	.LVL115:
1742:.\Generated_Source\PSoC4/CapSense.c ****     uint32 offset;
1743:.\Generated_Source\PSoC4/CapSense.c **** 	uint8 enMask;
1744:.\Generated_Source\PSoC4/CapSense.c **** 	
1745:.\Generated_Source\PSoC4/CapSense.c **** 	/* position is divided by 8 to calculate the element of the 
1746:.\Generated_Source\PSoC4/CapSense.c **** 	   table[] array that contains the enable bit 
ARM GAS  C:\Users\kbuchi\AppData\Local\Temp\ccOUPaAd.s 			page 50


1747:.\Generated_Source\PSoC4/CapSense.c **** 	   for an appropriate sensor.
1748:.\Generated_Source\PSoC4/CapSense.c **** 	*/
1749:.\Generated_Source\PSoC4/CapSense.c **** 	offset = (position >> 3u);
 1003              		.loc 1 1749 0
 1004 0000 CB08     		lsr	r3, r1, #3
 1005              	.LVL116:
1750:.\Generated_Source\PSoC4/CapSense.c **** 	
1751:.\Generated_Source\PSoC4/CapSense.c **** 	/* The enMask calculation for the appropriate sensor. Operation (position & 0x07u) 
1752:.\Generated_Source\PSoC4/CapSense.c **** 	   intends to calculate the enable bit offset for the 8-bit element of the 
1753:.\Generated_Source\PSoC4/CapSense.c **** 	   table[] array.
1754:.\Generated_Source\PSoC4/CapSense.c **** 	*/
1755:.\Generated_Source\PSoC4/CapSense.c **** 	enMask = 0x01u << (position & 0x07u);
 1006              		.loc 1 1755 0
 1007 0002 0722     		mov	r2, #7
 1008 0004 1140     		and	r1, r2
 1009              	.LVL117:
 1010 0006 0122     		mov	r2, #1
 1011 0008 8A40     		lsl	r2, r2, r1
 1012              	.LVL118:
1756:.\Generated_Source\PSoC4/CapSense.c ****     
1757:.\Generated_Source\PSoC4/CapSense.c ****     return ((0u !=(table[offset] & enMask)) ? 1Lu : 0Lu);
 1013              		.loc 1 1757 0
 1014 000a C35C     		ldrb	r3, [r0, r3]
 1015              	.LVL119:
 1016 000c 1A42     		tst	r2, r3
 1017 000e 01D0     		beq	.L71
 1018 0010 0120     		mov	r0, #1
 1019              	.LVL120:
 1020 0012 00E0     		b	.L70
 1021              	.LVL121:
 1022              	.L71:
 1023 0014 0020     		mov	r0, #0
 1024              	.LVL122:
 1025              	.L70:
1758:.\Generated_Source\PSoC4/CapSense.c **** }
 1026              		.loc 1 1758 0 discriminator 3
 1027              		@ sp needed
 1028 0016 7047     		bx	lr
 1029              		.cfi_endproc
 1030              	.LFE58:
 1031              		.size	CapSense_GetBitValue, .-CapSense_GetBitValue
 1032              		.section	.text.CapSense_FindNextSensor,"ax",%progbits
 1033              		.align	2
 1034              		.global	CapSense_FindNextSensor
 1035              		.code	16
 1036              		.thumb_func
 1037              		.type	CapSense_FindNextSensor, %function
 1038              	CapSense_FindNextSensor:
 1039              	.LFB38:
 534:.\Generated_Source\PSoC4/CapSense.c **** {
 1040              		.loc 1 534 0
 1041              		.cfi_startproc
 1042              	.LVL123:
 1043 0000 38B5     		push	{r3, r4, r5, lr}
 1044              		.cfi_def_cfa_offset 16
 1045              		.cfi_offset 3, -16
 1046              		.cfi_offset 4, -12
ARM GAS  C:\Users\kbuchi\AppData\Local\Temp\ccOUPaAd.s 			page 51


 1047              		.cfi_offset 5, -8
 1048              		.cfi_offset 14, -4
 1049 0002 041C     		mov	r4, r0
 546:.\Generated_Source\PSoC4/CapSense.c ****         enableFlag = CapSense_GetBitValue(CapSense_sensorEnableMask, (uint32)snsIndex);
 1050              		.loc 1 546 0
 1051 0004 064D     		ldr	r5, .L76
 1052 0006 0435     		add	r5, r5, #4
 1053              	.LVL124:
 1054              	.L74:
 541:.\Generated_Source\PSoC4/CapSense.c ****         snsIndex++;
 1055              		.loc 1 541 0
 1056 0008 0134     		add	r4, r4, #1
 1057              	.LVL125:
 1058 000a E4B2     		uxtb	r4, r4
 1059              	.LVL126:
 542:.\Generated_Source\PSoC4/CapSense.c ****         if(snsIndex == CapSense_TOTAL_SENSOR_COUNT)
 1060              		.loc 1 542 0
 1061 000c 052C     		cmp	r4, #5
 1062 000e 05D0     		beq	.L73
 546:.\Generated_Source\PSoC4/CapSense.c ****         enableFlag = CapSense_GetBitValue(CapSense_sensorEnableMask, (uint32)snsIndex);
 1063              		.loc 1 546 0
 1064 0010 281C     		mov	r0, r5
 1065 0012 211C     		mov	r1, r4
 1066 0014 FFF7FEFF 		bl	CapSense_GetBitValue
 1067              	.LVL127:
 548:.\Generated_Source\PSoC4/CapSense.c ****     while(enableFlag == 0u);
 1068              		.loc 1 548 0
 1069 0018 0028     		cmp	r0, #0
 1070 001a F5D0     		beq	.L74
 1071              	.LVL128:
 1072              	.L73:
 551:.\Generated_Source\PSoC4/CapSense.c **** }
 1073              		.loc 1 551 0
 1074 001c 201C     		mov	r0, r4
 1075              		@ sp needed
 1076              	.LVL129:
 1077 001e 38BD     		pop	{r3, r4, r5, pc}
 1078              	.L77:
 1079              		.align	2
 1080              	.L76:
 1081 0020 00000000 		.word	.LANCHOR1
 1082              		.cfi_endproc
 1083              	.LFE38:
 1084              		.size	CapSense_FindNextSensor, .-CapSense_FindNextSensor
 1085              		.section	.text.CapSense_PreScan,"ax",%progbits
 1086              		.align	2
 1087              		.global	CapSense_PreScan
 1088              		.code	16
 1089              		.thumb_func
 1090              		.type	CapSense_PreScan, %function
 1091              	CapSense_PreScan:
 1092              	.LFB53:
1363:.\Generated_Source\PSoC4/CapSense.c **** {
 1093              		.loc 1 1363 0
 1094              		.cfi_startproc
 1095              	.LVL130:
 1096 0000 F8B5     		push	{r3, r4, r5, r6, r7, lr}
ARM GAS  C:\Users\kbuchi\AppData\Local\Temp\ccOUPaAd.s 			page 52


 1097              		.cfi_def_cfa_offset 24
 1098              		.cfi_offset 3, -24
 1099              		.cfi_offset 4, -20
 1100              		.cfi_offset 5, -16
 1101              		.cfi_offset 6, -12
 1102              		.cfi_offset 7, -8
 1103              		.cfi_offset 14, -4
 1104 0002 041C     		mov	r4, r0
1381:.\Generated_Source\PSoC4/CapSense.c ****     widget = CapSense_widgetNumber[sensor];
 1105              		.loc 1 1381 0
 1106 0004 234B     		ldr	r3, .L80
 1107 0006 4C33     		add	r3, r3, #76
 1108 0008 1A5C     		ldrb	r2, [r3, r0]
 1109              	.LVL131:
1384:.\Generated_Source\PSoC4/CapSense.c **** 	counterResolution = CapSense_widgetResolution[widget];
 1110              		.loc 1 1384 0
 1111 000a 9200     		lsl	r2, r2, #2
 1112 000c 224B     		ldr	r3, .L80+4
 1113              	.LVL132:
 1114 000e D558     		ldr	r5, [r2, r3]
 1115              	.LVL133:
1388:.\Generated_Source\PSoC4/CapSense.c **** 	    oversamplingFactor = CapSense_GetBitValue(scanSpeedTbl, sensor);
 1116              		.loc 1 1388 0
 1117 0010 2248     		ldr	r0, .L80+8
 1118              	.LVL134:
 1119 0012 211C     		mov	r1, r4
 1120 0014 FFF7FEFF 		bl	CapSense_GetBitValue
 1121              	.LVL135:
1390:.\Generated_Source\PSoC4/CapSense.c **** 		if(counterResolution < CapSense_RESOLUTION_16_BITS)
 1122              		.loc 1 1390 0
 1123 0018 214B     		ldr	r3, .L80+12
 1124 001a 9D42     		cmp	r5, r3
 1125 001c 04D8     		bhi	.L79
1392:.\Generated_Source\PSoC4/CapSense.c **** 			counterResolution <<= oversamplingFactor;
 1126              		.loc 1 1392 0
 1127 001e 8540     		lsl	r5, r5, r0
 1128              	.LVL136:
 1129 0020 281C     		mov	r0, r5
 1130              	.LVL137:
1393:.\Generated_Source\PSoC4/CapSense.c **** 			counterResolution |= (uint32)(CapSense_RESOLUTION_8_BITS);
 1131              		.loc 1 1393 0
 1132 0022 FF25     		mov	r5, #255
 1133 0024 2D04     		lsl	r5, r5, #16
 1134 0026 0543     		orr	r5, r0
 1135              	.LVL138:
 1136              	.L79:
1404:.\Generated_Source\PSoC4/CapSense.c **** 		CapSense_SampleClk_SetDividerValue((uint16)CapSense_sampleClkDividerVal[sensor]);
 1137              		.loc 1 1404 0
 1138 0028 1E4B     		ldr	r3, .L80+16
 1139 002a 185D     		ldrb	r0, [r3, r4]
 1140 002c 0138     		sub	r0, r0, #1
 1141 002e 80B2     		uxth	r0, r0
 1142 0030 0021     		mov	r1, #0
 1143 0032 FFF7FEFF 		bl	CapSense_SampleClk_SetFractionalDividerRegister
 1144              	.LVL139:
1405:.\Generated_Source\PSoC4/CapSense.c **** 		CapSense_SenseClk_SetDividerValue((uint16)CapSense_senseClkDividerVal[sensor]);
 1145              		.loc 1 1405 0
ARM GAS  C:\Users\kbuchi\AppData\Local\Temp\ccOUPaAd.s 			page 53


 1146 0036 1C4B     		ldr	r3, .L80+20
 1147 0038 185D     		ldrb	r0, [r3, r4]
 1148 003a 0138     		sub	r0, r0, #1
 1149 003c 80B2     		uxth	r0, r0
 1150 003e 0021     		mov	r1, #0
 1151 0040 FFF7FEFF 		bl	CapSense_SenseClk_SetFractionalDividerRegister
 1152              	.LVL140:
1474:.\Generated_Source\PSoC4/CapSense.c **** 	CyIntDisable(CapSense_ISR_NUMBER);
 1153              		.loc 1 1474 0
 1154 0044 0F20     		mov	r0, #15
 1155 0046 FFF7FEFF 		bl	CyIntDisable
 1156              	.LVL141:
1475:.\Generated_Source\PSoC4/CapSense.c ****     newRegValue = CapSense_CSD_IDAC_REG;
 1157              		.loc 1 1475 0
 1158 004a 184B     		ldr	r3, .L80+24
 1159 004c 1968     		ldr	r1, [r3]
 1160              	.LVL142:
1481:.\Generated_Source\PSoC4/CapSense.c **** 	newRegValue &= ~(CapSense_CSD_IDAC1_DATA_MASK | CapSense_CSD_IDAC2_DATA_MASK);
 1161              		.loc 1 1481 0
 1162 004e 184A     		ldr	r2, .L80+28
 1163 0050 1140     		and	r1, r2
 1164              	.LVL143:
1482:.\Generated_Source\PSoC4/CapSense.c **** 	newRegValue |= (CapSense_modulationIDAC[sensor] | 
 1165              		.loc 1 1482 0
 1166 0052 184A     		ldr	r2, .L80+32
 1167 0054 105D     		ldrb	r0, [r2, r4]
1483:.\Generated_Source\PSoC4/CapSense.c **** 							(uint32)((uint32)CapSense_compensationIDAC[sensor] <<
 1168              		.loc 1 1483 0
 1169 0056 184A     		ldr	r2, .L80+36
 1170 0058 125D     		ldrb	r2, [r2, r4]
 1171 005a 1204     		lsl	r2, r2, #16
1482:.\Generated_Source\PSoC4/CapSense.c **** 	newRegValue |= (CapSense_modulationIDAC[sensor] | 
 1172              		.loc 1 1482 0
 1173 005c 0243     		orr	r2, r0
 1174 005e 0A43     		orr	r2, r1
 1175              	.LVL144:
1487:.\Generated_Source\PSoC4/CapSense.c **** 	CapSense_CSD_IDAC_REG = newRegValue;
 1176              		.loc 1 1487 0
 1177 0060 1A60     		str	r2, [r3]
1502:.\Generated_Source\PSoC4/CapSense.c **** 	newRegValue = CapSense_CSD_CFG_REG;
 1178              		.loc 1 1502 0
 1179 0062 164E     		ldr	r6, .L80+40
 1180 0064 3768     		ldr	r7, [r6]
 1181              	.LVL145:
1503:.\Generated_Source\PSoC4/CapSense.c **** 	newRegValue &= ~(CapSense_PRECHARGE_CONFIG_MASK);
 1182              		.loc 1 1503 0
 1183 0066 164B     		ldr	r3, .L80+44
 1184 0068 1F40     		and	r7, r3
 1185              	.LVL146:
1504:.\Generated_Source\PSoC4/CapSense.c **** 	newRegValue |= CapSense_CTANK_PRECHARGE_CONFIG;
 1186              		.loc 1 1504 0
 1187 006a 164B     		ldr	r3, .L80+48
 1188 006c 1F43     		orr	r7, r3
 1189              	.LVL147:
1506:.\Generated_Source\PSoC4/CapSense.c **** 	CyIntEnable(CapSense_ISR_NUMBER);
 1190              		.loc 1 1506 0
 1191 006e 0F20     		mov	r0, #15
ARM GAS  C:\Users\kbuchi\AppData\Local\Temp\ccOUPaAd.s 			page 54


 1192 0070 FFF7FEFF 		bl	CyIntEnable
 1193              	.LVL148:
1509:.\Generated_Source\PSoC4/CapSense.c ****     CapSense_EnableScanSlot(sensor);
 1194              		.loc 1 1509 0
 1195 0074 201C     		mov	r0, r4
 1196 0076 FFF7FEFF 		bl	CapSense_EnableSensor
 1197              	.LVL149:
1511:.\Generated_Source\PSoC4/CapSense.c **** 	interruptState = CyEnterCriticalSection();
 1198              		.loc 1 1511 0
 1199 007a FFF7FEFF 		bl	CyEnterCriticalSection
 1200              	.LVL150:
 1201 007e 041C     		mov	r4, r0
 1202              	.LVL151:
1512:.\Generated_Source\PSoC4/CapSense.c **** 	CapSense_CSD_CFG_REG = newRegValue;
 1203              		.loc 1 1512 0
 1204 0080 3760     		str	r7, [r6]
1518:.\Generated_Source\PSoC4/CapSense.c **** 	CyDelayCycles(CapSense_GLITCH_ELIMINATION_CYCLES);
 1205              		.loc 1 1518 0
 1206 0082 0020     		mov	r0, #0
 1207              	.LVL152:
 1208 0084 FFF7FEFF 		bl	CyDelayCycles
 1209              	.LVL153:
1524:.\Generated_Source\PSoC4/CapSense.c ****     CapSense_CSD_CNT_REG = counterResolution;
 1210              		.loc 1 1524 0
 1211 0088 0F4B     		ldr	r3, .L80+52
 1212 008a 1D60     		str	r5, [r3]
1525:.\Generated_Source\PSoC4/CapSense.c ****     CyExitCriticalSection(interruptState);
 1213              		.loc 1 1525 0
 1214 008c 201C     		mov	r0, r4
 1215 008e FFF7FEFF 		bl	CyExitCriticalSection
 1216              	.LVL154:
1526:.\Generated_Source\PSoC4/CapSense.c **** }
 1217              		.loc 1 1526 0
 1218              		@ sp needed
 1219              	.LVL155:
 1220              	.LVL156:
 1221              	.LVL157:
 1222 0092 F8BD     		pop	{r3, r4, r5, r6, r7, pc}
 1223              	.L81:
 1224              		.align	2
 1225              	.L80:
 1226 0094 00000000 		.word	.LANCHOR2
 1227 0098 00000000 		.word	.LANCHOR1
 1228 009c 00000000 		.word	scanSpeedTbl
 1229 00a0 FFFFFEFF 		.word	-65537
 1230 00a4 00000000 		.word	CapSense_sampleClkDividerVal
 1231 00a8 00000000 		.word	CapSense_senseClkDividerVal
 1232 00ac 08000840 		.word	1074266120
 1233 00b0 00FF80FF 		.word	-8323328
 1234 00b4 00000000 		.word	CapSense_modulationIDAC
 1235 00b8 00000000 		.word	CapSense_compensationIDAC
 1236 00bc 04000840 		.word	1074266116
 1237 00c0 FF1FDFFF 		.word	-2154497
 1238 00c4 20E02000 		.word	2154528
 1239 00c8 0C000840 		.word	1074266124
 1240              		.cfi_endproc
 1241              	.LFE53:
ARM GAS  C:\Users\kbuchi\AppData\Local\Temp\ccOUPaAd.s 			page 55


 1242              		.size	CapSense_PreScan, .-CapSense_PreScan
 1243              		.section	.text.CapSense_ScanSensor,"ax",%progbits
 1244              		.align	2
 1245              		.global	CapSense_ScanSensor
 1246              		.code	16
 1247              		.thumb_func
 1248              		.type	CapSense_ScanSensor, %function
 1249              	CapSense_ScanSensor:
 1250              	.LFB39:
 582:.\Generated_Source\PSoC4/CapSense.c **** {
 1251              		.loc 1 582 0
 1252              		.cfi_startproc
 1253              	.LVL158:
 1254 0000 08B5     		push	{r3, lr}
 1255              		.cfi_def_cfa_offset 8
 1256              		.cfi_offset 3, -8
 1257              		.cfi_offset 14, -4
 584:.\Generated_Source\PSoC4/CapSense.c ****     CapSense_csdStatusVar = 0u;
 1258              		.loc 1 584 0
 1259 0002 054B     		ldr	r3, .L83
 1260 0004 0022     		mov	r2, #0
 1261 0006 1A70     		strb	r2, [r3]
 585:.\Generated_Source\PSoC4/CapSense.c ****     CapSense_sensorIndex = (uint8)sensor;
 1262              		.loc 1 585 0
 1263 0008 C2B2     		uxtb	r2, r0
 1264 000a 1A74     		strb	r2, [r3, #16]
 588:.\Generated_Source\PSoC4/CapSense.c ****     CapSense_csdStatusVar = (CapSense_SW_STS_BUSY | CapSense_SW_CTRL_SINGLE_SCAN);
 1265              		.loc 1 588 0
 1266 000c 8122     		mov	r2, #129
 1267 000e 1A70     		strb	r2, [r3]
 589:.\Generated_Source\PSoC4/CapSense.c ****     CapSense_PreScan(sensor);
 1268              		.loc 1 589 0
 1269 0010 FFF7FEFF 		bl	CapSense_PreScan
 1270              	.LVL159:
 590:.\Generated_Source\PSoC4/CapSense.c **** }
 1271              		.loc 1 590 0
 1272              		@ sp needed
 1273 0014 08BD     		pop	{r3, pc}
 1274              	.L84:
 1275 0016 C046     		.align	2
 1276              	.L83:
 1277 0018 00000000 		.word	.LANCHOR0
 1278              		.cfi_endproc
 1279              	.LFE39:
 1280              		.size	CapSense_ScanSensor, .-CapSense_ScanSensor
 1281              		.section	.text.CapSense_ScanEnabledWidgets,"ax",%progbits
 1282              		.align	2
 1283              		.global	CapSense_ScanEnabledWidgets
 1284              		.code	16
 1285              		.thumb_func
 1286              		.type	CapSense_ScanEnabledWidgets, %function
 1287              	CapSense_ScanEnabledWidgets:
 1288              	.LFB41:
 706:.\Generated_Source\PSoC4/CapSense.c **** {
 1289              		.loc 1 706 0
 1290              		.cfi_startproc
 1291 0000 10B5     		push	{r4, lr}
ARM GAS  C:\Users\kbuchi\AppData\Local\Temp\ccOUPaAd.s 			page 56


 1292              		.cfi_def_cfa_offset 8
 1293              		.cfi_offset 4, -8
 1294              		.cfi_offset 14, -4
 708:.\Generated_Source\PSoC4/CapSense.c ****     CapSense_csdStatusVar = 0u;
 1295              		.loc 1 708 0
 1296 0002 0B4C     		ldr	r4, .L87
 1297 0004 0023     		mov	r3, #0
 1298 0006 2370     		strb	r3, [r4]
 709:.\Generated_Source\PSoC4/CapSense.c ****     CapSense_sensorIndex = 0xFFu;
 1299              		.loc 1 709 0
 1300 0008 FF23     		mov	r3, #255
 1301 000a 2374     		strb	r3, [r4, #16]
 712:.\Generated_Source\PSoC4/CapSense.c ****     CapSense_sensorIndex = (uint8)CapSense_FindNextSensor(CapSense_sensorIndex);
 1302              		.loc 1 712 0
 1303 000c 207C     		ldrb	r0, [r4, #16]
 1304 000e C0B2     		uxtb	r0, r0
 1305 0010 FFF7FEFF 		bl	CapSense_FindNextSensor
 1306              	.LVL160:
 1307 0014 2074     		strb	r0, [r4, #16]
 715:.\Generated_Source\PSoC4/CapSense.c ****     if(CapSense_sensorIndex < CapSense_TOTAL_SENSOR_COUNT)
 1308              		.loc 1 715 0
 1309 0016 237C     		ldrb	r3, [r4, #16]
 1310 0018 DBB2     		uxtb	r3, r3
 1311 001a 042B     		cmp	r3, #4
 1312 001c 07D8     		bhi	.L85
 717:.\Generated_Source\PSoC4/CapSense.c ****         CapSense_csdStatusVar |= CapSense_SW_STS_BUSY;
 1313              		.loc 1 717 0
 1314 001e 2178     		ldrb	r1, [r4]
 1315 0020 0122     		mov	r2, #1
 1316 0022 0A43     		orr	r2, r1
 1317 0024 2270     		strb	r2, [r4]
 718:.\Generated_Source\PSoC4/CapSense.c ****         CapSense_PreScan((uint32)CapSense_sensorIndex);
 1318              		.loc 1 718 0
 1319 0026 207C     		ldrb	r0, [r4, #16]
 1320 0028 C0B2     		uxtb	r0, r0
 1321 002a FFF7FEFF 		bl	CapSense_PreScan
 1322              	.LVL161:
 1323              	.L85:
 720:.\Generated_Source\PSoC4/CapSense.c **** }
 1324              		.loc 1 720 0
 1325              		@ sp needed
 1326 002e 10BD     		pop	{r4, pc}
 1327              	.L88:
 1328              		.align	2
 1329              	.L87:
 1330 0030 00000000 		.word	.LANCHOR0
 1331              		.cfi_endproc
 1332              	.LFE41:
 1333              		.size	CapSense_ScanEnabledWidgets, .-CapSense_ScanEnabledWidgets
 1334              		.section	.text.CapSense_PostScan,"ax",%progbits
 1335              		.align	2
 1336              		.global	CapSense_PostScan
 1337              		.code	16
 1338              		.thumb_func
 1339              		.type	CapSense_PostScan, %function
 1340              	CapSense_PostScan:
 1341              	.LFB54:
ARM GAS  C:\Users\kbuchi\AppData\Local\Temp\ccOUPaAd.s 			page 57


1552:.\Generated_Source\PSoC4/CapSense.c **** {	
 1342              		.loc 1 1552 0
 1343              		.cfi_startproc
 1344              	.LVL162:
 1345 0000 38B5     		push	{r3, r4, r5, lr}
 1346              		.cfi_def_cfa_offset 16
 1347              		.cfi_offset 3, -16
 1348              		.cfi_offset 4, -12
 1349              		.cfi_offset 5, -8
 1350              		.cfi_offset 14, -4
 1351 0002 041C     		mov	r4, r0
1567:.\Generated_Source\PSoC4/CapSense.c ****     CapSense_sensorRaw[sensor]  = (uint16)CapSense_CSD_CNT_REG;
 1352              		.loc 1 1567 0
 1353 0004 174B     		ldr	r3, .L91
 1354 0006 1D68     		ldr	r5, [r3]
 1355 0008 ADB2     		uxth	r5, r5
 1356 000a 4300     		lsl	r3, r0, #1
 1357 000c 164A     		ldr	r2, .L91+4
 1358 000e D318     		add	r3, r2, r3
 1359 0010 9D80     		strh	r5, [r3, #4]
1571:.\Generated_Source\PSoC4/CapSense.c **** 	widget = CapSense_widgetNumber[sensor];
 1360              		.loc 1 1571 0
 1361 0012 164B     		ldr	r3, .L91+8
 1362 0014 4C33     		add	r3, r3, #76
 1363 0016 1A5C     		ldrb	r2, [r3, r0]
 1364              	.LVL163:
1572:.\Generated_Source\PSoC4/CapSense.c **** 	if(CapSense_widgetResolution[widget] < CapSense_RESOLUTION_16_BITS)
 1365              		.loc 1 1572 0
 1366 0018 9200     		lsl	r2, r2, #2
 1367              	.LVL164:
 1368 001a 154B     		ldr	r3, .L91+12
 1369              	.LVL165:
 1370 001c D258     		ldr	r2, [r2, r3]
 1371 001e 154B     		ldr	r3, .L91+16
 1372 0020 9A42     		cmp	r2, r3
 1373 0022 08D8     		bhi	.L90
1574:.\Generated_Source\PSoC4/CapSense.c **** 		oversamplingFactor = CapSense_GetBitValue(scanSpeedTbl, sensor);
 1374              		.loc 1 1574 0
 1375 0024 1448     		ldr	r0, .L91+20
 1376              	.LVL166:
 1377 0026 211C     		mov	r1, r4
 1378 0028 FFF7FEFF 		bl	CapSense_GetBitValue
 1379              	.LVL167:
1575:.\Generated_Source\PSoC4/CapSense.c **** 		CapSense_sensorRaw[sensor] >>= oversamplingFactor;
 1380              		.loc 1 1575 0
 1381 002c 6300     		lsl	r3, r4, #1
 1382 002e 0E4A     		ldr	r2, .L91+4
 1383 0030 D318     		add	r3, r2, r3
 1384 0032 0541     		asr	r5, r5, r0
 1385 0034 9D80     		strh	r5, [r3, #4]
 1386              	.LVL168:
 1387              	.L90:
1581:.\Generated_Source\PSoC4/CapSense.c ****     CapSense_DisableScanSlot(sensor);
 1388              		.loc 1 1581 0
 1389 0036 201C     		mov	r0, r4
 1390 0038 FFF7FEFF 		bl	CapSense_DisableSensor
 1391              	.LVL169:
ARM GAS  C:\Users\kbuchi\AppData\Local\Temp\ccOUPaAd.s 			page 58


1583:.\Generated_Source\PSoC4/CapSense.c **** 	CyIntDisable(CapSense_ISR_NUMBER);
 1392              		.loc 1 1583 0
 1393 003c 0F20     		mov	r0, #15
 1394 003e FFF7FEFF 		bl	CyIntDisable
 1395              	.LVL170:
1603:.\Generated_Source\PSoC4/CapSense.c **** 	newRegValue = CapSense_CSD_CFG_REG;
 1396              		.loc 1 1603 0
 1397 0042 0E4B     		ldr	r3, .L91+24
 1398 0044 1968     		ldr	r1, [r3]
 1399              	.LVL171:
1604:.\Generated_Source\PSoC4/CapSense.c **** 	newRegValue &= ~(CapSense_PRECHARGE_CONFIG_MASK);
 1400              		.loc 1 1604 0
 1401 0046 0E4A     		ldr	r2, .L91+28
 1402 0048 0A40     		and	r2, r1
 1403              	.LVL172:
1605:.\Generated_Source\PSoC4/CapSense.c **** 	newRegValue |= CapSense_CMOD_PRECHARGE_CONFIG;
 1404              		.loc 1 1605 0
 1405 004a A021     		mov	r1, #160
 1406 004c 0902     		lsl	r1, r1, #8
 1407 004e 0A43     		orr	r2, r1
 1408              	.LVL173:
1606:.\Generated_Source\PSoC4/CapSense.c **** 	CapSense_CSD_CFG_REG = newRegValue;
 1409              		.loc 1 1606 0
 1410 0050 1A60     		str	r2, [r3]
1612:.\Generated_Source\PSoC4/CapSense.c **** 	CapSense_CSD_IDAC_REG &= ~(CapSense_CSD_IDAC1_DATA_MASK | CapSense_CSD_IDAC2_DATA_MASK);          
 1411              		.loc 1 1612 0
 1412 0052 0C4B     		ldr	r3, .L91+32
 1413 0054 1968     		ldr	r1, [r3]
 1414 0056 0C4A     		ldr	r2, .L91+36
 1415              	.LVL174:
 1416 0058 0A40     		and	r2, r1
 1417 005a 1A60     		str	r2, [r3]
 1418              	.LVL175:
1615:.\Generated_Source\PSoC4/CapSense.c **** 	CyIntEnable(CapSense_ISR_NUMBER);
 1419              		.loc 1 1615 0
 1420 005c 0F20     		mov	r0, #15
 1421 005e FFF7FEFF 		bl	CyIntEnable
 1422              	.LVL176:
1616:.\Generated_Source\PSoC4/CapSense.c **** }
 1423              		.loc 1 1616 0
 1424              		@ sp needed
 1425              	.LVL177:
 1426 0062 38BD     		pop	{r3, r4, r5, pc}
 1427              	.L92:
 1428              		.align	2
 1429              	.L91:
 1430 0064 0C000840 		.word	1074266124
 1431 0068 00000000 		.word	.LANCHOR0
 1432 006c 00000000 		.word	.LANCHOR2
 1433 0070 00000000 		.word	.LANCHOR1
 1434 0074 FFFFFEFF 		.word	-65537
 1435 0078 00000000 		.word	scanSpeedTbl
 1436 007c 04000840 		.word	1074266116
 1437 0080 FF1FDFFF 		.word	-2154497
 1438 0084 08000840 		.word	1074266120
 1439 0088 00FF80FF 		.word	-8323328
 1440              		.cfi_endproc
ARM GAS  C:\Users\kbuchi\AppData\Local\Temp\ccOUPaAd.s 			page 59


 1441              	.LFE54:
 1442              		.size	CapSense_PostScan, .-CapSense_PostScan
 1443              		.section	.text.CapSense_SetBitValue,"ax",%progbits
 1444              		.align	2
 1445              		.global	CapSense_SetBitValue
 1446              		.code	16
 1447              		.thumb_func
 1448              		.type	CapSense_SetBitValue, %function
 1449              	CapSense_SetBitValue:
 1450              	.LFB59:
1759:.\Generated_Source\PSoC4/CapSense.c **** 
1760:.\Generated_Source\PSoC4/CapSense.c **** 
1761:.\Generated_Source\PSoC4/CapSense.c **** /*******************************************************************************
1762:.\Generated_Source\PSoC4/CapSense.c **** * Function Name: CapSense_SetBitValue
1763:.\Generated_Source\PSoC4/CapSense.c **** ********************************************************************************
1764:.\Generated_Source\PSoC4/CapSense.c **** *
1765:.\Generated_Source\PSoC4/CapSense.c **** * Summary:
1766:.\Generated_Source\PSoC4/CapSense.c **** *  The API sets a bit status of the bit in the table array which contains masks.
1767:.\Generated_Source\PSoC4/CapSense.c **** * 
1768:.\Generated_Source\PSoC4/CapSense.c **** * Parameters:
1769:.\Generated_Source\PSoC4/CapSense.c **** *  table[] - array with bit masks.
1770:.\Generated_Source\PSoC4/CapSense.c **** *  position - position of bit in the table[] array.
1771:.\Generated_Source\PSoC4/CapSense.c **** *  value: 0 - bit is not set; 1 - bit is set.
1772:.\Generated_Source\PSoC4/CapSense.c **** *
1773:.\Generated_Source\PSoC4/CapSense.c **** * Return:
1774:.\Generated_Source\PSoC4/CapSense.c **** *  None
1775:.\Generated_Source\PSoC4/CapSense.c **** *
1776:.\Generated_Source\PSoC4/CapSense.c **** * Global Variables:
1777:.\Generated_Source\PSoC4/CapSense.c **** *  None
1778:.\Generated_Source\PSoC4/CapSense.c **** *
1779:.\Generated_Source\PSoC4/CapSense.c **** * Side Effects:
1780:.\Generated_Source\PSoC4/CapSense.c **** *  None
1781:.\Generated_Source\PSoC4/CapSense.c **** *
1782:.\Generated_Source\PSoC4/CapSense.c **** *******************************************************************************/
1783:.\Generated_Source\PSoC4/CapSense.c **** void CapSense_SetBitValue(uint8 table[], uint32 position, uint32 value)
1784:.\Generated_Source\PSoC4/CapSense.c **** {
 1451              		.loc 1 1784 0
 1452              		.cfi_startproc
 1453              	.LVL178:
 1454 0000 10B5     		push	{r4, lr}
 1455              		.cfi_def_cfa_offset 8
 1456              		.cfi_offset 4, -8
 1457              		.cfi_offset 14, -4
1785:.\Generated_Source\PSoC4/CapSense.c ****     uint32 offset;
1786:.\Generated_Source\PSoC4/CapSense.c **** 	uint8 enMask;
1787:.\Generated_Source\PSoC4/CapSense.c **** 	
1788:.\Generated_Source\PSoC4/CapSense.c **** 	/* position is divided by 8 to calculate the element of the 
1789:.\Generated_Source\PSoC4/CapSense.c **** 	   table[] array that contains the enable bit 
1790:.\Generated_Source\PSoC4/CapSense.c **** 	   for an appropriate sensor.
1791:.\Generated_Source\PSoC4/CapSense.c **** 	*/
1792:.\Generated_Source\PSoC4/CapSense.c **** 	offset = (position >> 3u);
 1458              		.loc 1 1792 0
 1459 0002 CB08     		lsr	r3, r1, #3
 1460              	.LVL179:
1793:.\Generated_Source\PSoC4/CapSense.c **** 	
1794:.\Generated_Source\PSoC4/CapSense.c **** 	/* The enMask calculation for the appropriate sensor. Operation (position & 0x07u) 
1795:.\Generated_Source\PSoC4/CapSense.c **** 	   intends to calculate the enable bit offset for the 8-bit element of the 
ARM GAS  C:\Users\kbuchi\AppData\Local\Temp\ccOUPaAd.s 			page 60


1796:.\Generated_Source\PSoC4/CapSense.c **** 	   table[] array.
1797:.\Generated_Source\PSoC4/CapSense.c **** 	*/
1798:.\Generated_Source\PSoC4/CapSense.c **** 	enMask = 0x01u << (position & 0x07u);
 1461              		.loc 1 1798 0
 1462 0004 0724     		mov	r4, #7
 1463 0006 2140     		and	r1, r4
 1464              	.LVL180:
 1465 0008 0124     		mov	r4, #1
 1466 000a 8C40     		lsl	r4, r4, r1
 1467 000c E1B2     		uxtb	r1, r4
 1468              	.LVL181:
1799:.\Generated_Source\PSoC4/CapSense.c **** 	
1800:.\Generated_Source\PSoC4/CapSense.c **** 	if(0u != value)
 1469              		.loc 1 1800 0
 1470 000e 002A     		cmp	r2, #0
 1471 0010 04D0     		beq	.L94
1801:.\Generated_Source\PSoC4/CapSense.c **** 	{
1802:.\Generated_Source\PSoC4/CapSense.c **** 		table[offset] |= enMask;
 1472              		.loc 1 1802 0
 1473 0012 C018     		add	r0, r0, r3
 1474              	.LVL182:
 1475 0014 0378     		ldrb	r3, [r0]
 1476              	.LVL183:
 1477 0016 1943     		orr	r1, r3
 1478 0018 0170     		strb	r1, [r0]
 1479 001a 03E0     		b	.L93
 1480              	.LVL184:
 1481              	.L94:
1803:.\Generated_Source\PSoC4/CapSense.c **** 	}
1804:.\Generated_Source\PSoC4/CapSense.c **** 	else
1805:.\Generated_Source\PSoC4/CapSense.c **** 	{
1806:.\Generated_Source\PSoC4/CapSense.c **** 		table[offset] &= (uint8)~(enMask);
 1482              		.loc 1 1806 0
 1483 001c C018     		add	r0, r0, r3
 1484              	.LVL185:
 1485 001e 0378     		ldrb	r3, [r0]
 1486              	.LVL186:
 1487 0020 8B43     		bic	r3, r1
 1488 0022 0370     		strb	r3, [r0]
 1489              	.L93:
1807:.\Generated_Source\PSoC4/CapSense.c **** 	}
1808:.\Generated_Source\PSoC4/CapSense.c **** }
 1490              		.loc 1 1808 0
 1491              		@ sp needed
 1492              	.LVL187:
 1493 0024 10BD     		pop	{r4, pc}
 1494              		.cfi_endproc
 1495              	.LFE59:
 1496              		.size	CapSense_SetBitValue, .-CapSense_SetBitValue
 1497 0026 C046     		.section	.text.CapSense_ScanWidget,"ax",%progbits
 1498              		.align	2
 1499              		.global	CapSense_ScanWidget
 1500              		.code	16
 1501              		.thumb_func
 1502              		.type	CapSense_ScanWidget, %function
 1503              	CapSense_ScanWidget:
 1504              	.LFB40:
ARM GAS  C:\Users\kbuchi\AppData\Local\Temp\ccOUPaAd.s 			page 61


 621:.\Generated_Source\PSoC4/CapSense.c **** {
 1505              		.loc 1 621 0
 1506              		.cfi_startproc
 1507              	.LVL188:
 1508 0000 F0B5     		push	{r4, r5, r6, r7, lr}
 1509              		.cfi_def_cfa_offset 20
 1510              		.cfi_offset 4, -20
 1511              		.cfi_offset 5, -16
 1512              		.cfi_offset 6, -12
 1513              		.cfi_offset 7, -8
 1514              		.cfi_offset 14, -4
 1515 0002 4746     		mov	r7, r8
 1516 0004 80B4     		push	{r7}
 1517              		.cfi_def_cfa_offset 24
 1518              		.cfi_offset 8, -24
 627:.\Generated_Source\PSoC4/CapSense.c **** 	CapSense_sensorIndex = CapSense_rawDataIndex[widget];
 1519              		.loc 1 627 0
 1520 0006 1F4B     		ldr	r3, .L106
 1521 0008 1F5C     		ldrb	r7, [r3, r0]
 1522 000a 1F4B     		ldr	r3, .L106+4
 1523 000c 1F74     		strb	r7, [r3, #16]
 630:.\Generated_Source\PSoC4/CapSense.c **** 	sensorsPerWidget = CapSense_numberOfSensors[widget];
 1524              		.loc 1 630 0
 1525 000e 1F4B     		ldr	r3, .L106+8
 1526 0010 1B5C     		ldrb	r3, [r3, r0]
 1527              	.LVL189:
 633:.\Generated_Source\PSoC4/CapSense.c **** 	if(sensorsPerWidget == 0u)
 1528              		.loc 1 633 0
 1529 0012 002B     		cmp	r3, #0
 1530 0014 00D1     		bne	.L97
 635:.\Generated_Source\PSoC4/CapSense.c **** 		sensorsPerWidget = 1u;
 1531              		.loc 1 635 0
 1532 0016 0123     		mov	r3, #1
 1533              	.LVL190:
 1534              	.L97:
 639:.\Generated_Source\PSoC4/CapSense.c **** 	lastSensor = (CapSense_rawDataIndex[widget] + sensorsPerWidget) - 1u;
 1535              		.loc 1 639 0
 1536 0018 FF18     		add	r7, r7, r3
 1537 001a 013F     		sub	r7, r7, #1
 1538              	.LVL191:
 642:.\Generated_Source\PSoC4/CapSense.c **** 	for(snsIndex = 0u; snsIndex < CapSense_TOTAL_SENSOR_MASK; snsIndex++)
 1539              		.loc 1 642 0
 1540 001c 0023     		mov	r3, #0
 1541              	.LVL192:
 1542 001e 05E0     		b	.L98
 1543              	.LVL193:
 1544              	.L99:
 645:.\Generated_Source\PSoC4/CapSense.c **** 		CapSense_sensorEnableMaskBackup[snsIndex] = CapSense_sensorEnableMask[snsIndex];
 1545              		.loc 1 645 0 discriminator 2
 1546 0020 1B49     		ldr	r1, .L106+12
 1547 0022 CA18     		add	r2, r1, r3
 1548 0024 1279     		ldrb	r2, [r2, #4]
 1549 0026 1B49     		ldr	r1, .L106+16
 1550 0028 CA54     		strb	r2, [r1, r3]
 642:.\Generated_Source\PSoC4/CapSense.c **** 	for(snsIndex = 0u; snsIndex < CapSense_TOTAL_SENSOR_MASK; snsIndex++)
 1551              		.loc 1 642 0 discriminator 2
 1552 002a 0133     		add	r3, r3, #1
ARM GAS  C:\Users\kbuchi\AppData\Local\Temp\ccOUPaAd.s 			page 62


 1553              	.LVL194:
 1554              	.L98:
 642:.\Generated_Source\PSoC4/CapSense.c **** 	for(snsIndex = 0u; snsIndex < CapSense_TOTAL_SENSOR_MASK; snsIndex++)
 1555              		.loc 1 642 0 is_stmt 0 discriminator 1
 1556 002c 002B     		cmp	r3, #0
 1557 002e F7D0     		beq	.L99
 1558 0030 0024     		mov	r4, #0
 652:.\Generated_Source\PSoC4/CapSense.c **** 	    if((snsIndex >= CapSense_sensorIndex) && (snsIndex <= lastSensor))
 1559              		.loc 1 652 0 is_stmt 1
 1560 0032 154D     		ldr	r5, .L106+4
 660:.\Generated_Source\PSoC4/CapSense.c **** 		    CapSense_SetBitValue(CapSense_sensorEnableMask, snsIndex, 0u);
 1561              		.loc 1 660 0
 1562 0034 164E     		ldr	r6, .L106+12
 1563 0036 0436     		add	r6, r6, #4
 655:.\Generated_Source\PSoC4/CapSense.c **** 			CapSense_SetBitValue(CapSense_sensorEnableMask, snsIndex, 1u);
 1564              		.loc 1 655 0
 1565 0038 B046     		mov	r8, r6
 1566 003a 11E0     		b	.L100
 1567              	.LVL195:
 1568              	.L103:
 652:.\Generated_Source\PSoC4/CapSense.c **** 	    if((snsIndex >= CapSense_sensorIndex) && (snsIndex <= lastSensor))
 1569              		.loc 1 652 0
 1570 003c 2B7C     		ldrb	r3, [r5, #16]
 1571 003e DBB2     		uxtb	r3, r3
 1572 0040 A342     		cmp	r3, r4
 1573 0042 07D8     		bhi	.L101
 652:.\Generated_Source\PSoC4/CapSense.c **** 	    if((snsIndex >= CapSense_sensorIndex) && (snsIndex <= lastSensor))
 1574              		.loc 1 652 0 is_stmt 0 discriminator 1
 1575 0044 BC42     		cmp	r4, r7
 1576 0046 05D8     		bhi	.L101
 655:.\Generated_Source\PSoC4/CapSense.c **** 			CapSense_SetBitValue(CapSense_sensorEnableMask, snsIndex, 1u);
 1577              		.loc 1 655 0 is_stmt 1
 1578 0048 4046     		mov	r0, r8
 1579 004a 211C     		mov	r1, r4
 1580 004c 0122     		mov	r2, #1
 1581 004e FFF7FEFF 		bl	CapSense_SetBitValue
 1582              	.LVL196:
 1583 0052 04E0     		b	.L102
 1584              	.L101:
 660:.\Generated_Source\PSoC4/CapSense.c **** 		    CapSense_SetBitValue(CapSense_sensorEnableMask, snsIndex, 0u);
 1585              		.loc 1 660 0
 1586 0054 301C     		mov	r0, r6
 1587 0056 211C     		mov	r1, r4
 1588 0058 0022     		mov	r2, #0
 1589 005a FFF7FEFF 		bl	CapSense_SetBitValue
 1590              	.LVL197:
 1591              	.L102:
 649:.\Generated_Source\PSoC4/CapSense.c **** 	for(snsIndex = 0u; snsIndex < CapSense_TOTAL_SENSOR_COUNT; snsIndex++)
 1592              		.loc 1 649 0
 1593 005e 0134     		add	r4, r4, #1
 1594              	.LVL198:
 1595              	.L100:
 649:.\Generated_Source\PSoC4/CapSense.c **** 	for(snsIndex = 0u; snsIndex < CapSense_TOTAL_SENSOR_COUNT; snsIndex++)
 1596              		.loc 1 649 0 is_stmt 0 discriminator 1
 1597 0060 042C     		cmp	r4, #4
 1598 0062 EBD9     		bls	.L103
 665:.\Generated_Source\PSoC4/CapSense.c ****     if(CapSense_sensorIndex < CapSense_TOTAL_SENSOR_COUNT)
ARM GAS  C:\Users\kbuchi\AppData\Local\Temp\ccOUPaAd.s 			page 63


 1599              		.loc 1 665 0 is_stmt 1
 1600 0064 084B     		ldr	r3, .L106+4
 1601 0066 1B7C     		ldrb	r3, [r3, #16]
 1602 0068 DBB2     		uxtb	r3, r3
 1603 006a 042B     		cmp	r3, #4
 1604 006c 06D8     		bhi	.L96
 668:.\Generated_Source\PSoC4/CapSense.c **** 		CapSense_csdStatusVar = (CapSense_SW_STS_BUSY | CapSense_SW_CTRL_WIDGET_SCAN);
 1605              		.loc 1 668 0
 1606 006e 064B     		ldr	r3, .L106+4
 1607 0070 4122     		mov	r2, #65
 1608 0072 1A70     		strb	r2, [r3]
 670:.\Generated_Source\PSoC4/CapSense.c ****         CapSense_PreScan((uint32)CapSense_sensorIndex);
 1609              		.loc 1 670 0
 1610 0074 187C     		ldrb	r0, [r3, #16]
 1611 0076 C0B2     		uxtb	r0, r0
 1612 0078 FFF7FEFF 		bl	CapSense_PreScan
 1613              	.LVL199:
 1614              	.L96:
 672:.\Generated_Source\PSoC4/CapSense.c **** }
 1615              		.loc 1 672 0
 1616              		@ sp needed
 1617              	.LVL200:
 1618              	.LVL201:
 1619 007c 04BC     		pop	{r2}
 1620 007e 9046     		mov	r8, r2
 1621 0080 F0BD     		pop	{r4, r5, r6, r7, pc}
 1622              	.L107:
 1623 0082 C046     		.align	2
 1624              	.L106:
 1625 0084 00000000 		.word	CapSense_rawDataIndex
 1626 0088 00000000 		.word	.LANCHOR0
 1627 008c 00000000 		.word	CapSense_numberOfSensors
 1628 0090 00000000 		.word	.LANCHOR1
 1629 0094 00000000 		.word	CapSense_sensorEnableMaskBackup
 1630              		.cfi_endproc
 1631              	.LFE40:
 1632              		.size	CapSense_ScanWidget, .-CapSense_ScanWidget
 1633              		.section	.text.CapSense_GetSenseClkDivider,"ax",%progbits
 1634              		.align	2
 1635              		.global	CapSense_GetSenseClkDivider
 1636              		.code	16
 1637              		.thumb_func
 1638              		.type	CapSense_GetSenseClkDivider, %function
 1639              	CapSense_GetSenseClkDivider:
 1640              	.LFB60:
1809:.\Generated_Source\PSoC4/CapSense.c **** 
1810:.\Generated_Source\PSoC4/CapSense.c **** 
1811:.\Generated_Source\PSoC4/CapSense.c **** 
1812:.\Generated_Source\PSoC4/CapSense.c **** /*******************************************************************************
1813:.\Generated_Source\PSoC4/CapSense.c **** * Function Name: CapSense_GetSenseClkDivider
1814:.\Generated_Source\PSoC4/CapSense.c **** ********************************************************************************
1815:.\Generated_Source\PSoC4/CapSense.c **** *
1816:.\Generated_Source\PSoC4/CapSense.c **** * Summary:
1817:.\Generated_Source\PSoC4/CapSense.c **** *  This API returns a value of the sense clock divider for the  sensor.
1818:.\Generated_Source\PSoC4/CapSense.c **** *
1819:.\Generated_Source\PSoC4/CapSense.c **** * Parameters:
1820:.\Generated_Source\PSoC4/CapSense.c **** *  sensor: sensor index. The index value can be 
ARM GAS  C:\Users\kbuchi\AppData\Local\Temp\ccOUPaAd.s 			page 64


1821:.\Generated_Source\PSoC4/CapSense.c **** *  from 0 to (CapSense_TOTAL_SENSOR_COUNT-1).
1822:.\Generated_Source\PSoC4/CapSense.c **** *
1823:.\Generated_Source\PSoC4/CapSense.c **** * Return:
1824:.\Generated_Source\PSoC4/CapSense.c **** *  This API returns the sense clock divider of the sensor. 
1825:.\Generated_Source\PSoC4/CapSense.c **** *
1826:.\Generated_Source\PSoC4/CapSense.c **** * Global Variables:
1827:.\Generated_Source\PSoC4/CapSense.c **** *  CapSense_senseClkDividerVal[] - stores the sense clock divider values.
1828:.\Generated_Source\PSoC4/CapSense.c **** * 
1829:.\Generated_Source\PSoC4/CapSense.c **** * Side Effects:
1830:.\Generated_Source\PSoC4/CapSense.c **** *  None
1831:.\Generated_Source\PSoC4/CapSense.c **** *
1832:.\Generated_Source\PSoC4/CapSense.c **** *******************************************************************************/
1833:.\Generated_Source\PSoC4/CapSense.c **** uint32 CapSense_GetSenseClkDivider(uint32 sensor)
1834:.\Generated_Source\PSoC4/CapSense.c **** {
 1641              		.loc 1 1834 0
 1642              		.cfi_startproc
 1643              	.LVL202:
1835:.\Generated_Source\PSoC4/CapSense.c **** 	#if(0u != CapSense_MULTIPLE_FREQUENCY_SET)
1836:.\Generated_Source\PSoC4/CapSense.c **** 		return((uint32)CapSense_senseClkDividerVal[sensor]);
 1644              		.loc 1 1836 0
 1645 0000 014B     		ldr	r3, .L109
 1646 0002 185C     		ldrb	r0, [r3, r0]
 1647              	.LVL203:
1837:.\Generated_Source\PSoC4/CapSense.c **** 	#else
1838:.\Generated_Source\PSoC4/CapSense.c **** 		return((uint32)CapSense_senseClkDividerVal);
1839:.\Generated_Source\PSoC4/CapSense.c **** 	#endif /* (0u != CapSense_MULTIPLE_FREQUENCY_SET) */
1840:.\Generated_Source\PSoC4/CapSense.c **** }
 1648              		.loc 1 1840 0
 1649              		@ sp needed
 1650 0004 7047     		bx	lr
 1651              	.L110:
 1652 0006 C046     		.align	2
 1653              	.L109:
 1654 0008 00000000 		.word	CapSense_senseClkDividerVal
 1655              		.cfi_endproc
 1656              	.LFE60:
 1657              		.size	CapSense_GetSenseClkDivider, .-CapSense_GetSenseClkDivider
 1658              		.section	.text.CapSense_SetSenseClkDivider,"ax",%progbits
 1659              		.align	2
 1660              		.global	CapSense_SetSenseClkDivider
 1661              		.code	16
 1662              		.thumb_func
 1663              		.type	CapSense_SetSenseClkDivider, %function
 1664              	CapSense_SetSenseClkDivider:
 1665              	.LFB61:
1841:.\Generated_Source\PSoC4/CapSense.c **** 
1842:.\Generated_Source\PSoC4/CapSense.c **** #if (CapSense_TUNING_METHOD != CapSense__TUNING_NONE)
1843:.\Generated_Source\PSoC4/CapSense.c **** 	/*******************************************************************************
1844:.\Generated_Source\PSoC4/CapSense.c **** 	* Function Name: CapSense_SetSenseClkDivider
1845:.\Generated_Source\PSoC4/CapSense.c **** 	********************************************************************************
1846:.\Generated_Source\PSoC4/CapSense.c **** 	*
1847:.\Generated_Source\PSoC4/CapSense.c **** 	* Summary:
1848:.\Generated_Source\PSoC4/CapSense.c **** 	*  This API sets a value of the sense clock divider for the  sensor. 
1849:.\Generated_Source\PSoC4/CapSense.c **** 	*
1850:.\Generated_Source\PSoC4/CapSense.c **** 	* Parameters:
1851:.\Generated_Source\PSoC4/CapSense.c **** 	*  sensor:  Sensor index.
1852:.\Generated_Source\PSoC4/CapSense.c **** 	*  senseClk: represents the sense clock value.
ARM GAS  C:\Users\kbuchi\AppData\Local\Temp\ccOUPaAd.s 			page 65


1853:.\Generated_Source\PSoC4/CapSense.c **** 	*
1854:.\Generated_Source\PSoC4/CapSense.c **** 	* Return:
1855:.\Generated_Source\PSoC4/CapSense.c **** 	*  None.
1856:.\Generated_Source\PSoC4/CapSense.c **** 	*
1857:.\Generated_Source\PSoC4/CapSense.c **** 	* Global Variables:
1858:.\Generated_Source\PSoC4/CapSense.c **** 	*  CapSense_senseClkDividerVal[] - stores the sense clock divider values.
1859:.\Generated_Source\PSoC4/CapSense.c **** 	* 
1860:.\Generated_Source\PSoC4/CapSense.c **** 	* Side Effects:
1861:.\Generated_Source\PSoC4/CapSense.c **** 	*  None
1862:.\Generated_Source\PSoC4/CapSense.c **** 	*
1863:.\Generated_Source\PSoC4/CapSense.c **** 	*******************************************************************************/
1864:.\Generated_Source\PSoC4/CapSense.c **** 	void CapSense_SetSenseClkDivider(uint32 sensor, uint32 senseClk)
1865:.\Generated_Source\PSoC4/CapSense.c **** 	{
 1666              		.loc 1 1865 0
 1667              		.cfi_startproc
 1668              	.LVL204:
1866:.\Generated_Source\PSoC4/CapSense.c **** 		#if(0u != CapSense_MULTIPLE_FREQUENCY_SET)
1867:.\Generated_Source\PSoC4/CapSense.c **** 			CapSense_senseClkDividerVal[sensor] = (uint8)senseClk;
 1669              		.loc 1 1867 0
 1670 0000 014B     		ldr	r3, .L112
 1671 0002 1954     		strb	r1, [r3, r0]
1868:.\Generated_Source\PSoC4/CapSense.c **** 		#else
1869:.\Generated_Source\PSoC4/CapSense.c **** 			CapSense_senseClkDividerVal = (uint8)senseClk;
1870:.\Generated_Source\PSoC4/CapSense.c **** 		#endif /* (0u != CapSense_MULTIPLE_FREQUENCY_SET) */
1871:.\Generated_Source\PSoC4/CapSense.c **** 	}
 1672              		.loc 1 1871 0
 1673              		@ sp needed
 1674 0004 7047     		bx	lr
 1675              	.L113:
 1676 0006 C046     		.align	2
 1677              	.L112:
 1678 0008 00000000 		.word	CapSense_senseClkDividerVal
 1679              		.cfi_endproc
 1680              	.LFE61:
 1681              		.size	CapSense_SetSenseClkDivider, .-CapSense_SetSenseClkDivider
 1682              		.section	.text.CapSense_GetModulatorClkDivider,"ax",%progbits
 1683              		.align	2
 1684              		.global	CapSense_GetModulatorClkDivider
 1685              		.code	16
 1686              		.thumb_func
 1687              		.type	CapSense_GetModulatorClkDivider, %function
 1688              	CapSense_GetModulatorClkDivider:
 1689              	.LFB62:
1872:.\Generated_Source\PSoC4/CapSense.c **** #endif /* (CapSense_TUNING_METHOD != CapSense__TUNING_NONE) */
1873:.\Generated_Source\PSoC4/CapSense.c **** 
1874:.\Generated_Source\PSoC4/CapSense.c **** 
1875:.\Generated_Source\PSoC4/CapSense.c **** /*******************************************************************************
1876:.\Generated_Source\PSoC4/CapSense.c **** * Function Name: CapSense_GetModulatorClkDivider
1877:.\Generated_Source\PSoC4/CapSense.c **** ********************************************************************************
1878:.\Generated_Source\PSoC4/CapSense.c **** *
1879:.\Generated_Source\PSoC4/CapSense.c **** * Summary:
1880:.\Generated_Source\PSoC4/CapSense.c **** *  This API returns a value of the modulator sample clock divider for the  sensor.
1881:.\Generated_Source\PSoC4/CapSense.c **** *
1882:.\Generated_Source\PSoC4/CapSense.c **** * Parameters:
1883:.\Generated_Source\PSoC4/CapSense.c **** *  sensor: sensor index. The value of index can be 
1884:.\Generated_Source\PSoC4/CapSense.c **** *  from 0 to (CapSense_TOTAL_SENSOR_COUNT-1).
1885:.\Generated_Source\PSoC4/CapSense.c **** *
ARM GAS  C:\Users\kbuchi\AppData\Local\Temp\ccOUPaAd.s 			page 66


1886:.\Generated_Source\PSoC4/CapSense.c **** * Return:
1887:.\Generated_Source\PSoC4/CapSense.c **** *  This API returns the modulator sample clock divider for the  sensor.
1888:.\Generated_Source\PSoC4/CapSense.c **** *
1889:.\Generated_Source\PSoC4/CapSense.c **** * Global Variables:
1890:.\Generated_Source\PSoC4/CapSense.c **** *  CapSense_sampleClkDividerVal[] - stores the modulator sample divider values.
1891:.\Generated_Source\PSoC4/CapSense.c **** * 
1892:.\Generated_Source\PSoC4/CapSense.c **** * Side Effects:
1893:.\Generated_Source\PSoC4/CapSense.c **** *  None
1894:.\Generated_Source\PSoC4/CapSense.c **** *
1895:.\Generated_Source\PSoC4/CapSense.c **** *******************************************************************************/
1896:.\Generated_Source\PSoC4/CapSense.c **** uint32 CapSense_GetModulatorClkDivider(uint32 sensor)
1897:.\Generated_Source\PSoC4/CapSense.c **** {
 1690              		.loc 1 1897 0
 1691              		.cfi_startproc
 1692              	.LVL205:
1898:.\Generated_Source\PSoC4/CapSense.c **** 	#if(0u != CapSense_MULTIPLE_FREQUENCY_SET)
1899:.\Generated_Source\PSoC4/CapSense.c **** 		return((uint32)CapSense_sampleClkDividerVal[sensor]);
 1693              		.loc 1 1899 0
 1694 0000 014B     		ldr	r3, .L115
 1695 0002 185C     		ldrb	r0, [r3, r0]
 1696              	.LVL206:
1900:.\Generated_Source\PSoC4/CapSense.c **** 	#else
1901:.\Generated_Source\PSoC4/CapSense.c **** 		return((uint32)CapSense_sampleClkDividerVal);
1902:.\Generated_Source\PSoC4/CapSense.c **** 	#endif /* (0u != CapSense_MULTIPLE_FREQUENCY_SET) */
1903:.\Generated_Source\PSoC4/CapSense.c **** }
 1697              		.loc 1 1903 0
 1698              		@ sp needed
 1699 0004 7047     		bx	lr
 1700              	.L116:
 1701 0006 C046     		.align	2
 1702              	.L115:
 1703 0008 00000000 		.word	CapSense_sampleClkDividerVal
 1704              		.cfi_endproc
 1705              	.LFE62:
 1706              		.size	CapSense_GetModulatorClkDivider, .-CapSense_GetModulatorClkDivider
 1707              		.section	.text.CapSense_SetModulatorClkDivider,"ax",%progbits
 1708              		.align	2
 1709              		.global	CapSense_SetModulatorClkDivider
 1710              		.code	16
 1711              		.thumb_func
 1712              		.type	CapSense_SetModulatorClkDivider, %function
 1713              	CapSense_SetModulatorClkDivider:
 1714              	.LFB63:
1904:.\Generated_Source\PSoC4/CapSense.c **** 
1905:.\Generated_Source\PSoC4/CapSense.c **** #if (CapSense_TUNING_METHOD != CapSense__TUNING_NONE)
1906:.\Generated_Source\PSoC4/CapSense.c **** 	/*******************************************************************************
1907:.\Generated_Source\PSoC4/CapSense.c **** 	* Function Name: CapSense_SetModulatorClkDivider
1908:.\Generated_Source\PSoC4/CapSense.c **** 	********************************************************************************
1909:.\Generated_Source\PSoC4/CapSense.c **** 	*
1910:.\Generated_Source\PSoC4/CapSense.c **** 	* Summary:
1911:.\Generated_Source\PSoC4/CapSense.c **** 	*  This API sets a value of the modulator sample clock divider for the  sensor.
1912:.\Generated_Source\PSoC4/CapSense.c **** 	*
1913:.\Generated_Source\PSoC4/CapSense.c **** 	* Parameters:
1914:.\Generated_Source\PSoC4/CapSense.c **** 	*  sensor:  Sensor index.
1915:.\Generated_Source\PSoC4/CapSense.c **** 	*  modulatorClk: represents the modulator sample clock value.
1916:.\Generated_Source\PSoC4/CapSense.c **** 	*
1917:.\Generated_Source\PSoC4/CapSense.c **** 	* Return:
ARM GAS  C:\Users\kbuchi\AppData\Local\Temp\ccOUPaAd.s 			page 67


1918:.\Generated_Source\PSoC4/CapSense.c **** 	*  None.
1919:.\Generated_Source\PSoC4/CapSense.c **** 	*
1920:.\Generated_Source\PSoC4/CapSense.c **** 	* Global Variables:
1921:.\Generated_Source\PSoC4/CapSense.c **** 	*  CapSense_sampleClkDividerVal[] - stores the modulator sample divider values.
1922:.\Generated_Source\PSoC4/CapSense.c **** 	* 
1923:.\Generated_Source\PSoC4/CapSense.c **** 	* Side Effects:
1924:.\Generated_Source\PSoC4/CapSense.c **** 	*  None
1925:.\Generated_Source\PSoC4/CapSense.c **** 	*
1926:.\Generated_Source\PSoC4/CapSense.c **** 	*******************************************************************************/
1927:.\Generated_Source\PSoC4/CapSense.c **** 	void CapSense_SetModulatorClkDivider(uint32 sensor, uint32 modulatorClk)
1928:.\Generated_Source\PSoC4/CapSense.c **** 	{
 1715              		.loc 1 1928 0
 1716              		.cfi_startproc
 1717              	.LVL207:
1929:.\Generated_Source\PSoC4/CapSense.c **** 		#if(0u != CapSense_MULTIPLE_FREQUENCY_SET)
1930:.\Generated_Source\PSoC4/CapSense.c **** 			CapSense_sampleClkDividerVal[sensor] = (uint8)modulatorClk;
 1718              		.loc 1 1930 0
 1719 0000 014B     		ldr	r3, .L118
 1720 0002 1954     		strb	r1, [r3, r0]
1931:.\Generated_Source\PSoC4/CapSense.c **** 		#else
1932:.\Generated_Source\PSoC4/CapSense.c **** 			CapSense_sampleClkDividerVal = (uint8)modulatorClk;
1933:.\Generated_Source\PSoC4/CapSense.c **** 		#endif /* (0u != CapSense_MULTIPLE_FREQUENCY_SET) */
1934:.\Generated_Source\PSoC4/CapSense.c **** 	}
 1721              		.loc 1 1934 0
 1722              		@ sp needed
 1723 0004 7047     		bx	lr
 1724              	.L119:
 1725 0006 C046     		.align	2
 1726              	.L118:
 1727 0008 00000000 		.word	CapSense_sampleClkDividerVal
 1728              		.cfi_endproc
 1729              	.LFE63:
 1730              		.size	CapSense_SetModulatorClkDivider, .-CapSense_SetModulatorClkDivider
 1731              		.section	.text.CapSense_GetModulationIDAC,"ax",%progbits
 1732              		.align	2
 1733              		.global	CapSense_GetModulationIDAC
 1734              		.code	16
 1735              		.thumb_func
 1736              		.type	CapSense_GetModulationIDAC, %function
 1737              	CapSense_GetModulationIDAC:
 1738              	.LFB64:
1935:.\Generated_Source\PSoC4/CapSense.c **** #endif /* (CapSense_TUNING_METHOD != CapSense__TUNING_NONE) */
1936:.\Generated_Source\PSoC4/CapSense.c **** 
1937:.\Generated_Source\PSoC4/CapSense.c **** /*******************************************************************************
1938:.\Generated_Source\PSoC4/CapSense.c **** * Function Name: CapSense_GetModulationIDAC
1939:.\Generated_Source\PSoC4/CapSense.c **** ********************************************************************************
1940:.\Generated_Source\PSoC4/CapSense.c **** *
1941:.\Generated_Source\PSoC4/CapSense.c **** * Summary:
1942:.\Generated_Source\PSoC4/CapSense.c **** *  This API returns a value of the modulation IDAC for the  sensor.
1943:.\Generated_Source\PSoC4/CapSense.c **** *
1944:.\Generated_Source\PSoC4/CapSense.c **** * Parameters:
1945:.\Generated_Source\PSoC4/CapSense.c **** *  sensor: sensor index. The index value can be 
1946:.\Generated_Source\PSoC4/CapSense.c **** *  from 0 to (CapSense_TOTAL_SENSOR_COUNT-1).
1947:.\Generated_Source\PSoC4/CapSense.c **** *
1948:.\Generated_Source\PSoC4/CapSense.c **** * Return:
1949:.\Generated_Source\PSoC4/CapSense.c **** *  This API returns the modulation IDAC of the sensor. 
1950:.\Generated_Source\PSoC4/CapSense.c **** *
ARM GAS  C:\Users\kbuchi\AppData\Local\Temp\ccOUPaAd.s 			page 68


1951:.\Generated_Source\PSoC4/CapSense.c **** * Global Variables:
1952:.\Generated_Source\PSoC4/CapSense.c **** *  CapSense_modulationIDAC[] - stores modulation IDAC values.
1953:.\Generated_Source\PSoC4/CapSense.c **** * 
1954:.\Generated_Source\PSoC4/CapSense.c **** * Side Effects:
1955:.\Generated_Source\PSoC4/CapSense.c **** *  None
1956:.\Generated_Source\PSoC4/CapSense.c **** *
1957:.\Generated_Source\PSoC4/CapSense.c **** *******************************************************************************/
1958:.\Generated_Source\PSoC4/CapSense.c **** uint32 CapSense_GetModulationIDAC(uint32 sensor)
1959:.\Generated_Source\PSoC4/CapSense.c **** {
 1739              		.loc 1 1959 0
 1740              		.cfi_startproc
 1741              	.LVL208:
1960:.\Generated_Source\PSoC4/CapSense.c **** 		return((uint32)CapSense_modulationIDAC[sensor]);
 1742              		.loc 1 1960 0
 1743 0000 014B     		ldr	r3, .L121
 1744 0002 185C     		ldrb	r0, [r3, r0]
 1745              	.LVL209:
1961:.\Generated_Source\PSoC4/CapSense.c **** }
 1746              		.loc 1 1961 0
 1747              		@ sp needed
 1748 0004 7047     		bx	lr
 1749              	.L122:
 1750 0006 C046     		.align	2
 1751              	.L121:
 1752 0008 00000000 		.word	CapSense_modulationIDAC
 1753              		.cfi_endproc
 1754              	.LFE64:
 1755              		.size	CapSense_GetModulationIDAC, .-CapSense_GetModulationIDAC
 1756              		.section	.text.CapSense_SetModulationIDAC,"ax",%progbits
 1757              		.align	2
 1758              		.global	CapSense_SetModulationIDAC
 1759              		.code	16
 1760              		.thumb_func
 1761              		.type	CapSense_SetModulationIDAC, %function
 1762              	CapSense_SetModulationIDAC:
 1763              	.LFB65:
1962:.\Generated_Source\PSoC4/CapSense.c **** 
1963:.\Generated_Source\PSoC4/CapSense.c **** #if (CapSense_TUNING_METHOD != CapSense__TUNING_NONE)
1964:.\Generated_Source\PSoC4/CapSense.c **** 	/*******************************************************************************
1965:.\Generated_Source\PSoC4/CapSense.c **** 	* Function Name: CapSense_SetModulationIDAC
1966:.\Generated_Source\PSoC4/CapSense.c **** 	********************************************************************************
1967:.\Generated_Source\PSoC4/CapSense.c **** 	*
1968:.\Generated_Source\PSoC4/CapSense.c **** 	* Summary:
1969:.\Generated_Source\PSoC4/CapSense.c **** 	*  This API sets a value of the modulation IDAC for the  sensor.
1970:.\Generated_Source\PSoC4/CapSense.c **** 	*
1971:.\Generated_Source\PSoC4/CapSense.c **** 	* Parameters:
1972:.\Generated_Source\PSoC4/CapSense.c **** 	*  sensor:  Sensor index.
1973:.\Generated_Source\PSoC4/CapSense.c **** 	*  compIdacValue: represents the modulation IDAC data register value.
1974:.\Generated_Source\PSoC4/CapSense.c **** 	*
1975:.\Generated_Source\PSoC4/CapSense.c **** 	* Return:
1976:.\Generated_Source\PSoC4/CapSense.c **** 	*  None.
1977:.\Generated_Source\PSoC4/CapSense.c **** 	*
1978:.\Generated_Source\PSoC4/CapSense.c **** 	* Global Variables:
1979:.\Generated_Source\PSoC4/CapSense.c **** 	*  CapSense_modulationIDAC[] - array with modulation IDAC values
1980:.\Generated_Source\PSoC4/CapSense.c **** 	* 
1981:.\Generated_Source\PSoC4/CapSense.c **** 	* Side Effects:
1982:.\Generated_Source\PSoC4/CapSense.c **** 	*  None
ARM GAS  C:\Users\kbuchi\AppData\Local\Temp\ccOUPaAd.s 			page 69


1983:.\Generated_Source\PSoC4/CapSense.c **** 	*
1984:.\Generated_Source\PSoC4/CapSense.c **** 	*******************************************************************************/
1985:.\Generated_Source\PSoC4/CapSense.c **** 	void CapSense_SetModulationIDAC(uint32 sensor, uint32 modIdacValue)
1986:.\Generated_Source\PSoC4/CapSense.c **** 	{
 1764              		.loc 1 1986 0
 1765              		.cfi_startproc
 1766              	.LVL210:
1987:.\Generated_Source\PSoC4/CapSense.c **** 		CapSense_modulationIDAC[sensor] = (uint8)modIdacValue;
 1767              		.loc 1 1987 0
 1768 0000 014B     		ldr	r3, .L124
 1769 0002 1954     		strb	r1, [r3, r0]
1988:.\Generated_Source\PSoC4/CapSense.c **** 	}
 1770              		.loc 1 1988 0
 1771              		@ sp needed
 1772 0004 7047     		bx	lr
 1773              	.L125:
 1774 0006 C046     		.align	2
 1775              	.L124:
 1776 0008 00000000 		.word	CapSense_modulationIDAC
 1777              		.cfi_endproc
 1778              	.LFE65:
 1779              		.size	CapSense_SetModulationIDAC, .-CapSense_SetModulationIDAC
 1780              		.section	.text.CapSense_GetCompensationIDAC,"ax",%progbits
 1781              		.align	2
 1782              		.global	CapSense_GetCompensationIDAC
 1783              		.code	16
 1784              		.thumb_func
 1785              		.type	CapSense_GetCompensationIDAC, %function
 1786              	CapSense_GetCompensationIDAC:
 1787              	.LFB66:
1989:.\Generated_Source\PSoC4/CapSense.c **** #endif /* (CapSense_TUNING_METHOD != CapSense__TUNING_NONE) */
1990:.\Generated_Source\PSoC4/CapSense.c **** 
1991:.\Generated_Source\PSoC4/CapSense.c **** 
1992:.\Generated_Source\PSoC4/CapSense.c **** #if(CapSense_IDAC_CNT > 1u)
1993:.\Generated_Source\PSoC4/CapSense.c **** 	/*******************************************************************************
1994:.\Generated_Source\PSoC4/CapSense.c **** 	* Function Name: CapSense_GetCompensationIDAC
1995:.\Generated_Source\PSoC4/CapSense.c **** 	********************************************************************************
1996:.\Generated_Source\PSoC4/CapSense.c **** 	*
1997:.\Generated_Source\PSoC4/CapSense.c **** 	* Summary:
1998:.\Generated_Source\PSoC4/CapSense.c **** 	*  This API returns a value of the compensation IDAC for the  sensor.
1999:.\Generated_Source\PSoC4/CapSense.c **** 	*
2000:.\Generated_Source\PSoC4/CapSense.c **** 	* Parameters:
2001:.\Generated_Source\PSoC4/CapSense.c **** 	*  sensor: sensor index. The index value can be 
2002:.\Generated_Source\PSoC4/CapSense.c **** 	*  from 0 to (CapSense_TOTAL_SENSOR_COUNT-1).
2003:.\Generated_Source\PSoC4/CapSense.c **** 	*
2004:.\Generated_Source\PSoC4/CapSense.c **** 	* Return:
2005:.\Generated_Source\PSoC4/CapSense.c **** 	*  This API returns the compensation IDAC of the sensor. 
2006:.\Generated_Source\PSoC4/CapSense.c **** 	*
2007:.\Generated_Source\PSoC4/CapSense.c **** 	* Global Variables:
2008:.\Generated_Source\PSoC4/CapSense.c **** 	*  CapSense_compensationIDAC[] - stores the compensation IDAC values.
2009:.\Generated_Source\PSoC4/CapSense.c **** 	* 
2010:.\Generated_Source\PSoC4/CapSense.c **** 	* Side Effects:
2011:.\Generated_Source\PSoC4/CapSense.c **** 	*  None
2012:.\Generated_Source\PSoC4/CapSense.c **** 	*
2013:.\Generated_Source\PSoC4/CapSense.c **** 	*******************************************************************************/
2014:.\Generated_Source\PSoC4/CapSense.c **** 	uint32 CapSense_GetCompensationIDAC(uint32 sensor)
2015:.\Generated_Source\PSoC4/CapSense.c **** 	{
ARM GAS  C:\Users\kbuchi\AppData\Local\Temp\ccOUPaAd.s 			page 70


 1788              		.loc 1 2015 0
 1789              		.cfi_startproc
 1790              	.LVL211:
2016:.\Generated_Source\PSoC4/CapSense.c **** 		return((uint32)CapSense_compensationIDAC[sensor]);
 1791              		.loc 1 2016 0
 1792 0000 014B     		ldr	r3, .L127
 1793 0002 185C     		ldrb	r0, [r3, r0]
 1794              	.LVL212:
2017:.\Generated_Source\PSoC4/CapSense.c **** 	}
 1795              		.loc 1 2017 0
 1796              		@ sp needed
 1797 0004 7047     		bx	lr
 1798              	.L128:
 1799 0006 C046     		.align	2
 1800              	.L127:
 1801 0008 00000000 		.word	CapSense_compensationIDAC
 1802              		.cfi_endproc
 1803              	.LFE66:
 1804              		.size	CapSense_GetCompensationIDAC, .-CapSense_GetCompensationIDAC
 1805              		.section	.text.CapSense_SetCompensationIDAC,"ax",%progbits
 1806              		.align	2
 1807              		.global	CapSense_SetCompensationIDAC
 1808              		.code	16
 1809              		.thumb_func
 1810              		.type	CapSense_SetCompensationIDAC, %function
 1811              	CapSense_SetCompensationIDAC:
 1812              	.LFB67:
2018:.\Generated_Source\PSoC4/CapSense.c **** #endif /* (CapSense_IDAC_CNT > 1u) */
2019:.\Generated_Source\PSoC4/CapSense.c **** 
2020:.\Generated_Source\PSoC4/CapSense.c **** 
2021:.\Generated_Source\PSoC4/CapSense.c **** #if((CapSense_TUNING_METHOD != CapSense__TUNING_NONE) && (CapSense_IDAC_CNT > 1u))
2022:.\Generated_Source\PSoC4/CapSense.c **** 	/*******************************************************************************
2023:.\Generated_Source\PSoC4/CapSense.c **** 	* Function Name: CapSense_SetCompensationIDAC
2024:.\Generated_Source\PSoC4/CapSense.c **** 	********************************************************************************
2025:.\Generated_Source\PSoC4/CapSense.c **** 	*
2026:.\Generated_Source\PSoC4/CapSense.c **** 	* Summary:
2027:.\Generated_Source\PSoC4/CapSense.c **** 	*  This API sets a value of compensation IDAC for the  sensor.
2028:.\Generated_Source\PSoC4/CapSense.c **** 	*
2029:.\Generated_Source\PSoC4/CapSense.c **** 	* Parameters:
2030:.\Generated_Source\PSoC4/CapSense.c **** 	*  sensor:  Sensor index.
2031:.\Generated_Source\PSoC4/CapSense.c **** 	*  compIdacValue: represents the compensation IDAC data register value.
2032:.\Generated_Source\PSoC4/CapSense.c **** 	*
2033:.\Generated_Source\PSoC4/CapSense.c **** 	* Return:
2034:.\Generated_Source\PSoC4/CapSense.c **** 	*  None.
2035:.\Generated_Source\PSoC4/CapSense.c **** 	*
2036:.\Generated_Source\PSoC4/CapSense.c **** 	* Global Variables:
2037:.\Generated_Source\PSoC4/CapSense.c **** 	*  CapSense_compensationIDAC[] - an array with compensation IDAC values
2038:.\Generated_Source\PSoC4/CapSense.c **** 	* 
2039:.\Generated_Source\PSoC4/CapSense.c **** 	* Side Effects:
2040:.\Generated_Source\PSoC4/CapSense.c **** 	*  None
2041:.\Generated_Source\PSoC4/CapSense.c **** 	*
2042:.\Generated_Source\PSoC4/CapSense.c **** 	*******************************************************************************/
2043:.\Generated_Source\PSoC4/CapSense.c **** 	void CapSense_SetCompensationIDAC(uint32 sensor, uint32 compIdacValue)
2044:.\Generated_Source\PSoC4/CapSense.c **** 	{
 1813              		.loc 1 2044 0
 1814              		.cfi_startproc
 1815              	.LVL213:
ARM GAS  C:\Users\kbuchi\AppData\Local\Temp\ccOUPaAd.s 			page 71


2045:.\Generated_Source\PSoC4/CapSense.c **** 		CapSense_compensationIDAC[sensor] = (uint8)compIdacValue;
 1816              		.loc 1 2045 0
 1817 0000 014B     		ldr	r3, .L130
 1818 0002 1954     		strb	r1, [r3, r0]
2046:.\Generated_Source\PSoC4/CapSense.c **** 	}
 1819              		.loc 1 2046 0
 1820              		@ sp needed
 1821 0004 7047     		bx	lr
 1822              	.L131:
 1823 0006 C046     		.align	2
 1824              	.L130:
 1825 0008 00000000 		.word	CapSense_compensationIDAC
 1826              		.cfi_endproc
 1827              	.LFE67:
 1828              		.size	CapSense_SetCompensationIDAC, .-CapSense_SetCompensationIDAC
 1829              		.section	.text.CapSense_GetIDACRange,"ax",%progbits
 1830              		.align	2
 1831              		.global	CapSense_GetIDACRange
 1832              		.code	16
 1833              		.thumb_func
 1834              		.type	CapSense_GetIDACRange, %function
 1835              	CapSense_GetIDACRange:
 1836              	.LFB68:
2047:.\Generated_Source\PSoC4/CapSense.c **** #endif /* ((CapSense_TUNING_METHOD != CapSense__TUNING_NONE) && (CapSense_IDAC_CNT > 1u)) */
2048:.\Generated_Source\PSoC4/CapSense.c **** 
2049:.\Generated_Source\PSoC4/CapSense.c **** /*******************************************************************************
2050:.\Generated_Source\PSoC4/CapSense.c **** * Function Name: CapSense_GetIDACRange
2051:.\Generated_Source\PSoC4/CapSense.c **** ********************************************************************************
2052:.\Generated_Source\PSoC4/CapSense.c **** *
2053:.\Generated_Source\PSoC4/CapSense.c **** * Summary:
2054:.\Generated_Source\PSoC4/CapSense.c **** *  This API returns a value that indicates the IDAC range used by the 
2055:.\Generated_Source\PSoC4/CapSense.c **** *  component to scan sensors. The IDAC range is common for all the sensors.
2056:.\Generated_Source\PSoC4/CapSense.c **** *
2057:.\Generated_Source\PSoC4/CapSense.c **** * Parameters:
2058:.\Generated_Source\PSoC4/CapSense.c **** *  None
2059:.\Generated_Source\PSoC4/CapSense.c **** *
2060:.\Generated_Source\PSoC4/CapSense.c **** * Return:
2061:.\Generated_Source\PSoC4/CapSense.c **** *  This API Returns a value that indicates the IDAC range:
2062:.\Generated_Source\PSoC4/CapSense.c **** *      0 - IDAC range set to 4x
2063:.\Generated_Source\PSoC4/CapSense.c **** *      1 - IDAC range set to 8x
2064:.\Generated_Source\PSoC4/CapSense.c **** *
2065:.\Generated_Source\PSoC4/CapSense.c **** * Global Variables:
2066:.\Generated_Source\PSoC4/CapSense.c **** *  None
2067:.\Generated_Source\PSoC4/CapSense.c **** * 
