ARM GAS  C:\Users\kbuchi\AppData\Local\Temp\ccBBqH9f.s 			page 1


   1              		.cpu cortex-m0
   2              		.fpu softvfp
   3              		.eabi_attribute 20, 1
   4              		.eabi_attribute 21, 1
   5              		.eabi_attribute 23, 3
   6              		.eabi_attribute 24, 1
   7              		.eabi_attribute 25, 1
   8              		.eabi_attribute 26, 1
   9              		.eabi_attribute 30, 1
  10              		.eabi_attribute 34, 0
  11              		.eabi_attribute 18, 4
  12              		.code	16
  13              		.file	"cyfitter_cfg.c"
  14              		.text
  15              	.Ltext0:
  16              		.cfi_sections	.debug_frame
  17              		.section	.text.cfg_write_bytes32,"ax",%progbits
  18              		.align	2
  19              		.code	16
  20              		.thumb_func
  21              		.type	cfg_write_bytes32, %function
  22              	cfg_write_bytes32:
  23              	.LFB3:
  24              		.file 1 ".\\Generated_Source\\PSoC4\\cyfitter_cfg.c"
   1:.\Generated_Source\PSoC4/cyfitter_cfg.c **** /*******************************************************************************
   2:.\Generated_Source\PSoC4/cyfitter_cfg.c **** * FILENAME: cyfitter_cfg.c
   3:.\Generated_Source\PSoC4/cyfitter_cfg.c **** * 
   4:.\Generated_Source\PSoC4/cyfitter_cfg.c **** * PSoC Creator  3.2
   5:.\Generated_Source\PSoC4/cyfitter_cfg.c **** *
   6:.\Generated_Source\PSoC4/cyfitter_cfg.c **** * DESCRIPTION:
   7:.\Generated_Source\PSoC4/cyfitter_cfg.c **** * This file contains device initialization code.
   8:.\Generated_Source\PSoC4/cyfitter_cfg.c **** * Except for the user defined sections in CyClockStartupError(), this file should not be modified.
   9:.\Generated_Source\PSoC4/cyfitter_cfg.c **** * This file is automatically generated by PSoC Creator.
  10:.\Generated_Source\PSoC4/cyfitter_cfg.c **** *
  11:.\Generated_Source\PSoC4/cyfitter_cfg.c **** ********************************************************************************
  12:.\Generated_Source\PSoC4/cyfitter_cfg.c **** * Copyright (c) 2007-2015 Cypress Semiconductor.  All rights reserved.
  13:.\Generated_Source\PSoC4/cyfitter_cfg.c **** * You may use this file only in accordance with the license, terms, conditions, 
  14:.\Generated_Source\PSoC4/cyfitter_cfg.c **** * disclaimers, and limitations in the end user license agreement accompanying 
  15:.\Generated_Source\PSoC4/cyfitter_cfg.c **** * the software package with which this file was provided.
  16:.\Generated_Source\PSoC4/cyfitter_cfg.c **** ********************************************************************************/
  17:.\Generated_Source\PSoC4/cyfitter_cfg.c **** 
  18:.\Generated_Source\PSoC4/cyfitter_cfg.c **** #include <string.h>
  19:.\Generated_Source\PSoC4/cyfitter_cfg.c **** #include "cytypes.h"
  20:.\Generated_Source\PSoC4/cyfitter_cfg.c **** #include "cydevice_trm.h"
  21:.\Generated_Source\PSoC4/cyfitter_cfg.c **** #include "cyfitter.h"
  22:.\Generated_Source\PSoC4/cyfitter_cfg.c **** #include "CyLib.h"
  23:.\Generated_Source\PSoC4/cyfitter_cfg.c **** #include "CyLFClk.h"
  24:.\Generated_Source\PSoC4/cyfitter_cfg.c **** #include "cyfitter_cfg.h"
  25:.\Generated_Source\PSoC4/cyfitter_cfg.c **** 
  26:.\Generated_Source\PSoC4/cyfitter_cfg.c **** 
  27:.\Generated_Source\PSoC4/cyfitter_cfg.c **** #if defined(__GNUC__) || defined(__ARMCC_VERSION)
  28:.\Generated_Source\PSoC4/cyfitter_cfg.c ****     #define CYPACKED 
  29:.\Generated_Source\PSoC4/cyfitter_cfg.c ****     #define CYPACKED_ATTR __attribute__ ((packed))
  30:.\Generated_Source\PSoC4/cyfitter_cfg.c ****     #define CYALIGNED __attribute__ ((aligned))
  31:.\Generated_Source\PSoC4/cyfitter_cfg.c ****     #define CY_CFG_UNUSED __attribute__ ((unused))
  32:.\Generated_Source\PSoC4/cyfitter_cfg.c ****     #define CY_CFG_SECTION __attribute__ ((section(".psocinit")))
  33:.\Generated_Source\PSoC4/cyfitter_cfg.c ****     
ARM GAS  C:\Users\kbuchi\AppData\Local\Temp\ccBBqH9f.s 			page 2


  34:.\Generated_Source\PSoC4/cyfitter_cfg.c ****     #if defined(__ARMCC_VERSION)
  35:.\Generated_Source\PSoC4/cyfitter_cfg.c ****         #define CY_CFG_MEMORY_BARRIER() __memory_changed()
  36:.\Generated_Source\PSoC4/cyfitter_cfg.c ****     #else
  37:.\Generated_Source\PSoC4/cyfitter_cfg.c ****         #define CY_CFG_MEMORY_BARRIER() __sync_synchronize()
  38:.\Generated_Source\PSoC4/cyfitter_cfg.c ****     #endif
  39:.\Generated_Source\PSoC4/cyfitter_cfg.c ****     
  40:.\Generated_Source\PSoC4/cyfitter_cfg.c **** #elif defined(__ICCARM__)
  41:.\Generated_Source\PSoC4/cyfitter_cfg.c ****     #include <intrinsics.h>
  42:.\Generated_Source\PSoC4/cyfitter_cfg.c **** 
  43:.\Generated_Source\PSoC4/cyfitter_cfg.c ****     #define CYPACKED __packed
  44:.\Generated_Source\PSoC4/cyfitter_cfg.c ****     #define CYPACKED_ATTR 
  45:.\Generated_Source\PSoC4/cyfitter_cfg.c ****     #define CYALIGNED _Pragma("data_alignment=4")
  46:.\Generated_Source\PSoC4/cyfitter_cfg.c ****     #define CY_CFG_UNUSED _Pragma("diag_suppress=Pe177")
  47:.\Generated_Source\PSoC4/cyfitter_cfg.c ****     #define CY_CFG_SECTION _Pragma("location=\".psocinit\"")
  48:.\Generated_Source\PSoC4/cyfitter_cfg.c ****     
  49:.\Generated_Source\PSoC4/cyfitter_cfg.c ****     #define CY_CFG_MEMORY_BARRIER() __DMB()
  50:.\Generated_Source\PSoC4/cyfitter_cfg.c ****     
  51:.\Generated_Source\PSoC4/cyfitter_cfg.c **** #else
  52:.\Generated_Source\PSoC4/cyfitter_cfg.c ****     #error Unsupported toolchain
  53:.\Generated_Source\PSoC4/cyfitter_cfg.c **** #endif
  54:.\Generated_Source\PSoC4/cyfitter_cfg.c **** 
  55:.\Generated_Source\PSoC4/cyfitter_cfg.c **** 
  56:.\Generated_Source\PSoC4/cyfitter_cfg.c **** CY_CFG_UNUSED
  57:.\Generated_Source\PSoC4/cyfitter_cfg.c **** static void CYMEMZERO(void *s, size_t n);
  58:.\Generated_Source\PSoC4/cyfitter_cfg.c **** CY_CFG_UNUSED
  59:.\Generated_Source\PSoC4/cyfitter_cfg.c **** static void CYMEMZERO(void *s, size_t n)
  60:.\Generated_Source\PSoC4/cyfitter_cfg.c **** {
  61:.\Generated_Source\PSoC4/cyfitter_cfg.c **** 	(void)memset(s, 0, n);
  62:.\Generated_Source\PSoC4/cyfitter_cfg.c **** }
  63:.\Generated_Source\PSoC4/cyfitter_cfg.c **** CY_CFG_UNUSED
  64:.\Generated_Source\PSoC4/cyfitter_cfg.c **** static void CYCONFIGCPY(void *dest, const void *src, size_t n);
  65:.\Generated_Source\PSoC4/cyfitter_cfg.c **** CY_CFG_UNUSED
  66:.\Generated_Source\PSoC4/cyfitter_cfg.c **** static void CYCONFIGCPY(void *dest, const void *src, size_t n)
  67:.\Generated_Source\PSoC4/cyfitter_cfg.c **** {
  68:.\Generated_Source\PSoC4/cyfitter_cfg.c **** 	(void)memcpy(dest, src, n);
  69:.\Generated_Source\PSoC4/cyfitter_cfg.c **** }
  70:.\Generated_Source\PSoC4/cyfitter_cfg.c **** CY_CFG_UNUSED
  71:.\Generated_Source\PSoC4/cyfitter_cfg.c **** static void CYCONFIGCPYCODE(void *dest, const void *src, size_t n);
  72:.\Generated_Source\PSoC4/cyfitter_cfg.c **** CY_CFG_UNUSED
  73:.\Generated_Source\PSoC4/cyfitter_cfg.c **** static void CYCONFIGCPYCODE(void *dest, const void *src, size_t n)
  74:.\Generated_Source\PSoC4/cyfitter_cfg.c **** {
  75:.\Generated_Source\PSoC4/cyfitter_cfg.c **** 	(void)memcpy(dest, src, n);
  76:.\Generated_Source\PSoC4/cyfitter_cfg.c **** }
  77:.\Generated_Source\PSoC4/cyfitter_cfg.c **** 
  78:.\Generated_Source\PSoC4/cyfitter_cfg.c **** 
  79:.\Generated_Source\PSoC4/cyfitter_cfg.c **** 
  80:.\Generated_Source\PSoC4/cyfitter_cfg.c **** /* Clock startup error codes                                                   */
  81:.\Generated_Source\PSoC4/cyfitter_cfg.c **** #define CYCLOCKSTART_NO_ERROR    0u
  82:.\Generated_Source\PSoC4/cyfitter_cfg.c **** #define CYCLOCKSTART_XTAL_ERROR  1u
  83:.\Generated_Source\PSoC4/cyfitter_cfg.c **** #define CYCLOCKSTART_32KHZ_ERROR 2u
  84:.\Generated_Source\PSoC4/cyfitter_cfg.c **** #define CYCLOCKSTART_PLL_ERROR   3u
  85:.\Generated_Source\PSoC4/cyfitter_cfg.c **** 
  86:.\Generated_Source\PSoC4/cyfitter_cfg.c **** #ifdef CY_NEED_CYCLOCKSTARTUPERROR
  87:.\Generated_Source\PSoC4/cyfitter_cfg.c **** /*******************************************************************************
  88:.\Generated_Source\PSoC4/cyfitter_cfg.c **** * Function Name: CyClockStartupError
  89:.\Generated_Source\PSoC4/cyfitter_cfg.c **** ********************************************************************************
  90:.\Generated_Source\PSoC4/cyfitter_cfg.c **** * Summary:
ARM GAS  C:\Users\kbuchi\AppData\Local\Temp\ccBBqH9f.s 			page 3


  91:.\Generated_Source\PSoC4/cyfitter_cfg.c **** *  If an error is encountered during clock configuration (crystal startup error,
  92:.\Generated_Source\PSoC4/cyfitter_cfg.c **** *  PLL lock error, etc.), the system will end up here.  Unless reimplemented by
  93:.\Generated_Source\PSoC4/cyfitter_cfg.c **** *  the customer, this function will stop in an infinite loop.
  94:.\Generated_Source\PSoC4/cyfitter_cfg.c **** *
  95:.\Generated_Source\PSoC4/cyfitter_cfg.c **** * Parameters:
  96:.\Generated_Source\PSoC4/cyfitter_cfg.c **** *   void
  97:.\Generated_Source\PSoC4/cyfitter_cfg.c **** *
  98:.\Generated_Source\PSoC4/cyfitter_cfg.c **** * Return:
  99:.\Generated_Source\PSoC4/cyfitter_cfg.c **** *   void
 100:.\Generated_Source\PSoC4/cyfitter_cfg.c **** *
 101:.\Generated_Source\PSoC4/cyfitter_cfg.c **** *******************************************************************************/
 102:.\Generated_Source\PSoC4/cyfitter_cfg.c **** CY_CFG_UNUSED
 103:.\Generated_Source\PSoC4/cyfitter_cfg.c **** static void CyClockStartupError(uint8 errorCode);
 104:.\Generated_Source\PSoC4/cyfitter_cfg.c **** CY_CFG_UNUSED
 105:.\Generated_Source\PSoC4/cyfitter_cfg.c **** static void CyClockStartupError(uint8 errorCode)
 106:.\Generated_Source\PSoC4/cyfitter_cfg.c **** {
 107:.\Generated_Source\PSoC4/cyfitter_cfg.c ****     /* To remove the compiler warning if errorCode not used.                */
 108:.\Generated_Source\PSoC4/cyfitter_cfg.c ****     errorCode = errorCode;
 109:.\Generated_Source\PSoC4/cyfitter_cfg.c **** 
 110:.\Generated_Source\PSoC4/cyfitter_cfg.c ****     /* `#START CyClockStartupError` */
 111:.\Generated_Source\PSoC4/cyfitter_cfg.c **** 
 112:.\Generated_Source\PSoC4/cyfitter_cfg.c ****     /* If we have a clock startup error (bad MHz crystal, PLL lock, etc.),  */
 113:.\Generated_Source\PSoC4/cyfitter_cfg.c ****     /* we will end up here to allow the customer to implement something to  */
 114:.\Generated_Source\PSoC4/cyfitter_cfg.c ****     /* deal with the clock condition.                                       */
 115:.\Generated_Source\PSoC4/cyfitter_cfg.c **** 
 116:.\Generated_Source\PSoC4/cyfitter_cfg.c ****     /* `#END` */
 117:.\Generated_Source\PSoC4/cyfitter_cfg.c **** 
 118:.\Generated_Source\PSoC4/cyfitter_cfg.c ****     /* If nothing else, stop here since the clocks have not started         */
 119:.\Generated_Source\PSoC4/cyfitter_cfg.c ****     /* correctly.                                                           */
 120:.\Generated_Source\PSoC4/cyfitter_cfg.c ****     while(1) {}
 121:.\Generated_Source\PSoC4/cyfitter_cfg.c **** }
 122:.\Generated_Source\PSoC4/cyfitter_cfg.c **** #endif
 123:.\Generated_Source\PSoC4/cyfitter_cfg.c **** 
 124:.\Generated_Source\PSoC4/cyfitter_cfg.c **** #define CY_CFG_BASE_ADDR_COUNT 7u
 125:.\Generated_Source\PSoC4/cyfitter_cfg.c **** CYPACKED typedef struct
 126:.\Generated_Source\PSoC4/cyfitter_cfg.c **** {
 127:.\Generated_Source\PSoC4/cyfitter_cfg.c **** 	uint8 offset;
 128:.\Generated_Source\PSoC4/cyfitter_cfg.c **** 	uint8 value;
 129:.\Generated_Source\PSoC4/cyfitter_cfg.c **** } CYPACKED_ATTR cy_cfg_addrvalue_t;
 130:.\Generated_Source\PSoC4/cyfitter_cfg.c **** 
 131:.\Generated_Source\PSoC4/cyfitter_cfg.c **** 
 132:.\Generated_Source\PSoC4/cyfitter_cfg.c **** 
 133:.\Generated_Source\PSoC4/cyfitter_cfg.c **** /*******************************************************************************
 134:.\Generated_Source\PSoC4/cyfitter_cfg.c **** * Function Name: cfg_write_bytes32
 135:.\Generated_Source\PSoC4/cyfitter_cfg.c **** ********************************************************************************
 136:.\Generated_Source\PSoC4/cyfitter_cfg.c **** * Summary:
 137:.\Generated_Source\PSoC4/cyfitter_cfg.c **** *  This function is used for setting up the chip configuration areas that
 138:.\Generated_Source\PSoC4/cyfitter_cfg.c **** *  contain relatively sparse data.
 139:.\Generated_Source\PSoC4/cyfitter_cfg.c **** *
 140:.\Generated_Source\PSoC4/cyfitter_cfg.c **** * Parameters:
 141:.\Generated_Source\PSoC4/cyfitter_cfg.c **** *   void
 142:.\Generated_Source\PSoC4/cyfitter_cfg.c **** *
 143:.\Generated_Source\PSoC4/cyfitter_cfg.c **** * Return:
 144:.\Generated_Source\PSoC4/cyfitter_cfg.c **** *   void
 145:.\Generated_Source\PSoC4/cyfitter_cfg.c **** *
 146:.\Generated_Source\PSoC4/cyfitter_cfg.c **** *******************************************************************************/
 147:.\Generated_Source\PSoC4/cyfitter_cfg.c **** static void cfg_write_bytes32(const uint32 addr_table[], const cy_cfg_addrvalue_t data_table[]);
ARM GAS  C:\Users\kbuchi\AppData\Local\Temp\ccBBqH9f.s 			page 4


 148:.\Generated_Source\PSoC4/cyfitter_cfg.c **** static void cfg_write_bytes32(const uint32 addr_table[], const cy_cfg_addrvalue_t data_table[])
 149:.\Generated_Source\PSoC4/cyfitter_cfg.c **** {
  25              		.loc 1 149 0
  26              		.cfi_startproc
  27              	.LVL0:
  28 0000 F0B5     		push	{r4, r5, r6, r7, lr}
  29              		.cfi_def_cfa_offset 20
  30              		.cfi_offset 4, -20
  31              		.cfi_offset 5, -16
  32              		.cfi_offset 6, -12
  33              		.cfi_offset 7, -8
  34              		.cfi_offset 14, -4
  35              	.LVL1:
 150:.\Generated_Source\PSoC4/cyfitter_cfg.c **** 	/* For 32-bit little-endian architectures */
 151:.\Generated_Source\PSoC4/cyfitter_cfg.c **** 	uint32 i, j = 0u;
  36              		.loc 1 151 0
  37 0002 0022     		mov	r2, #0
 152:.\Generated_Source\PSoC4/cyfitter_cfg.c **** 	for (i = 0u; i < CY_CFG_BASE_ADDR_COUNT; i++)
  38              		.loc 1 152 0
  39 0004 0027     		mov	r7, #0
  40              	.LBB2:
 153:.\Generated_Source\PSoC4/cyfitter_cfg.c **** 	{
 154:.\Generated_Source\PSoC4/cyfitter_cfg.c **** 		uint32 baseAddr = addr_table[i];
 155:.\Generated_Source\PSoC4/cyfitter_cfg.c **** 		uint8 count = (uint8)baseAddr;
 156:.\Generated_Source\PSoC4/cyfitter_cfg.c **** 		baseAddr &= 0xFFFFFF00u;
  41              		.loc 1 156 0
  42 0006 FF23     		mov	r3, #255
  43 0008 9C46     		mov	ip, r3
  44              	.LBE2:
 152:.\Generated_Source\PSoC4/cyfitter_cfg.c **** 	for (i = 0u; i < CY_CFG_BASE_ADDR_COUNT; i++)
  45              		.loc 1 152 0
  46 000a 11E0     		b	.L2
  47              	.LVL2:
  48              	.L5:
  49              	.LBB3:
 154:.\Generated_Source\PSoC4/cyfitter_cfg.c **** 		uint32 baseAddr = addr_table[i];
  50              		.loc 1 154 0
  51 000c BB00     		lsl	r3, r7, #2
  52 000e C658     		ldr	r6, [r0, r3]
  53              	.LVL3:
 155:.\Generated_Source\PSoC4/cyfitter_cfg.c **** 		uint8 count = (uint8)baseAddr;
  54              		.loc 1 155 0
  55 0010 F3B2     		uxtb	r3, r6
  56              	.LVL4:
  57              		.loc 1 156 0
  58 0012 6446     		mov	r4, ip
  59 0014 A643     		bic	r6, r4
  60              	.LVL5:
 157:.\Generated_Source\PSoC4/cyfitter_cfg.c **** 		while (count != 0u)
  61              		.loc 1 157 0
  62 0016 08E0     		b	.L3
  63              	.L4:
 158:.\Generated_Source\PSoC4/cyfitter_cfg.c **** 		{
 159:.\Generated_Source\PSoC4/cyfitter_cfg.c **** 			CY_SET_XTND_REG8((void CYFAR *)(baseAddr + data_table[j].offset), data_table[j].value);
  64              		.loc 1 159 0
  65 0018 5400     		lsl	r4, r2, #1
  66 001a 0C19     		add	r4, r1, r4
ARM GAS  C:\Users\kbuchi\AppData\Local\Temp\ccBBqH9f.s 			page 5


  67 001c 2578     		ldrb	r5, [r4]
  68 001e AD19     		add	r5, r5, r6
  69 0020 6478     		ldrb	r4, [r4, #1]
  70 0022 2C70     		strb	r4, [r5]
 160:.\Generated_Source\PSoC4/cyfitter_cfg.c **** 			j++;
  71              		.loc 1 160 0
  72 0024 0132     		add	r2, r2, #1
  73              	.LVL6:
 161:.\Generated_Source\PSoC4/cyfitter_cfg.c **** 			count--;
  74              		.loc 1 161 0
  75 0026 013B     		sub	r3, r3, #1
  76              	.LVL7:
  77 0028 DBB2     		uxtb	r3, r3
  78              	.LVL8:
  79              	.L3:
 157:.\Generated_Source\PSoC4/cyfitter_cfg.c **** 		while (count != 0u)
  80              		.loc 1 157 0 discriminator 1
  81 002a 002B     		cmp	r3, #0
  82 002c F4D1     		bne	.L4
  83              	.LBE3:
 152:.\Generated_Source\PSoC4/cyfitter_cfg.c **** 	for (i = 0u; i < CY_CFG_BASE_ADDR_COUNT; i++)
  84              		.loc 1 152 0
  85 002e 0137     		add	r7, r7, #1
  86              	.LVL9:
  87              	.L2:
 152:.\Generated_Source\PSoC4/cyfitter_cfg.c **** 	for (i = 0u; i < CY_CFG_BASE_ADDR_COUNT; i++)
  88              		.loc 1 152 0 is_stmt 0 discriminator 1
  89 0030 062F     		cmp	r7, #6
  90 0032 EBD9     		bls	.L5
 162:.\Generated_Source\PSoC4/cyfitter_cfg.c **** 		}
 163:.\Generated_Source\PSoC4/cyfitter_cfg.c **** 	}
 164:.\Generated_Source\PSoC4/cyfitter_cfg.c **** }
  91              		.loc 1 164 0 is_stmt 1
  92              		@ sp needed
  93              	.LVL10:
  94 0034 F0BD     		pop	{r4, r5, r6, r7, pc}
  95              		.cfi_endproc
  96              	.LFE3:
  97              		.size	cfg_write_bytes32, .-cfg_write_bytes32
  98 0036 C046     		.section	.text.CYMEMZERO,"ax",%progbits
  99              		.align	2
 100              		.code	16
 101              		.thumb_func
 102              		.type	CYMEMZERO, %function
 103              	CYMEMZERO:
 104              	.LFB0:
  60:.\Generated_Source\PSoC4/cyfitter_cfg.c **** {
 105              		.loc 1 60 0
 106              		.cfi_startproc
 107              	.LVL11:
 108 0000 08B5     		push	{r3, lr}
 109              		.cfi_def_cfa_offset 8
 110              		.cfi_offset 3, -8
 111              		.cfi_offset 14, -4
 112 0002 0A1C     		mov	r2, r1
  61:.\Generated_Source\PSoC4/cyfitter_cfg.c **** 	(void)memset(s, 0, n);
 113              		.loc 1 61 0
ARM GAS  C:\Users\kbuchi\AppData\Local\Temp\ccBBqH9f.s 			page 6


 114 0004 0021     		mov	r1, #0
 115              	.LVL12:
 116 0006 FFF7FEFF 		bl	memset
 117              	.LVL13:
  62:.\Generated_Source\PSoC4/cyfitter_cfg.c **** }
 118              		.loc 1 62 0
 119              		@ sp needed
 120 000a 08BD     		pop	{r3, pc}
 121              		.cfi_endproc
 122              	.LFE0:
 123              		.size	CYMEMZERO, .-CYMEMZERO
 124              		.section	.psocinit,"ax",%progbits
 125              		.align	2
 126              		.code	16
 127              		.thumb_func
 128              		.type	ClockSetup, %function
 129              	ClockSetup:
 130              	.LFB4:
 165:.\Generated_Source\PSoC4/cyfitter_cfg.c **** 
 166:.\Generated_Source\PSoC4/cyfitter_cfg.c **** 
 167:.\Generated_Source\PSoC4/cyfitter_cfg.c **** /*******************************************************************************
 168:.\Generated_Source\PSoC4/cyfitter_cfg.c **** * Function Name: ClockSetup
 169:.\Generated_Source\PSoC4/cyfitter_cfg.c **** ********************************************************************************
 170:.\Generated_Source\PSoC4/cyfitter_cfg.c **** *
 171:.\Generated_Source\PSoC4/cyfitter_cfg.c **** * Summary:
 172:.\Generated_Source\PSoC4/cyfitter_cfg.c **** *   Performs the initialization of all of the clocks in the device based on the
 173:.\Generated_Source\PSoC4/cyfitter_cfg.c **** *   settings in the Clock tab of the DWR.  This includes enabling the requested
 174:.\Generated_Source\PSoC4/cyfitter_cfg.c **** *   clocks and setting the necessary dividers to produce the desired frequency. 
 175:.\Generated_Source\PSoC4/cyfitter_cfg.c **** *
 176:.\Generated_Source\PSoC4/cyfitter_cfg.c **** * Parameters:
 177:.\Generated_Source\PSoC4/cyfitter_cfg.c **** *   void
 178:.\Generated_Source\PSoC4/cyfitter_cfg.c **** *
 179:.\Generated_Source\PSoC4/cyfitter_cfg.c **** * Return:
 180:.\Generated_Source\PSoC4/cyfitter_cfg.c **** *   void
 181:.\Generated_Source\PSoC4/cyfitter_cfg.c **** *
 182:.\Generated_Source\PSoC4/cyfitter_cfg.c **** *******************************************************************************/
 183:.\Generated_Source\PSoC4/cyfitter_cfg.c **** static void ClockSetup(void);
 184:.\Generated_Source\PSoC4/cyfitter_cfg.c **** CY_CFG_SECTION
 185:.\Generated_Source\PSoC4/cyfitter_cfg.c **** static void ClockSetup(void)
 186:.\Generated_Source\PSoC4/cyfitter_cfg.c **** {
 131              		.loc 1 186 0
 132              		.cfi_startproc
 133 0000 10B5     		push	{r4, lr}
 134              		.cfi_def_cfa_offset 8
 135              		.cfi_offset 4, -8
 136              		.cfi_offset 14, -4
 187:.\Generated_Source\PSoC4/cyfitter_cfg.c **** 	/* Enable HALF_EN before trimming for the flash accelerator. */
 188:.\Generated_Source\PSoC4/cyfitter_cfg.c **** 	CY_SET_REG32((void CYXDATA *)(CYREG_CLK_SELECT), (CY_GET_REG32((void *)CYREG_CLK_SELECT) | 0x00040
 137              		.loc 1 188 0
 138 0002 184C     		ldr	r4, .L8
 139 0004 2268     		ldr	r2, [r4]
 140 0006 8023     		mov	r3, #128
 141 0008 DB02     		lsl	r3, r3, #11
 142 000a 1343     		orr	r3, r2
 143 000c 2360     		str	r3, [r4]
 189:.\Generated_Source\PSoC4/cyfitter_cfg.c **** 
 190:.\Generated_Source\PSoC4/cyfitter_cfg.c **** 	/* Setup and trim IMO based on desired frequency. */
ARM GAS  C:\Users\kbuchi\AppData\Local\Temp\ccBBqH9f.s 			page 7


 191:.\Generated_Source\PSoC4/cyfitter_cfg.c **** 	CySysClkWriteImoFreq(24u);
 144              		.loc 1 191 0
 145 000e 1820     		mov	r0, #24
 146 0010 FFF7FEFF 		bl	CySysClkWriteImoFreq
 147              	.LVL14:
 192:.\Generated_Source\PSoC4/cyfitter_cfg.c **** 
 193:.\Generated_Source\PSoC4/cyfitter_cfg.c **** 	/* Disable HALF_EN since it is not required at this IMO frequency. */
 194:.\Generated_Source\PSoC4/cyfitter_cfg.c **** 	CY_SET_REG32((void CYXDATA *)(CYREG_CLK_SELECT), (CY_GET_REG32((void *)CYREG_CLK_SELECT) & 0xFFFBF
 148              		.loc 1 194 0
 149 0014 2268     		ldr	r2, [r4]
 150 0016 144B     		ldr	r3, .L8+4
 151 0018 1340     		and	r3, r2
 152 001a 2360     		str	r3, [r4]
 195:.\Generated_Source\PSoC4/cyfitter_cfg.c **** 	/* CYDEV_CLK_ILO_CONFIG Starting address: CYDEV_CLK_ILO_CONFIG */
 196:.\Generated_Source\PSoC4/cyfitter_cfg.c **** 	CY_SET_XTND_REG32((void CYFAR *)(CYREG_CLK_ILO_CONFIG), 0x80000006u);
 153              		.loc 1 196 0
 154 001c 134A     		ldr	r2, .L8+8
 155 001e 144B     		ldr	r3, .L8+12
 156 0020 1A60     		str	r2, [r3]
 197:.\Generated_Source\PSoC4/cyfitter_cfg.c **** 
 198:.\Generated_Source\PSoC4/cyfitter_cfg.c **** 
 199:.\Generated_Source\PSoC4/cyfitter_cfg.c **** 	/* CYDEV_CLK_SELECT00 Starting address: CYDEV_CLK_SELECT00 */
 200:.\Generated_Source\PSoC4/cyfitter_cfg.c **** 	CY_SET_XTND_REG32((void CYFAR *)(CYREG_CLK_SELECT05), 0x00000020u);
 157              		.loc 1 200 0
 158 0022 2022     		mov	r2, #32
 159 0024 134B     		ldr	r3, .L8+16
 160 0026 1A60     		str	r2, [r3]
 201:.\Generated_Source\PSoC4/cyfitter_cfg.c **** 	CY_SET_XTND_REG32((void CYFAR *)(CYREG_CLK_SELECT06), 0x00000010u);
 161              		.loc 1 201 0
 162 0028 1022     		mov	r2, #16
 163 002a 134B     		ldr	r3, .L8+20
 164 002c 1A60     		str	r2, [r3]
 202:.\Generated_Source\PSoC4/cyfitter_cfg.c **** 	CY_SET_XTND_REG32((void CYFAR *)(CYREG_CLK_SELECT12), 0x00000030u);
 165              		.loc 1 202 0
 166 002e 3022     		mov	r2, #48
 167 0030 124B     		ldr	r3, .L8+24
 168 0032 1A60     		str	r2, [r3]
 203:.\Generated_Source\PSoC4/cyfitter_cfg.c **** 
 204:.\Generated_Source\PSoC4/cyfitter_cfg.c **** 	/* CYDEV_CLK_IMO_CONFIG Starting address: CYDEV_CLK_IMO_CONFIG */
 205:.\Generated_Source\PSoC4/cyfitter_cfg.c **** 	CY_SET_XTND_REG32((void CYFAR *)(CYREG_CLK_IMO_CONFIG), 0x80000000u);
 169              		.loc 1 205 0
 170 0034 8022     		mov	r2, #128
 171 0036 1206     		lsl	r2, r2, #24
 172 0038 114B     		ldr	r3, .L8+28
 173 003a 1A60     		str	r2, [r3]
 206:.\Generated_Source\PSoC4/cyfitter_cfg.c **** 
 207:.\Generated_Source\PSoC4/cyfitter_cfg.c **** 	/* CYDEV_CLK_DIVIDER_A00 Starting address: CYDEV_CLK_DIVIDER_A00 */
 208:.\Generated_Source\PSoC4/cyfitter_cfg.c **** 	CY_SET_XTND_REG32((void CYFAR *)(CYREG_CLK_DIVIDER_A00), 0x800000FEu);
 174              		.loc 1 208 0
 175 003c 114A     		ldr	r2, .L8+32
 176 003e 124B     		ldr	r3, .L8+36
 177 0040 1A60     		str	r2, [r3]
 209:.\Generated_Source\PSoC4/cyfitter_cfg.c **** 
 210:.\Generated_Source\PSoC4/cyfitter_cfg.c **** 	/* CYDEV_CLK_DIVIDER_B00 Starting address: CYDEV_CLK_DIVIDER_B00 */
 211:.\Generated_Source\PSoC4/cyfitter_cfg.c **** 	CY_SET_XTND_REG32((void CYFAR *)(CYREG_CLK_DIVIDER_B00), 0xC00000FEu);
 178              		.loc 1 211 0
 179 0042 124A     		ldr	r2, .L8+40
ARM GAS  C:\Users\kbuchi\AppData\Local\Temp\ccBBqH9f.s 			page 8


 180 0044 124B     		ldr	r3, .L8+44
 181 0046 1A60     		str	r2, [r3]
 212:.\Generated_Source\PSoC4/cyfitter_cfg.c **** 
 213:.\Generated_Source\PSoC4/cyfitter_cfg.c **** 	/* CYDEV_CLK_DIVIDER_C00 Starting address: CYDEV_CLK_DIVIDER_C00 */
 214:.\Generated_Source\PSoC4/cyfitter_cfg.c **** 	CY_SET_XTND_REG32((void CYFAR *)(CYREG_CLK_DIVIDER_C00), 0x80000001u);
 182              		.loc 1 214 0
 183 0048 124A     		ldr	r2, .L8+48
 184 004a 134B     		ldr	r3, .L8+52
 185 004c 1A60     		str	r2, [r3]
 215:.\Generated_Source\PSoC4/cyfitter_cfg.c **** 
 216:.\Generated_Source\PSoC4/cyfitter_cfg.c **** 	(void)CyIntSetVector(9u, &CySysWdtIsr);
 186              		.loc 1 216 0
 187 004e 0920     		mov	r0, #9
 188 0050 1249     		ldr	r1, .L8+56
 189 0052 FFF7FEFF 		bl	CyIntSetVector
 190              	.LVL15:
 217:.\Generated_Source\PSoC4/cyfitter_cfg.c **** 	CyIntEnable(9u);
 191              		.loc 1 217 0
 192 0056 0920     		mov	r0, #9
 193 0058 FFF7FEFF 		bl	CyIntEnable
 194              	.LVL16:
 218:.\Generated_Source\PSoC4/cyfitter_cfg.c **** 	CY_SET_XTND_REG32((void CYFAR *)(CYREG_WDT_CONFIG), 0x00000000u);
 195              		.loc 1 218 0
 196 005c 0022     		mov	r2, #0
 197 005e 104B     		ldr	r3, .L8+60
 198 0060 1A60     		str	r2, [r3]
 219:.\Generated_Source\PSoC4/cyfitter_cfg.c **** }
 199              		.loc 1 219 0
 200              		@ sp needed
 201 0062 10BD     		pop	{r4, pc}
 202              	.L9:
 203              		.align	2
 204              	.L8:
 205 0064 00010B40 		.word	1074462976
 206 0068 FFFFFBFF 		.word	-262145
 207 006c 06000080 		.word	-2147483642
 208 0070 04010B40 		.word	1074462980
 209 0074 14020240 		.word	1073873428
 210 0078 18020240 		.word	1073873432
 211 007c 30020240 		.word	1073873456
 212 0080 08010B40 		.word	1074462984
 213 0084 FE000080 		.word	-2147483394
 214 0088 00000240 		.word	1073872896
 215 008c FE0000C0 		.word	-1073741570
 216 0090 40000240 		.word	1073872960
 217 0094 01000080 		.word	-2147483647
 218 0098 80000240 		.word	1073873024
 219 009c 00000000 		.word	CySysWdtIsr
 220 00a0 0C020B40 		.word	1074463244
 221              		.cfi_endproc
 222              	.LFE4:
 223              		.size	ClockSetup, .-ClockSetup
 224              		.section	.text.SetAnalogRoutingPumps,"ax",%progbits
 225              		.align	2
 226              		.global	SetAnalogRoutingPumps
 227              		.code	16
 228              		.thumb_func
ARM GAS  C:\Users\kbuchi\AppData\Local\Temp\ccBBqH9f.s 			page 9


 229              		.type	SetAnalogRoutingPumps, %function
 230              	SetAnalogRoutingPumps:
 231              	.LFB6:
 220:.\Generated_Source\PSoC4/cyfitter_cfg.c **** 
 221:.\Generated_Source\PSoC4/cyfitter_cfg.c **** 
 222:.\Generated_Source\PSoC4/cyfitter_cfg.c **** /* Analog API Functions */
 223:.\Generated_Source\PSoC4/cyfitter_cfg.c **** 
 224:.\Generated_Source\PSoC4/cyfitter_cfg.c **** 
 225:.\Generated_Source\PSoC4/cyfitter_cfg.c **** /*******************************************************************************
 226:.\Generated_Source\PSoC4/cyfitter_cfg.c **** * Function Name: AnalogSetDefault
 227:.\Generated_Source\PSoC4/cyfitter_cfg.c **** ********************************************************************************
 228:.\Generated_Source\PSoC4/cyfitter_cfg.c **** *
 229:.\Generated_Source\PSoC4/cyfitter_cfg.c **** * Summary:
 230:.\Generated_Source\PSoC4/cyfitter_cfg.c **** *  Sets up the analog portions of the chip to default values based on chip
 231:.\Generated_Source\PSoC4/cyfitter_cfg.c **** *  configuration options from the project.
 232:.\Generated_Source\PSoC4/cyfitter_cfg.c **** *
 233:.\Generated_Source\PSoC4/cyfitter_cfg.c **** * Parameters:
 234:.\Generated_Source\PSoC4/cyfitter_cfg.c **** *  void
 235:.\Generated_Source\PSoC4/cyfitter_cfg.c **** *
 236:.\Generated_Source\PSoC4/cyfitter_cfg.c **** * Return:
 237:.\Generated_Source\PSoC4/cyfitter_cfg.c **** *  void
 238:.\Generated_Source\PSoC4/cyfitter_cfg.c **** *
 239:.\Generated_Source\PSoC4/cyfitter_cfg.c **** *******************************************************************************/
 240:.\Generated_Source\PSoC4/cyfitter_cfg.c **** static void AnalogSetDefault(void);
 241:.\Generated_Source\PSoC4/cyfitter_cfg.c **** static void AnalogSetDefault(void)
 242:.\Generated_Source\PSoC4/cyfitter_cfg.c **** {
 243:.\Generated_Source\PSoC4/cyfitter_cfg.c **** 	SetAnalogRoutingPumps(1);
 244:.\Generated_Source\PSoC4/cyfitter_cfg.c **** }
 245:.\Generated_Source\PSoC4/cyfitter_cfg.c **** 
 246:.\Generated_Source\PSoC4/cyfitter_cfg.c **** 
 247:.\Generated_Source\PSoC4/cyfitter_cfg.c **** /*******************************************************************************
 248:.\Generated_Source\PSoC4/cyfitter_cfg.c **** * Function Name: SetAnalogRoutingPumps
 249:.\Generated_Source\PSoC4/cyfitter_cfg.c **** ********************************************************************************
 250:.\Generated_Source\PSoC4/cyfitter_cfg.c **** *
 251:.\Generated_Source\PSoC4/cyfitter_cfg.c **** * Summary:
 252:.\Generated_Source\PSoC4/cyfitter_cfg.c **** * Enables or disables the analog pumps feeding analog routing switches.
 253:.\Generated_Source\PSoC4/cyfitter_cfg.c **** * Intended to be called at startup, based on the Vdda system configuration;
 254:.\Generated_Source\PSoC4/cyfitter_cfg.c **** * may be called during operation when the user informs us that the Vdda voltage crossed the pump th
 255:.\Generated_Source\PSoC4/cyfitter_cfg.c **** *
 256:.\Generated_Source\PSoC4/cyfitter_cfg.c **** * Parameters:
 257:.\Generated_Source\PSoC4/cyfitter_cfg.c **** *  enabled - 1 to enable the pumps, 0 to disable the pumps
 258:.\Generated_Source\PSoC4/cyfitter_cfg.c **** *
 259:.\Generated_Source\PSoC4/cyfitter_cfg.c **** * Return:
 260:.\Generated_Source\PSoC4/cyfitter_cfg.c **** *  void
 261:.\Generated_Source\PSoC4/cyfitter_cfg.c **** *
 262:.\Generated_Source\PSoC4/cyfitter_cfg.c **** *******************************************************************************/
 263:.\Generated_Source\PSoC4/cyfitter_cfg.c **** void SetAnalogRoutingPumps(uint8 enabled)
 264:.\Generated_Source\PSoC4/cyfitter_cfg.c **** {
 232              		.loc 1 264 0
 233              		.cfi_startproc
 234              	.LVL17:
 265:.\Generated_Source\PSoC4/cyfitter_cfg.c **** 	uint32 regValue = CY_GET_XTND_REG32((void *)(CYREG_SAR_PUMP_CTRL));
 235              		.loc 1 265 0
 236 0000 0C4B     		ldr	r3, .L15
 237 0002 1B68     		ldr	r3, [r3]
 238              	.LVL18:
 266:.\Generated_Source\PSoC4/cyfitter_cfg.c **** 	if (enabled != 0u)
ARM GAS  C:\Users\kbuchi\AppData\Local\Temp\ccBBqH9f.s 			page 10


 239              		.loc 1 266 0
 240 0004 0028     		cmp	r0, #0
 241 0006 03D0     		beq	.L11
 267:.\Generated_Source\PSoC4/cyfitter_cfg.c **** 	{
 268:.\Generated_Source\PSoC4/cyfitter_cfg.c **** 		regValue |= 0x80000000u;
 242              		.loc 1 268 0
 243 0008 8022     		mov	r2, #128
 244 000a 1206     		lsl	r2, r2, #24
 245 000c 1A43     		orr	r2, r3
 246              	.LVL19:
 247 000e 01E0     		b	.L12
 248              	.LVL20:
 249              	.L11:
 269:.\Generated_Source\PSoC4/cyfitter_cfg.c **** 	}
 270:.\Generated_Source\PSoC4/cyfitter_cfg.c **** 	else
 271:.\Generated_Source\PSoC4/cyfitter_cfg.c **** 	{
 272:.\Generated_Source\PSoC4/cyfitter_cfg.c **** 		regValue &= ~0x80000000u;
 250              		.loc 1 272 0
 251 0010 5A00     		lsl	r2, r3, #1
 252 0012 5208     		lsr	r2, r2, #1
 253              	.LVL21:
 254              	.L12:
 273:.\Generated_Source\PSoC4/cyfitter_cfg.c **** 	}
 274:.\Generated_Source\PSoC4/cyfitter_cfg.c **** 	CY_SET_XTND_REG32((void *)(CYREG_SAR_PUMP_CTRL), regValue);
 255              		.loc 1 274 0
 256 0014 074B     		ldr	r3, .L15
 257 0016 1A60     		str	r2, [r3]
 275:.\Generated_Source\PSoC4/cyfitter_cfg.c **** 	regValue = CY_GET_XTND_REG32((void *)(CYREG_CLK_IMO_CONFIG));
 258              		.loc 1 275 0
 259 0018 074B     		ldr	r3, .L15+4
 260 001a 1B68     		ldr	r3, [r3]
 261              	.LVL22:
 276:.\Generated_Source\PSoC4/cyfitter_cfg.c **** 	if (enabled != 0u)
 262              		.loc 1 276 0
 263 001c 0028     		cmp	r0, #0
 264 001e 03D0     		beq	.L13
 277:.\Generated_Source\PSoC4/cyfitter_cfg.c **** 	{
 278:.\Generated_Source\PSoC4/cyfitter_cfg.c **** 		regValue |= 0x02000000u;
 265              		.loc 1 278 0
 266 0020 8022     		mov	r2, #128
 267 0022 9204     		lsl	r2, r2, #18
 268 0024 1A43     		orr	r2, r3
 269              	.LVL23:
 270 0026 01E0     		b	.L14
 271              	.LVL24:
 272              	.L13:
 279:.\Generated_Source\PSoC4/cyfitter_cfg.c **** 	}
 280:.\Generated_Source\PSoC4/cyfitter_cfg.c **** 	else
 281:.\Generated_Source\PSoC4/cyfitter_cfg.c **** 	{
 282:.\Generated_Source\PSoC4/cyfitter_cfg.c **** 		regValue &= ~0x02000000u;
 273              		.loc 1 282 0
 274 0028 044A     		ldr	r2, .L15+8
 275 002a 1A40     		and	r2, r3
 276              	.LVL25:
 277              	.L14:
 283:.\Generated_Source\PSoC4/cyfitter_cfg.c **** 	}
 284:.\Generated_Source\PSoC4/cyfitter_cfg.c **** 	CY_SET_XTND_REG32((void *)(CYREG_CLK_IMO_CONFIG), regValue);
ARM GAS  C:\Users\kbuchi\AppData\Local\Temp\ccBBqH9f.s 			page 11


 278              		.loc 1 284 0
 279 002c 024B     		ldr	r3, .L15+4
 280 002e 1A60     		str	r2, [r3]
 285:.\Generated_Source\PSoC4/cyfitter_cfg.c **** }
 281              		.loc 1 285 0
 282              		@ sp needed
 283 0030 7047     		bx	lr
 284              	.L16:
 285 0032 C046     		.align	2
 286              	.L15:
 287 0034 80031A40 		.word	1075446656
 288 0038 08010B40 		.word	1074462984
 289 003c FFFFFFFD 		.word	-33554433
 290              		.cfi_endproc
 291              	.LFE6:
 292              		.size	SetAnalogRoutingPumps, .-SetAnalogRoutingPumps
 293              		.section	.text.AnalogSetDefault,"ax",%progbits
 294              		.align	2
 295              		.code	16
 296              		.thumb_func
 297              		.type	AnalogSetDefault, %function
 298              	AnalogSetDefault:
 299              	.LFB5:
 242:.\Generated_Source\PSoC4/cyfitter_cfg.c **** {
 300              		.loc 1 242 0
 301              		.cfi_startproc
 302 0000 08B5     		push	{r3, lr}
 303              		.cfi_def_cfa_offset 8
 304              		.cfi_offset 3, -8
 305              		.cfi_offset 14, -4
 243:.\Generated_Source\PSoC4/cyfitter_cfg.c **** 	SetAnalogRoutingPumps(1);
 306              		.loc 1 243 0
 307 0002 0120     		mov	r0, #1
 308 0004 FFF7FEFF 		bl	SetAnalogRoutingPumps
 309              	.LVL26:
 244:.\Generated_Source\PSoC4/cyfitter_cfg.c **** }
 310              		.loc 1 244 0
 311              		@ sp needed
 312 0008 08BD     		pop	{r3, pc}
 313              		.cfi_endproc
 314              	.LFE5:
 315              		.size	AnalogSetDefault, .-AnalogSetDefault
 316 000a C046     		.section	.psocinit
 317              		.align	2
 318              		.global	cyfitter_cfg
 319              		.code	16
 320              		.thumb_func
 321              		.type	cyfitter_cfg, %function
 322              	cyfitter_cfg:
 323              	.LFB7:
 286:.\Generated_Source\PSoC4/cyfitter_cfg.c **** 
 287:.\Generated_Source\PSoC4/cyfitter_cfg.c **** #define CY_AMUX_UNUSED CYREG_CM0_ROM_DWT
 288:.\Generated_Source\PSoC4/cyfitter_cfg.c **** 
 289:.\Generated_Source\PSoC4/cyfitter_cfg.c **** 
 290:.\Generated_Source\PSoC4/cyfitter_cfg.c **** /*******************************************************************************
 291:.\Generated_Source\PSoC4/cyfitter_cfg.c **** * Function Name: cyfitter_cfg
 292:.\Generated_Source\PSoC4/cyfitter_cfg.c **** ********************************************************************************
ARM GAS  C:\Users\kbuchi\AppData\Local\Temp\ccBBqH9f.s 			page 12


 293:.\Generated_Source\PSoC4/cyfitter_cfg.c **** * Summary:
 294:.\Generated_Source\PSoC4/cyfitter_cfg.c **** *  This function is called by the start-up code for the selected device. It
 295:.\Generated_Source\PSoC4/cyfitter_cfg.c **** *  performs all of the necessary device configuration based on the design
 296:.\Generated_Source\PSoC4/cyfitter_cfg.c **** *  settings.  This includes settings from the Design Wide Resources (DWR) such
 297:.\Generated_Source\PSoC4/cyfitter_cfg.c **** *  as Clocks and Pins as well as any component configuration that is necessary.
 298:.\Generated_Source\PSoC4/cyfitter_cfg.c **** *
 299:.\Generated_Source\PSoC4/cyfitter_cfg.c **** * Parameters:  
 300:.\Generated_Source\PSoC4/cyfitter_cfg.c **** *   void
 301:.\Generated_Source\PSoC4/cyfitter_cfg.c **** *
 302:.\Generated_Source\PSoC4/cyfitter_cfg.c **** * Return:
 303:.\Generated_Source\PSoC4/cyfitter_cfg.c **** *   void
 304:.\Generated_Source\PSoC4/cyfitter_cfg.c **** *
 305:.\Generated_Source\PSoC4/cyfitter_cfg.c **** *******************************************************************************/
 306:.\Generated_Source\PSoC4/cyfitter_cfg.c **** CY_CFG_SECTION
 307:.\Generated_Source\PSoC4/cyfitter_cfg.c **** void cyfitter_cfg(void)
 308:.\Generated_Source\PSoC4/cyfitter_cfg.c **** {
 324              		.loc 1 308 0
 325              		.cfi_startproc
 326 00a4 38B5     		push	{r3, r4, r5, lr}
 327              		.cfi_def_cfa_offset 16
 328              		.cfi_offset 3, -16
 329              		.cfi_offset 4, -12
 330              		.cfi_offset 5, -8
 331              		.cfi_offset 14, -4
 309:.\Generated_Source\PSoC4/cyfitter_cfg.c **** 	/* Disable interrupts by default. Let user enable if/when they want. */
 310:.\Generated_Source\PSoC4/cyfitter_cfg.c **** 	CyGlobalIntDisable;
 332              		.loc 1 310 0
 333              	@ 310 ".\Generated_Source\PSoC4\cyfitter_cfg.c" 1
 334 00a6 72B6     		CPSID   i
 335              	@ 0 "" 2
 336              	.LVL27:
 337              		.code	16
 338              	.LBB4:
 311:.\Generated_Source\PSoC4/cyfitter_cfg.c **** 
 312:.\Generated_Source\PSoC4/cyfitter_cfg.c **** 	{
 313:.\Generated_Source\PSoC4/cyfitter_cfg.c **** 		static const uint32 CYCODE cy_cfg_addr_table[] = {
 314:.\Generated_Source\PSoC4/cyfitter_cfg.c **** 			0x400F0001u, /* Base address: 0x400F0000 Count: 1 */
 315:.\Generated_Source\PSoC4/cyfitter_cfg.c **** 			0x400F322Bu, /* Base address: 0x400F3200 Count: 43 */
 316:.\Generated_Source\PSoC4/cyfitter_cfg.c **** 			0x400F331Cu, /* Base address: 0x400F3300 Count: 28 */
 317:.\Generated_Source\PSoC4/cyfitter_cfg.c **** 			0x400F4104u, /* Base address: 0x400F4100 Count: 4 */
 318:.\Generated_Source\PSoC4/cyfitter_cfg.c **** 			0x400F4203u, /* Base address: 0x400F4200 Count: 3 */
 319:.\Generated_Source\PSoC4/cyfitter_cfg.c **** 			0x400F4307u, /* Base address: 0x400F4300 Count: 7 */
 320:.\Generated_Source\PSoC4/cyfitter_cfg.c **** 			0x400F6002u, /* Base address: 0x400F6000 Count: 2 */
 321:.\Generated_Source\PSoC4/cyfitter_cfg.c **** 		};
 322:.\Generated_Source\PSoC4/cyfitter_cfg.c **** 
 323:.\Generated_Source\PSoC4/cyfitter_cfg.c **** 		static const cy_cfg_addrvalue_t CYCODE cy_cfg_data_table[] = {
 324:.\Generated_Source\PSoC4/cyfitter_cfg.c **** 			{0x82u, 0x0Du},
 325:.\Generated_Source\PSoC4/cyfitter_cfg.c **** 			{0x0Bu, 0x01u},
 326:.\Generated_Source\PSoC4/cyfitter_cfg.c **** 			{0x16u, 0x05u},
 327:.\Generated_Source\PSoC4/cyfitter_cfg.c **** 			{0x1Eu, 0x04u},
 328:.\Generated_Source\PSoC4/cyfitter_cfg.c **** 			{0x26u, 0x09u},
 329:.\Generated_Source\PSoC4/cyfitter_cfg.c **** 			{0x2Du, 0x01u},
 330:.\Generated_Source\PSoC4/cyfitter_cfg.c **** 			{0x2Eu, 0x02u},
 331:.\Generated_Source\PSoC4/cyfitter_cfg.c **** 			{0x30u, 0x08u},
 332:.\Generated_Source\PSoC4/cyfitter_cfg.c **** 			{0x32u, 0x02u},
 333:.\Generated_Source\PSoC4/cyfitter_cfg.c **** 			{0x34u, 0x04u},
 334:.\Generated_Source\PSoC4/cyfitter_cfg.c **** 			{0x36u, 0x01u},
ARM GAS  C:\Users\kbuchi\AppData\Local\Temp\ccBBqH9f.s 			page 13


 335:.\Generated_Source\PSoC4/cyfitter_cfg.c **** 			{0x37u, 0x01u},
 336:.\Generated_Source\PSoC4/cyfitter_cfg.c **** 			{0x3Eu, 0x10u},
 337:.\Generated_Source\PSoC4/cyfitter_cfg.c **** 			{0x40u, 0x30u},
 338:.\Generated_Source\PSoC4/cyfitter_cfg.c **** 			{0x41u, 0x05u},
 339:.\Generated_Source\PSoC4/cyfitter_cfg.c **** 			{0x45u, 0xD0u},
 340:.\Generated_Source\PSoC4/cyfitter_cfg.c **** 			{0x46u, 0x12u},
 341:.\Generated_Source\PSoC4/cyfitter_cfg.c **** 			{0x48u, 0x0Eu},
 342:.\Generated_Source\PSoC4/cyfitter_cfg.c **** 			{0x49u, 0xFFu},
 343:.\Generated_Source\PSoC4/cyfitter_cfg.c **** 			{0x4Au, 0xFFu},
 344:.\Generated_Source\PSoC4/cyfitter_cfg.c **** 			{0x4Bu, 0xFFu},
 345:.\Generated_Source\PSoC4/cyfitter_cfg.c **** 			{0x4Du, 0xA0u},
 346:.\Generated_Source\PSoC4/cyfitter_cfg.c **** 			{0x4Fu, 0x04u},
 347:.\Generated_Source\PSoC4/cyfitter_cfg.c **** 			{0x50u, 0x18u},
 348:.\Generated_Source\PSoC4/cyfitter_cfg.c **** 			{0x52u, 0x80u},
 349:.\Generated_Source\PSoC4/cyfitter_cfg.c **** 			{0x54u, 0x05u},
 350:.\Generated_Source\PSoC4/cyfitter_cfg.c **** 			{0x58u, 0x04u},
 351:.\Generated_Source\PSoC4/cyfitter_cfg.c **** 			{0x59u, 0x04u},
 352:.\Generated_Source\PSoC4/cyfitter_cfg.c **** 			{0x5Au, 0x04u},
 353:.\Generated_Source\PSoC4/cyfitter_cfg.c **** 			{0x5Bu, 0x04u},
 354:.\Generated_Source\PSoC4/cyfitter_cfg.c **** 			{0x5Fu, 0x01u},
 355:.\Generated_Source\PSoC4/cyfitter_cfg.c **** 			{0x60u, 0x40u},
 356:.\Generated_Source\PSoC4/cyfitter_cfg.c **** 			{0x62u, 0xC0u},
 357:.\Generated_Source\PSoC4/cyfitter_cfg.c **** 			{0x64u, 0x40u},
 358:.\Generated_Source\PSoC4/cyfitter_cfg.c **** 			{0x65u, 0x40u},
 359:.\Generated_Source\PSoC4/cyfitter_cfg.c **** 			{0x66u, 0xC0u},
 360:.\Generated_Source\PSoC4/cyfitter_cfg.c **** 			{0x68u, 0xC0u},
 361:.\Generated_Source\PSoC4/cyfitter_cfg.c **** 			{0x6Au, 0xC0u},
 362:.\Generated_Source\PSoC4/cyfitter_cfg.c **** 			{0x6Cu, 0xC0u},
 363:.\Generated_Source\PSoC4/cyfitter_cfg.c **** 			{0x6Eu, 0xC0u},
 364:.\Generated_Source\PSoC4/cyfitter_cfg.c **** 			{0xB8u, 0x80u},
 365:.\Generated_Source\PSoC4/cyfitter_cfg.c **** 			{0xBEu, 0x40u},
 366:.\Generated_Source\PSoC4/cyfitter_cfg.c **** 			{0xD8u, 0x04u},
 367:.\Generated_Source\PSoC4/cyfitter_cfg.c **** 			{0xDFu, 0x01u},
 368:.\Generated_Source\PSoC4/cyfitter_cfg.c **** 			{0x0Cu, 0x80u},
 369:.\Generated_Source\PSoC4/cyfitter_cfg.c **** 			{0x0Du, 0x08u},
 370:.\Generated_Source\PSoC4/cyfitter_cfg.c **** 			{0x16u, 0x20u},
 371:.\Generated_Source\PSoC4/cyfitter_cfg.c **** 			{0x17u, 0x40u},
 372:.\Generated_Source\PSoC4/cyfitter_cfg.c **** 			{0x18u, 0x01u},
 373:.\Generated_Source\PSoC4/cyfitter_cfg.c **** 			{0x1Du, 0x08u},
 374:.\Generated_Source\PSoC4/cyfitter_cfg.c **** 			{0x1Eu, 0x08u},
 375:.\Generated_Source\PSoC4/cyfitter_cfg.c **** 			{0x1Fu, 0x82u},
 376:.\Generated_Source\PSoC4/cyfitter_cfg.c **** 			{0x26u, 0x40u},
 377:.\Generated_Source\PSoC4/cyfitter_cfg.c **** 			{0x2Fu, 0x02u},
 378:.\Generated_Source\PSoC4/cyfitter_cfg.c **** 			{0x3Eu, 0x20u},
 379:.\Generated_Source\PSoC4/cyfitter_cfg.c **** 			{0x45u, 0x08u},
 380:.\Generated_Source\PSoC4/cyfitter_cfg.c **** 			{0x4Fu, 0x81u},
 381:.\Generated_Source\PSoC4/cyfitter_cfg.c **** 			{0x54u, 0x80u},
 382:.\Generated_Source\PSoC4/cyfitter_cfg.c **** 			{0x56u, 0x20u},
 383:.\Generated_Source\PSoC4/cyfitter_cfg.c **** 			{0x57u, 0x40u},
 384:.\Generated_Source\PSoC4/cyfitter_cfg.c **** 			{0x5Eu, 0x88u},
 385:.\Generated_Source\PSoC4/cyfitter_cfg.c **** 			{0x5Fu, 0x01u},
 386:.\Generated_Source\PSoC4/cyfitter_cfg.c **** 			{0x77u, 0x40u},
 387:.\Generated_Source\PSoC4/cyfitter_cfg.c **** 			{0x87u, 0x80u},
 388:.\Generated_Source\PSoC4/cyfitter_cfg.c **** 			{0x8Cu, 0x01u},
 389:.\Generated_Source\PSoC4/cyfitter_cfg.c **** 			{0xC2u, 0xA0u},
 390:.\Generated_Source\PSoC4/cyfitter_cfg.c **** 			{0xC4u, 0xA0u},
 391:.\Generated_Source\PSoC4/cyfitter_cfg.c **** 			{0xCAu, 0x10u},
ARM GAS  C:\Users\kbuchi\AppData\Local\Temp\ccBBqH9f.s 			page 14


 392:.\Generated_Source\PSoC4/cyfitter_cfg.c **** 			{0xCEu, 0x20u},
 393:.\Generated_Source\PSoC4/cyfitter_cfg.c **** 			{0xD0u, 0x40u},
 394:.\Generated_Source\PSoC4/cyfitter_cfg.c **** 			{0xD2u, 0x10u},
 395:.\Generated_Source\PSoC4/cyfitter_cfg.c **** 			{0xD6u, 0xD0u},
 396:.\Generated_Source\PSoC4/cyfitter_cfg.c **** 			{0x63u, 0x02u},
 397:.\Generated_Source\PSoC4/cyfitter_cfg.c **** 			{0x87u, 0x01u},
 398:.\Generated_Source\PSoC4/cyfitter_cfg.c **** 			{0xD6u, 0x40u},
 399:.\Generated_Source\PSoC4/cyfitter_cfg.c **** 			{0xE6u, 0x10u},
 400:.\Generated_Source\PSoC4/cyfitter_cfg.c **** 			{0x6Cu, 0x40u},
 401:.\Generated_Source\PSoC4/cyfitter_cfg.c **** 			{0x70u, 0x08u},
 402:.\Generated_Source\PSoC4/cyfitter_cfg.c **** 			{0xDCu, 0x03u},
 403:.\Generated_Source\PSoC4/cyfitter_cfg.c **** 			{0x61u, 0x02u},
 404:.\Generated_Source\PSoC4/cyfitter_cfg.c **** 			{0x8Cu, 0x48u},
 405:.\Generated_Source\PSoC4/cyfitter_cfg.c **** 			{0x8Du, 0x02u},
 406:.\Generated_Source\PSoC4/cyfitter_cfg.c **** 			{0x94u, 0x80u},
 407:.\Generated_Source\PSoC4/cyfitter_cfg.c **** 			{0xA4u, 0x08u},
 408:.\Generated_Source\PSoC4/cyfitter_cfg.c **** 			{0xD8u, 0x02u},
 409:.\Generated_Source\PSoC4/cyfitter_cfg.c **** 			{0xE4u, 0x08u},
 410:.\Generated_Source\PSoC4/cyfitter_cfg.c **** 			{0x01u, 0x01u},
 411:.\Generated_Source\PSoC4/cyfitter_cfg.c **** 			{0x10u, 0x01u},
 412:.\Generated_Source\PSoC4/cyfitter_cfg.c **** 		};
 413:.\Generated_Source\PSoC4/cyfitter_cfg.c **** 
 414:.\Generated_Source\PSoC4/cyfitter_cfg.c **** 
 415:.\Generated_Source\PSoC4/cyfitter_cfg.c **** 
 416:.\Generated_Source\PSoC4/cyfitter_cfg.c **** 		CYPACKED typedef struct {
 417:.\Generated_Source\PSoC4/cyfitter_cfg.c **** 			void CYFAR *address;
 418:.\Generated_Source\PSoC4/cyfitter_cfg.c **** 			uint16 size;
 419:.\Generated_Source\PSoC4/cyfitter_cfg.c **** 		} CYPACKED_ATTR cfg_memset_t;
 420:.\Generated_Source\PSoC4/cyfitter_cfg.c **** 
 421:.\Generated_Source\PSoC4/cyfitter_cfg.c **** 		static const cfg_memset_t CYCODE cfg_memset_list [] = {
 422:.\Generated_Source\PSoC4/cyfitter_cfg.c **** 			/* address, size */
 423:.\Generated_Source\PSoC4/cyfitter_cfg.c **** 			{(void CYFAR *)(CYDEV_UDB_P0_U0_BASE), 1024u},
 424:.\Generated_Source\PSoC4/cyfitter_cfg.c **** 			{(void CYFAR *)(CYDEV_UDB_DSI0_BASE), 1024u},
 425:.\Generated_Source\PSoC4/cyfitter_cfg.c **** 		};
 426:.\Generated_Source\PSoC4/cyfitter_cfg.c **** 
 427:.\Generated_Source\PSoC4/cyfitter_cfg.c **** 		uint8 CYDATA i;
 428:.\Generated_Source\PSoC4/cyfitter_cfg.c **** 
 429:.\Generated_Source\PSoC4/cyfitter_cfg.c **** 		/* Zero out critical memory blocks before beginning configuration */
 430:.\Generated_Source\PSoC4/cyfitter_cfg.c **** 		for (i = 0u; i < (sizeof(cfg_memset_list)/sizeof(cfg_memset_list[0])); i++)
 339              		.loc 1 430 0
 340 00a8 0024     		mov	r4, #0
 341              	.LBB5:
 431:.\Generated_Source\PSoC4/cyfitter_cfg.c **** 		{
 432:.\Generated_Source\PSoC4/cyfitter_cfg.c **** 			const cfg_memset_t CYCODE * CYDATA ms = &cfg_memset_list[i];
 342              		.loc 1 432 0
 343 00aa 284D     		ldr	r5, .L21
 344              	.LBE5:
 430:.\Generated_Source\PSoC4/cyfitter_cfg.c **** 		for (i = 0u; i < (sizeof(cfg_memset_list)/sizeof(cfg_memset_list[0])); i++)
 345              		.loc 1 430 0
 346 00ac 0CE0     		b	.L19
 347              	.LVL28:
 348              	.L20:
 349              	.LBB6:
 350              		.loc 1 432 0 discriminator 2
 351 00ae 6300     		lsl	r3, r4, #1
 352 00b0 1B19     		add	r3, r3, r4
 353 00b2 5B00     		lsl	r3, r3, #1
ARM GAS  C:\Users\kbuchi\AppData\Local\Temp\ccBBqH9f.s 			page 15


 354 00b4 EB18     		add	r3, r5, r3
 355              	.LVL29:
 433:.\Generated_Source\PSoC4/cyfitter_cfg.c **** 			CYMEMZERO(ms->address, (size_t)(uint32)(ms->size));
 356              		.loc 1 433 0 discriminator 2
 357 00b6 9988     		ldrh	r1, [r3, #4]
 358 00b8 1A88     		ldrh	r2, [r3]
 359 00ba 5888     		ldrh	r0, [r3, #2]
 360 00bc 0004     		lsl	r0, r0, #16
 361 00be 1043     		orr	r0, r2
 362 00c0 FFF7FEFF 		bl	CYMEMZERO
 363              	.LVL30:
 364              	.LBE6:
 430:.\Generated_Source\PSoC4/cyfitter_cfg.c **** 		for (i = 0u; i < (sizeof(cfg_memset_list)/sizeof(cfg_memset_list[0])); i++)
 365              		.loc 1 430 0 discriminator 2
 366 00c4 0134     		add	r4, r4, #1
 367              	.LVL31:
 368 00c6 E4B2     		uxtb	r4, r4
 369              	.LVL32:
 370              	.L19:
 430:.\Generated_Source\PSoC4/cyfitter_cfg.c **** 		for (i = 0u; i < (sizeof(cfg_memset_list)/sizeof(cfg_memset_list[0])); i++)
 371              		.loc 1 430 0 is_stmt 0 discriminator 1
 372 00c8 012C     		cmp	r4, #1
 373 00ca F0D9     		bls	.L20
 434:.\Generated_Source\PSoC4/cyfitter_cfg.c **** 		}
 435:.\Generated_Source\PSoC4/cyfitter_cfg.c **** 
 436:.\Generated_Source\PSoC4/cyfitter_cfg.c **** 		cfg_write_bytes32(cy_cfg_addr_table, cy_cfg_data_table);
 374              		.loc 1 436 0 is_stmt 1
 375 00cc 1F49     		ldr	r1, .L21
 376 00ce 081C     		mov	r0, r1
 377 00d0 0C30     		add	r0, r0, #12
 378 00d2 2831     		add	r1, r1, #40
 379 00d4 FFF7FEFF 		bl	cfg_write_bytes32
 380              	.LVL33:
 437:.\Generated_Source\PSoC4/cyfitter_cfg.c **** 
 438:.\Generated_Source\PSoC4/cyfitter_cfg.c **** 		/* HSIOM Starting address: CYDEV_HSIOM_BASE */
 439:.\Generated_Source\PSoC4/cyfitter_cfg.c **** 		CY_SET_XTND_REG32((void CYFAR *)(CYREG_HSIOM_PORT_SEL1), 0x03000000u);
 381              		.loc 1 439 0
 382 00d8 C022     		mov	r2, #192
 383 00da 9204     		lsl	r2, r2, #18
 384 00dc 1C4B     		ldr	r3, .L21+4
 385 00de 1A60     		str	r2, [r3]
 440:.\Generated_Source\PSoC4/cyfitter_cfg.c **** 		CY_SET_XTND_REG32((void CYFAR *)(CYREG_HSIOM_PORT_SEL3), 0x0000EE00u);
 386              		.loc 1 440 0
 387 00e0 EE22     		mov	r2, #238
 388 00e2 1202     		lsl	r2, r2, #8
 389 00e4 1B4B     		ldr	r3, .L21+8
 390 00e6 1A60     		str	r2, [r3]
 441:.\Generated_Source\PSoC4/cyfitter_cfg.c **** 
 442:.\Generated_Source\PSoC4/cyfitter_cfg.c **** 		/* UDB_PA_1 Starting address: CYDEV_UDB_PA1_BASE */
 443:.\Generated_Source\PSoC4/cyfitter_cfg.c **** 		CY_SET_XTND_REG32((void CYFAR *)(CYDEV_UDB_PA1_BASE), 0x00990000u);
 391              		.loc 1 443 0
 392 00e8 9923     		mov	r3, #153
 393 00ea 1B04     		lsl	r3, r3, #16
 394 00ec 1A4A     		ldr	r2, .L21+12
 395 00ee 1360     		str	r3, [r2]
 444:.\Generated_Source\PSoC4/cyfitter_cfg.c **** 
 445:.\Generated_Source\PSoC4/cyfitter_cfg.c **** 		/* UDB_PA_3 Starting address: CYDEV_UDB_PA3_BASE */
ARM GAS  C:\Users\kbuchi\AppData\Local\Temp\ccBBqH9f.s 			page 16


 446:.\Generated_Source\PSoC4/cyfitter_cfg.c **** 		CY_SET_XTND_REG32((void CYFAR *)(CYDEV_UDB_PA3_BASE), 0x00990000u);
 396              		.loc 1 446 0
 397 00f0 1A4A     		ldr	r2, .L21+16
 398 00f2 1360     		str	r3, [r2]
 447:.\Generated_Source\PSoC4/cyfitter_cfg.c **** 		CY_SET_XTND_REG32((void CYFAR *)(CYREG_UDB_PA3_CFG8), 0x20000000u);
 399              		.loc 1 447 0
 400 00f4 8022     		mov	r2, #128
 401 00f6 9205     		lsl	r2, r2, #22
 402 00f8 194B     		ldr	r3, .L21+20
 403 00fa 1A60     		str	r2, [r3]
 448:.\Generated_Source\PSoC4/cyfitter_cfg.c **** 
 449:.\Generated_Source\PSoC4/cyfitter_cfg.c **** 		/* Enable digital routing */
 450:.\Generated_Source\PSoC4/cyfitter_cfg.c **** 		CY_SET_XTND_REG8((void *)CYREG_UDB_UDBIF_BANK_CTL, CY_GET_XTND_REG8((void *)CYREG_UDB_UDBIF_BANK_
 404              		.loc 1 450 0
 405 00fc 194B     		ldr	r3, .L21+24
 406 00fe 1978     		ldrb	r1, [r3]
 407 0100 0222     		mov	r2, #2
 408 0102 0A43     		orr	r2, r1
 409 0104 1A70     		strb	r2, [r3]
 451:.\Generated_Source\PSoC4/cyfitter_cfg.c **** 
 452:.\Generated_Source\PSoC4/cyfitter_cfg.c **** 		/* Enable UDB array */
 453:.\Generated_Source\PSoC4/cyfitter_cfg.c **** 		CY_SET_XTND_REG8((void *)CYREG_UDB_UDBIF_WAIT_CFG, (uint8)((CY_GET_XTND_REG8((void *)CYREG_UDB_UD
 410              		.loc 1 453 0
 411 0106 184A     		ldr	r2, .L21+28
 412 0108 1178     		ldrb	r1, [r2]
 413 010a 3C20     		mov	r0, #60
 414 010c 8143     		bic	r1, r0
 415 010e 1420     		mov	r0, #20
 416 0110 0143     		orr	r1, r0
 417 0112 1170     		strb	r1, [r2]
 454:.\Generated_Source\PSoC4/cyfitter_cfg.c **** 		CY_SET_XTND_REG8((void *)CYREG_UDB_UDBIF_BANK_CTL, (uint8)(CY_GET_XTND_REG8((void *)CYREG_UDB_UDB
 418              		.loc 1 454 0
 419 0114 1978     		ldrb	r1, [r3]
 420 0116 1622     		mov	r2, #22
 421 0118 0A43     		orr	r2, r1
 422 011a 1A70     		strb	r2, [r3]
 423              	.LBE4:
 455:.\Generated_Source\PSoC4/cyfitter_cfg.c **** 	}
 456:.\Generated_Source\PSoC4/cyfitter_cfg.c **** 
 457:.\Generated_Source\PSoC4/cyfitter_cfg.c **** 	/* Perform second pass device configuration. These items must be configured in specific order afte
 458:.\Generated_Source\PSoC4/cyfitter_cfg.c **** 	/* IOPINS0_1 Starting address: CYDEV_PRT1_DR */
 459:.\Generated_Source\PSoC4/cyfitter_cfg.c **** 	CY_SET_XTND_REG32((void CYFAR *)(CYREG_PRT1_DR), 0x0000007Eu);
 424              		.loc 1 459 0
 425 011c 7E22     		mov	r2, #126
 426 011e 134B     		ldr	r3, .L21+32
 427 0120 1A60     		str	r2, [r3]
 460:.\Generated_Source\PSoC4/cyfitter_cfg.c **** 	CY_SET_XTND_REG32((void CYFAR *)(CYREG_PRT1_PC), 0x00180000u);
 428              		.loc 1 460 0
 429 0122 C022     		mov	r2, #192
 430 0124 5203     		lsl	r2, r2, #13
 431 0126 124B     		ldr	r3, .L21+36
 432 0128 1A60     		str	r2, [r3]
 461:.\Generated_Source\PSoC4/cyfitter_cfg.c **** 	CY_SET_XTND_REG32((void CYFAR *)(CYREG_PRT1_PC2), 0x0000003Eu);
 433              		.loc 1 461 0
 434 012a 3E22     		mov	r2, #62
 435 012c 114B     		ldr	r3, .L21+40
 436 012e 1A60     		str	r2, [r3]
ARM GAS  C:\Users\kbuchi\AppData\Local\Temp\ccBBqH9f.s 			page 17


 462:.\Generated_Source\PSoC4/cyfitter_cfg.c **** 
 463:.\Generated_Source\PSoC4/cyfitter_cfg.c **** 	/* IOPINS0_3 Starting address: CYDEV_PRT3_DR */
 464:.\Generated_Source\PSoC4/cyfitter_cfg.c **** 	CY_SET_XTND_REG32((void CYFAR *)(CYREG_PRT3_PC), 0x00000D80u);
 437              		.loc 1 464 0
 438 0130 D822     		mov	r2, #216
 439 0132 1201     		lsl	r2, r2, #4
 440 0134 104B     		ldr	r3, .L21+44
 441 0136 1A60     		str	r2, [r3]
 465:.\Generated_Source\PSoC4/cyfitter_cfg.c **** 
 466:.\Generated_Source\PSoC4/cyfitter_cfg.c **** 	/* IOPINS0_4 Starting address: CYDEV_PRT4_DR */
 467:.\Generated_Source\PSoC4/cyfitter_cfg.c **** 	CY_SET_XTND_REG32((void CYFAR *)(CYREG_PRT4_DR), 0x00000004u);
 442              		.loc 1 467 0
 443 0138 0423     		mov	r3, #4
 444 013a 104A     		ldr	r2, .L21+48
 445 013c 1360     		str	r3, [r2]
 468:.\Generated_Source\PSoC4/cyfitter_cfg.c **** 	CY_SET_XTND_REG32((void CYFAR *)(CYREG_PRT4_PC2), 0x00000004u);
 446              		.loc 1 468 0
 447 013e 104A     		ldr	r2, .L21+52
 448 0140 1360     		str	r3, [r2]
 469:.\Generated_Source\PSoC4/cyfitter_cfg.c **** 
 470:.\Generated_Source\PSoC4/cyfitter_cfg.c **** 	/* Setup clocks based on selections from Clock DWR */
 471:.\Generated_Source\PSoC4/cyfitter_cfg.c **** 	ClockSetup();
 449              		.loc 1 471 0
 450 0142 FFF75DFF 		bl	ClockSetup
 451              	.LVL34:
 472:.\Generated_Source\PSoC4/cyfitter_cfg.c **** 
 473:.\Generated_Source\PSoC4/cyfitter_cfg.c **** 	/* Perform basic analog initialization to defaults */
 474:.\Generated_Source\PSoC4/cyfitter_cfg.c **** 	AnalogSetDefault();
 452              		.loc 1 474 0
 453 0146 FFF7FEFF 		bl	AnalogSetDefault
 454              	.LVL35:
 475:.\Generated_Source\PSoC4/cyfitter_cfg.c **** 
 476:.\Generated_Source\PSoC4/cyfitter_cfg.c **** }
 455              		.loc 1 476 0
 456              		@ sp needed
 457              	.LVL36:
 458 014a 38BD     		pop	{r3, r4, r5, pc}
 459              	.L22:
 460              		.align	2
 461              	.L21:
 462 014c 00000000 		.word	.LANCHOR0
 463 0150 04000140 		.word	1073807364
 464 0154 0C000140 		.word	1073807372
 465 0158 10500F40 		.word	1074745360
 466 015c 30500F40 		.word	1074745392
 467 0160 38500F40 		.word	1074745400
 468 0164 00700F40 		.word	1074753536
 469 0168 01700F40 		.word	1074753537
 470 016c 00010440 		.word	1074004224
 471 0170 08010440 		.word	1074004232
 472 0174 18010440 		.word	1074004248
 473 0178 08030440 		.word	1074004744
 474 017c 00040440 		.word	1074004992
 475 0180 18040440 		.word	1074005016
 476              		.cfi_endproc
 477              	.LFE7:
 478              		.size	cyfitter_cfg, .-cyfitter_cfg
ARM GAS  C:\Users\kbuchi\AppData\Local\Temp\ccBBqH9f.s 			page 18


 479              		.section	.rodata
 480              		.align	2
 481              		.set	.LANCHOR0,. + 0
 482              		.type	cfg_memset_list.4746, %object
 483              		.size	cfg_memset_list.4746, 12
 484              	cfg_memset_list.4746:
 485 0000 00300F40 		.word	1074737152
 486 0004 0004     		.short	1024
 487 0006 00400F40 		.4byte	1074741248
 488 000a 0004     		.short	1024
 489              		.type	cy_cfg_addr_table.4740, %object
 490              		.size	cy_cfg_addr_table.4740, 28
 491              	cy_cfg_addr_table.4740:
 492 000c 01000F40 		.word	1074724865
 493 0010 2B320F40 		.word	1074737707
 494 0014 1C330F40 		.word	1074737948
 495 0018 04410F40 		.word	1074741508
 496 001c 03420F40 		.word	1074741763
 497 0020 07430F40 		.word	1074742023
 498 0024 02600F40 		.word	1074749442
 499              		.type	cy_cfg_data_table.4741, %object
 500              		.size	cy_cfg_data_table.4741, 176
 501              	cy_cfg_data_table.4741:
 502 0028 82       		.byte	-126
 503 0029 0D       		.byte	13
 504 002a 0B       		.byte	11
 505 002b 01       		.byte	1
 506 002c 16       		.byte	22
 507 002d 05       		.byte	5
 508 002e 1E       		.byte	30
 509 002f 04       		.byte	4
 510 0030 26       		.byte	38
 511 0031 09       		.byte	9
 512 0032 2D       		.byte	45
 513 0033 01       		.byte	1
 514 0034 2E       		.byte	46
 515 0035 02       		.byte	2
 516 0036 30       		.byte	48
 517 0037 08       		.byte	8
 518 0038 32       		.byte	50
 519 0039 02       		.byte	2
 520 003a 34       		.byte	52
 521 003b 04       		.byte	4
 522 003c 36       		.byte	54
 523 003d 01       		.byte	1
 524 003e 37       		.byte	55
 525 003f 01       		.byte	1
 526 0040 3E       		.byte	62
 527 0041 10       		.byte	16
 528 0042 40       		.byte	64
 529 0043 30       		.byte	48
 530 0044 41       		.byte	65
 531 0045 05       		.byte	5
 532 0046 45       		.byte	69
 533 0047 D0       		.byte	-48
 534 0048 46       		.byte	70
 535 0049 12       		.byte	18
ARM GAS  C:\Users\kbuchi\AppData\Local\Temp\ccBBqH9f.s 			page 19


 536 004a 48       		.byte	72
 537 004b 0E       		.byte	14
 538 004c 49       		.byte	73
 539 004d FF       		.byte	-1
 540 004e 4A       		.byte	74
 541 004f FF       		.byte	-1
 542 0050 4B       		.byte	75
 543 0051 FF       		.byte	-1
 544 0052 4D       		.byte	77
 545 0053 A0       		.byte	-96
 546 0054 4F       		.byte	79
 547 0055 04       		.byte	4
 548 0056 50       		.byte	80
 549 0057 18       		.byte	24
 550 0058 52       		.byte	82
 551 0059 80       		.byte	-128
 552 005a 54       		.byte	84
 553 005b 05       		.byte	5
 554 005c 58       		.byte	88
 555 005d 04       		.byte	4
 556 005e 59       		.byte	89
 557 005f 04       		.byte	4
 558 0060 5A       		.byte	90
 559 0061 04       		.byte	4
 560 0062 5B       		.byte	91
 561 0063 04       		.byte	4
 562 0064 5F       		.byte	95
 563 0065 01       		.byte	1
 564 0066 60       		.byte	96
 565 0067 40       		.byte	64
 566 0068 62       		.byte	98
 567 0069 C0       		.byte	-64
 568 006a 64       		.byte	100
 569 006b 40       		.byte	64
 570 006c 65       		.byte	101
 571 006d 40       		.byte	64
 572 006e 66       		.byte	102
 573 006f C0       		.byte	-64
 574 0070 68       		.byte	104
 575 0071 C0       		.byte	-64
 576 0072 6A       		.byte	106
 577 0073 C0       		.byte	-64
 578 0074 6C       		.byte	108
 579 0075 C0       		.byte	-64
 580 0076 6E       		.byte	110
 581 0077 C0       		.byte	-64
 582 0078 B8       		.byte	-72
 583 0079 80       		.byte	-128
 584 007a BE       		.byte	-66
 585 007b 40       		.byte	64
 586 007c D8       		.byte	-40
 587 007d 04       		.byte	4
 588 007e DF       		.byte	-33
 589 007f 01       		.byte	1
 590 0080 0C       		.byte	12
 591 0081 80       		.byte	-128
 592 0082 0D       		.byte	13
ARM GAS  C:\Users\kbuchi\AppData\Local\Temp\ccBBqH9f.s 			page 20


 593 0083 08       		.byte	8
 594 0084 16       		.byte	22
 595 0085 20       		.byte	32
 596 0086 17       		.byte	23
 597 0087 40       		.byte	64
 598 0088 18       		.byte	24
 599 0089 01       		.byte	1
 600 008a 1D       		.byte	29
 601 008b 08       		.byte	8
 602 008c 1E       		.byte	30
 603 008d 08       		.byte	8
 604 008e 1F       		.byte	31
 605 008f 82       		.byte	-126
 606 0090 26       		.byte	38
 607 0091 40       		.byte	64
 608 0092 2F       		.byte	47
 609 0093 02       		.byte	2
 610 0094 3E       		.byte	62
 611 0095 20       		.byte	32
 612 0096 45       		.byte	69
 613 0097 08       		.byte	8
 614 0098 4F       		.byte	79
 615 0099 81       		.byte	-127
 616 009a 54       		.byte	84
 617 009b 80       		.byte	-128
 618 009c 56       		.byte	86
 619 009d 20       		.byte	32
 620 009e 57       		.byte	87
 621 009f 40       		.byte	64
 622 00a0 5E       		.byte	94
 623 00a1 88       		.byte	-120
 624 00a2 5F       		.byte	95
 625 00a3 01       		.byte	1
 626 00a4 77       		.byte	119
 627 00a5 40       		.byte	64
 628 00a6 87       		.byte	-121
 629 00a7 80       		.byte	-128
 630 00a8 8C       		.byte	-116
 631 00a9 01       		.byte	1
 632 00aa C2       		.byte	-62
 633 00ab A0       		.byte	-96
 634 00ac C4       		.byte	-60
 635 00ad A0       		.byte	-96
 636 00ae CA       		.byte	-54
 637 00af 10       		.byte	16
 638 00b0 CE       		.byte	-50
 639 00b1 20       		.byte	32
 640 00b2 D0       		.byte	-48
 641 00b3 40       		.byte	64
 642 00b4 D2       		.byte	-46
 643 00b5 10       		.byte	16
 644 00b6 D6       		.byte	-42
 645 00b7 D0       		.byte	-48
 646 00b8 63       		.byte	99
 647 00b9 02       		.byte	2
 648 00ba 87       		.byte	-121
 649 00bb 01       		.byte	1
ARM GAS  C:\Users\kbuchi\AppData\Local\Temp\ccBBqH9f.s 			page 21


 650 00bc D6       		.byte	-42
 651 00bd 40       		.byte	64
 652 00be E6       		.byte	-26
 653 00bf 10       		.byte	16
 654 00c0 6C       		.byte	108
 655 00c1 40       		.byte	64
 656 00c2 70       		.byte	112
 657 00c3 08       		.byte	8
 658 00c4 DC       		.byte	-36
 659 00c5 03       		.byte	3
 660 00c6 61       		.byte	97
 661 00c7 02       		.byte	2
 662 00c8 8C       		.byte	-116
 663 00c9 48       		.byte	72
 664 00ca 8D       		.byte	-115
 665 00cb 02       		.byte	2
 666 00cc 94       		.byte	-108
 667 00cd 80       		.byte	-128
 668 00ce A4       		.byte	-92
 669 00cf 08       		.byte	8
 670 00d0 D8       		.byte	-40
 671 00d1 02       		.byte	2
 672 00d2 E4       		.byte	-28
 673 00d3 08       		.byte	8
 674 00d4 01       		.byte	1
 675 00d5 01       		.byte	1
 676 00d6 10       		.byte	16
 677 00d7 01       		.byte	1
 678              		.text
 679              	.Letext0:
 680              		.file 2 "c:\\works\\programs\\psoc_creator\\psoc creator\\3.2\\psoc_creator\\import\\gnu\\arm\\4.8
 681              		.file 3 ".\\Generated_Source\\PSoC4\\cytypes.h"
 682              		.file 4 ".\\Generated_Source\\PSoC4\\CyLib.h"